
float.elf:     file format elf32-littlenios2
float.elf
architecture: nios2:r1, flags 0x00000112:
EXEC_P, HAS_SYMS, D_PAGED
start address 0x00800238

Program Header:
    LOAD off    0x00001000 vaddr 0x00800000 paddr 0x00800000 align 2**12
         filesz 0x00000020 memsz 0x00000020 flags r-x
    LOAD off    0x00001020 vaddr 0x00800020 paddr 0x00800020 align 2**12
         filesz 0x00027c9c memsz 0x00027c9c flags r-x
    LOAD off    0x00028cbc vaddr 0x00827cbc paddr 0x008299f8 align 2**12
         filesz 0x00001d3c memsz 0x00001d3c flags rw-
    LOAD off    0x0002b734 vaddr 0x0082b734 paddr 0x0082b734 align 2**12
         filesz 0x00000000 memsz 0x00000190 flags rw-

Sections:
Idx Name          Size      VMA       LMA       File off  Algn
  0 .entry        00000020  00800000  00800000  00001000  2**5
                  CONTENTS, ALLOC, LOAD, READONLY, CODE
  1 .exceptions   00000218  00800020  00800020  00001020  2**2
                  CONTENTS, ALLOC, LOAD, READONLY, CODE
  2 .text         00026ab4  00800238  00800238  00001238  2**2
                  CONTENTS, ALLOC, LOAD, READONLY, CODE
  3 .rodata       00000fd0  00826cec  00826cec  00027cec  2**2
                  CONTENTS, ALLOC, LOAD, READONLY, DATA
  4 .rwdata       00001d3c  00827cbc  008299f8  00028cbc  2**2
                  CONTENTS, ALLOC, LOAD, DATA, SMALL_DATA
  5 .bss          00000190  0082b734  0082b734  0002b734  2**2
                  ALLOC, SMALL_DATA
  6 .sdram        00000000  0082b8c4  0082b8c4  0002a9f8  2**0
                  CONTENTS
  7 .comment      0000002d  00000000  00000000  0002a9f8  2**0
                  CONTENTS, READONLY
  8 .debug_aranges 00002a30  00000000  00000000  0002aa28  2**3
                  CONTENTS, READONLY, DEBUGGING, OCTETS
  9 .debug_info   000a5239  00000000  00000000  0002d458  2**0
                  CONTENTS, READONLY, DEBUGGING, OCTETS
 10 .debug_abbrev 0001772a  00000000  00000000  000d2691  2**0
                  CONTENTS, READONLY, DEBUGGING, OCTETS
 11 .debug_line   00034f13  00000000  00000000  000e9dbb  2**0
                  CONTENTS, READONLY, DEBUGGING, OCTETS
 12 .debug_frame  00008198  00000000  00000000  0011ecd0  2**2
                  CONTENTS, READONLY, DEBUGGING, OCTETS
 13 .debug_str    000223f6  00000000  00000000  00126e68  2**0
                  CONTENTS, READONLY, DEBUGGING, OCTETS
 14 .debug_loc    000587cb  00000000  00000000  0014925e  2**0
                  CONTENTS, READONLY, DEBUGGING, OCTETS
 15 .debug_alt_sim_info 00000030  00000000  00000000  001a1a2c  2**2
                  CONTENTS, READONLY, DEBUGGING, OCTETS
 16 .debug_ranges 0000d840  00000000  00000000  001a1a60  2**3
                  CONTENTS, READONLY, DEBUGGING, OCTETS
 17 .thread_model 00000003  00000000  00000000  001c152f  2**0
                  CONTENTS, READONLY
 18 .cpu          00000003  00000000  00000000  001c1532  2**0
                  CONTENTS, READONLY
 19 .qsys         00000001  00000000  00000000  001c1535  2**0
                  CONTENTS, READONLY
 20 .simulation_enabled 00000001  00000000  00000000  001c1536  2**0
                  CONTENTS, READONLY
 21 .sysid_hash   00000004  00000000  00000000  001c1537  2**0
                  CONTENTS, READONLY
 22 .sysid_base   00000004  00000000  00000000  001c153b  2**0
                  CONTENTS, READONLY
 23 .sysid_time   00000004  00000000  00000000  001c153f  2**0
                  CONTENTS, READONLY
 24 .stderr_dev   00000009  00000000  00000000  001c1543  2**0
                  CONTENTS, READONLY
 25 .stdin_dev    00000009  00000000  00000000  001c154c  2**0
                  CONTENTS, READONLY
 26 .stdout_dev   00000009  00000000  00000000  001c1555  2**0
                  CONTENTS, READONLY
 27 .sopc_system_name 0000000c  00000000  00000000  001c155e  2**0
                  CONTENTS, READONLY
 28 .quartus_project_dir 0000003d  00000000  00000000  001c156a  2**0
                  CONTENTS, READONLY
SYMBOL TABLE:
00800000 l    d  .entry	00000000 .entry
00800020 l    d  .exceptions	00000000 .exceptions
00800238 l    d  .text	00000000 .text
00826cec l    d  .rodata	00000000 .rodata
00827cbc l    d  .rwdata	00000000 .rwdata
0082b734 l    d  .bss	00000000 .bss
0082b8c4 l    d  .sdram	00000000 .sdram
00000000 l    d  .comment	00000000 .comment
00000000 l    d  .debug_aranges	00000000 .debug_aranges
00000000 l    d  .debug_info	00000000 .debug_info
00000000 l    d  .debug_abbrev	00000000 .debug_abbrev
00000000 l    d  .debug_line	00000000 .debug_line
00000000 l    d  .debug_frame	00000000 .debug_frame
00000000 l    d  .debug_str	00000000 .debug_str
00000000 l    d  .debug_loc	00000000 .debug_loc
00000000 l    d  .debug_alt_sim_info	00000000 .debug_alt_sim_info
00000000 l    d  .debug_ranges	00000000 .debug_ranges
00000000 l    df *ABS*	00000000 c:/Users/runsh/Desktop/Main/IC/EIE3/summer/pathfinder/quartus/software/float_bsp//obj/HAL/src/crt0.o
00800280 l       .text	00000000 alt_after_alt_main
00000000 l    df *ABS*	00000000 alt_irq_handler.c
00000000 l    df *ABS*	00000000 alt_instruction_exception_entry.c
00000000 l    df *ABS*	00000000 DMA.cpp
00000000 l    df *ABS*	00000000 hello_world.cpp
00829938 l     O .rwdata	00000001 _ZStL19piecewise_construct
00000000 l    df *ABS*	00000000 del_ops.cc
00000000 l    df *ABS*	00000000 eh_catch.cc
00000000 l    df *ABS*	00000000 eh_globals.cc
0082b734 l     O .bss	00000008 _ZL10eh_globals
00000000 l    df *ABS*	00000000 eh_personality.cc
008083b8 l     F .text	00000090 _ZL16get_adjusted_ptrPKSt9type_infoS1_PPv
00808448 l     F .text	000001e8 _ZL28read_encoded_value_with_basehjPKhPj
00808630 l     F .text	00000070 _ZL21base_of_encoded_valuehP15_Unwind_Context
008086a0 l     F .text	0000012c _ZL17parse_lsda_headerP15_Unwind_ContextPKhP16lsda_header_info
008087cc l     F .text	00000110 _ZL20check_exception_specP16lsda_header_infoPKSt9type_infoPvl
00000000 l    df *ABS*	00000000 eh_terminate.cc
00000000 l    df *ABS*	00000000 eh_throw.cc
00809250 l     F .text	00000068 _ZL23__gxx_exception_cleanup19_Unwind_Reason_CodeP17_Unwind_Exception
00000000 l    df *ABS*	00000000 eh_unex_handler.cc
00000000 l    df *ABS*	00000000 new_op.cc
00000000 l    df *ABS*	00000000 functexcept.cc
00000000 l    df *ABS*	00000000 snprintf_lite.cc
00000000 l    df *ABS*	00000000 bad_alloc.cc
00000000 l    df *ABS*	00000000 bad_cast.cc
00000000 l    df *ABS*	00000000 bad_typeid.cc
00000000 l    df *ABS*	00000000 del_op.cc
00000000 l    df *ABS*	00000000 eh_alloc.cc
00809fe4 l     F .text	000000cc _ZN12_GLOBAL__N_14pool4freeEPv.constprop.0
0082b77c l     O .bss	00000010 _ZN12_GLOBAL__N_114emergency_poolE
0080a0b0 l     F .text	00000090 _ZN12_GLOBAL__N_14pool8allocateEj.constprop.0
0080a260 l     F .text	00000064 _GLOBAL__sub_I__ZN9__gnu_cxx9__freeresEv
00000000 l    df *ABS*	00000000 eh_call.cc
00000000 l    df *ABS*	00000000 eh_exception.cc
00000000 l    df *ABS*	00000000 eh_term_handler.cc
00000000 l    df *ABS*	00000000 new_handler.cc
0082b73c l     O .bss	00000004 _ZN12_GLOBAL__N_113__new_handlerE
00000000 l    df *ABS*	00000000 pure.cc
00000000 l    df *ABS*	00000000 si_class_type_info.cc
00000000 l    df *ABS*	00000000 tinfo.cc
00000000 l    df *ABS*	00000000 stdexcept.cc
00000000 l    df *ABS*	00000000 cow-stdexcept.cc
00000000 l    df *ABS*	00000000 cow-string-inst.cc
00000000 l    df *ABS*	00000000 random.cc
00000000 l    df *ABS*	00000000 sso_string.cc
00000000 l    df *ABS*	00000000 string-inst.cc
00000000 l    df *ABS*	00000000 class_type_info.cc
00000000 l    df *ABS*	00000000 libgcc2.c
00000000 l    df *ABS*	00000000 lib2-divmod.c
00000000 l    df *ABS*	00000000 lib2-mul.c
00000000 l    df *ABS*	00000000 adddf3.c
00000000 l    df *ABS*	00000000 divdf3.c
00000000 l    df *ABS*	00000000 muldf3.c
00000000 l    df *ABS*	00000000 fixdfsi.c
00000000 l    df *ABS*	00000000 floatsidf.c
00000000 l    df *ABS*	00000000 floatunsidf.c
00000000 l    df *ABS*	00000000 extendsfdf2.c
00000000 l    df *ABS*	00000000 unwind-sjlj.c
008170fc l     F .text	00000114 _Unwind_ForcedUnwind_Phase2
0082b740 l     O .bss	00000004 fc_static
00817210 l     F .text	000000d8 _Unwind_RaiseException_Phase2
008172e8 l     F .text	0000002c uw_install_context.constprop.0.isra.0
00000000 l    df *ABS*	00000000 libgcc2.c
00000000 l    df *ABS*	00000000 libgcc2.c
00000000 l    df *ABS*	00000000 abort.c
00000000 l    df *ABS*	00000000 malloc.c
00000000 l    df *ABS*	00000000 mallocr.c
00000000 l    df *ABS*	00000000 memchr.c
00000000 l    df *ABS*	00000000 memcmp.c
00000000 l    df *ABS*	00000000 memcpy.c
00000000 l    df *ABS*	00000000 memmove.c
00000000 l    df *ABS*	00000000 memset.c
00000000 l    df *ABS*	00000000 printf.c
00000000 l    df *ABS*	00000000 putchar.c
00000000 l    df *ABS*	00000000 puts.c
00000000 l    df *ABS*	00000000 sbrkr.c
00000000 l    df *ABS*	00000000 signal.c
00000000 l    df *ABS*	00000000 signalr.c
00000000 l    df *ABS*	00000000 strcmp.c
00000000 l    df *ABS*	00000000 strlen.c
00000000 l    df *ABS*	00000000 strtoul.c
00818b4c l     F .text	00000268 _strtoul_l.constprop.0
00000000 l    df *ABS*	00000000 vfprintf.c
0081af10 l     F .text	000000c0 __sbprintf
008277b8 l     O .rodata	00000010 blanks.1
008277a8 l     O .rodata	00000010 zeroes.0
00000000 l    df *ABS*	00000000 wsetup.c
00000000 l    df *ABS*	00000000 ctype_.c
00000000 l    df *ABS*	00000000 dtoa.c
0081b134 l     F .text	00000220 quorem
00000000 l    df *ABS*	00000000 fflush.c
00000000 l    df *ABS*	00000000 findfp.c
0081cda8 l     F .text	00000008 __fp_lock
0081cdbc l     F .text	00000008 __fp_unlock
0081cdc4 l     F .text	00000168 __sinit.part.0
00000000 l    df *ABS*	00000000 mallocr.c
00000000 l    df *ABS*	00000000 fvwrite.c
00000000 l    df *ABS*	00000000 fwalk.c
00000000 l    df *ABS*	00000000 impure.c
008280c4 l     O .rwdata	00000424 impure_data
00000000 l    df *ABS*	00000000 int_errno.c
00000000 l    df *ABS*	00000000 localeconv.c
00000000 l    df *ABS*	00000000 makebuf.c
00000000 l    df *ABS*	00000000 mprec.c
00827af0 l     O .rodata	0000000c p05.0
00000000 l    df *ABS*	00000000 putc.c
00000000 l    df *ABS*	00000000 mallocr.c
00000000 l    df *ABS*	00000000 stdio.c
00000000 l    df *ABS*	00000000 vfprintf.c
0081f81c l     F .text	000000f4 __sprint_r.part.0
00820c88 l     F .text	000000c0 __sbprintf
00827c24 l     O .rodata	00000010 blanks.1
00827c14 l     O .rodata	00000010 zeroes.0
00000000 l    df *ABS*	00000000 wbuf.c
00000000 l    df *ABS*	00000000 writer.c
00000000 l    df *ABS*	00000000 closer.c
00000000 l    df *ABS*	00000000 assert.c
00000000 l    df *ABS*	00000000 mallocr.c
00000000 l    df *ABS*	00000000 fclose.c
008210a0 l     F .text	000000c0 _fclose_r.part.0
00000000 l    df *ABS*	00000000 fiprintf.c
00000000 l    df *ABS*	00000000 fputwc.c
00000000 l    df *ABS*	00000000 fstatr.c
00000000 l    df *ABS*	00000000 isattyr.c
00000000 l    df *ABS*	00000000 locale.c
00000000 l    df *ABS*	00000000 lseekr.c
00000000 l    df *ABS*	00000000 mbtowc_r.c
00000000 l    df *ABS*	00000000 readr.c
00000000 l    df *ABS*	00000000 vfiprintfr_1.c
00000000 l    df *ABS*	00000000 wcrtomb.c
00000000 l    df *ABS*	00000000 wctomb_r.c
00000000 l    df *ABS*	00000000 libgcc2.c
00000000 l    df *ABS*	00000000 libgcc2.c
00000000 l    df *ABS*	00000000 eqdf2.c
00000000 l    df *ABS*	00000000 gedf2.c
00000000 l    df *ABS*	00000000 ledf2.c
00000000 l    df *ABS*	00000000 subdf3.c
00000000 l    df *ABS*	00000000 unorddf2.c
00000000 l    df *ABS*	00000000 alt_close.c
00822fcc l     F .text	0000003c alt_get_errno
00000000 l    df *ABS*	00000000 alt_dev.c
008230e4 l     F .text	0000002c alt_dev_null_write
00000000 l    df *ABS*	00000000 alt_errno.c
00000000 l    df *ABS*	00000000 alt_exit.c
00000000 l    df *ABS*	00000000 alt_fstat.c
00823148 l     F .text	0000003c alt_get_errno
00000000 l    df *ABS*	00000000 alt_getpid.c
00000000 l    df *ABS*	00000000 alt_iic.c
00000000 l    df *ABS*	00000000 alt_iic_isr_register.c
00000000 l    df *ABS*	00000000 alt_irq_vars.c
00000000 l    df *ABS*	00000000 alt_isatty.c
008234f8 l     F .text	0000003c alt_get_errno
00000000 l    df *ABS*	00000000 alt_kill.c
008235e4 l     F .text	0000003c alt_get_errno
00000000 l    df *ABS*	00000000 alt_load.c
0082374c l     F .text	00000068 alt_load_section
00000000 l    df *ABS*	00000000 alt_lseek.c
00823838 l     F .text	0000003c alt_get_errno
00000000 l    df *ABS*	00000000 alt_main.c
00000000 l    df *ABS*	00000000 alt_malloc_lock.c
00000000 l    df *ABS*	00000000 alt_read.c
00823a18 l     F .text	0000003c alt_get_errno
00000000 l    df *ABS*	00000000 alt_release_fd.c
00000000 l    df *ABS*	00000000 alt_sbrk.c
008299dc l     O .rwdata	00000004 heap_end
00000000 l    df *ABS*	00000000 alt_uncached_malloc.c
00000000 l    df *ABS*	00000000 alt_write.c
00823cfc l     F .text	0000003c alt_get_errno
00000000 l    df *ABS*	00000000 alt_sys_init.c
00823e3c l     F .text	00000034 alt_dev_reg
008287fc l     O .rwdata	000000a4 dma_0_priv
008288a0 l     O .rwdata	0000001c dma_0_tx
008288bc l     O .rwdata	0000001c dma_0_rx
008288d8 l     O .rwdata	00001060 jtag_uart
00000000 l    df *ABS*	00000000 altera_avalon_dma.c
00823f54 l     F .text	00000034 alt_dma_txchan_reg
00823f88 l     F .text	00000034 alt_dma_rxchan_reg
008240b8 l     F .text	0000009c alt_avalon_dma_launch_txonly
00824154 l     F .text	0000009c alt_avalon_dma_launch_rxonly
008241f0 l     F .text	00000350 alt_avalon_dma_ioctl
008248b4 l     F .text	000001c8 alt_avalon_dma_irq
00000000 l    df *ABS*	00000000 altera_avalon_jtag_uart_fd.c
00000000 l    df *ABS*	00000000 altera_avalon_jtag_uart_init.c
00824d54 l     F .text	0000020c altera_avalon_jtag_uart_irq
00824f60 l     F .text	000000a0 altera_avalon_jtag_uart_timeout
00000000 l    df *ABS*	00000000 altera_avalon_jtag_uart_ioctl.c
00000000 l    df *ABS*	00000000 altera_avalon_jtag_uart_read.c
00000000 l    df *ABS*	00000000 altera_avalon_jtag_uart_write.c
00000000 l    df *ABS*	00000000 altera_avalon_timer_sc.c
008255a4 l     F .text	0000007c alt_avalon_timer_sc_irq
00000000 l    df *ABS*	00000000 altera_avalon_timer_ts.c
00000000 l    df *ABS*	00000000 altera_avalon_timer_vars.c
00000000 l    df *ABS*	00000000 alt_alarm_start.c
00000000 l    df *ABS*	00000000 alt_dcache_flush.c
00000000 l    df *ABS*	00000000 alt_dcache_flush_all.c
00000000 l    df *ABS*	00000000 alt_dev_llist_insert.c
00825b00 l     F .text	0000003c alt_get_errno
00000000 l    df *ABS*	00000000 alt_dma_rxchan_open.c
00825be4 l     F .text	0000003c alt_get_errno
00000000 l    df *ABS*	00000000 alt_dma_txchan_open.c
00825c74 l     F .text	0000003c alt_get_errno
00000000 l    df *ABS*	00000000 alt_do_ctors.c
00000000 l    df *ABS*	00000000 alt_do_dtors.c
00000000 l    df *ABS*	00000000 alt_find_dev.c
00000000 l    df *ABS*	00000000 alt_icache_flush_all.c
00000000 l    df *ABS*	00000000 alt_io_redirect.c
00825f28 l     F .text	000000d4 alt_open_fd
00000000 l    df *ABS*	00000000 alt_open.c
00826078 l     F .text	0000003c alt_get_errno
008260b4 l     F .text	000000dc alt_file_locked
00000000 l    df *ABS*	00000000 alt_tick.c
00000000 l    df *ABS*	00000000 altera_nios2_gen2_irq.c
00000000 l    df *ABS*	00000000 alt_find_file.c
00000000 l    df *ABS*	00000000 alt_get_fd.c
00000000 l    df *ABS*	00000000 alt_icache_flush.c
00000000 l    df *ABS*	00000000 atexit.c
00000000 l    df *ABS*	00000000 exit.c
00000000 l    df *ABS*	00000000 malign.c
00000000 l    df *ABS*	00000000 mallocr.c
00000000 l    df *ABS*	00000000 __atexit.c
00000000 l    df *ABS*	00000000 __call_atexit.c
0082b770 g     O .bss	00000004 alt_instruction_exception_handler
00806b5c  w    F .text	00000058 _ZNSt6vectorIS_ISt4pairIifESaIS1_EESaIS3_EE11_S_max_sizeERKS4_
00812170  w    F .text	00000010 _ZNKSt7__cxx1112basic_stringIcSt11char_traitsIcESaIcEE4cendEv
0080a1c8 g     F .text	00000028 __cxa_free_exception
00810634  w    F .text	0000003c _ZNSsC1IN9__gnu_cxx17__normal_iteratorIPcSsEEEET_S4_RKSaIcE
00810788  w    F .text	00000074 _ZNSsC2ERKSsjj
00818360 g     F .text	00000018 putchar
0080a670 g     F .text	00000008 _ZNKSt9type_info15__is_function_pEv
0081ee80 g     F .text	00000070 _mprec_log10
008091dc g     F .text	00000014 _ZSt10unexpectedv
00807cdc  w    F .text	00000038 _ZNSt6vectorISt4pairIifESaIS1_EEC2Ev
008118f0  w    F .text	00000008 _ZNSt7__cxx1112basic_stringIcSt11char_traitsIcESaIcEE13_M_local_dataEv
0080950c g     F .text	00000034 _ZSt18__throw_bad_typeidv
0081ef6c g     F .text	00000060 __any_on
008214f8 g     F .text	00000058 _isatty_r
00827afc g     O .rodata	00000028 __mprec_tinytens
00807ab4  w    F .text	00000024 _ZSt12__niter_baseIPKSt4pairIifEET_S4_
00813888  w    F .text	0000004c _ZNSt7__cxx1112basic_stringIcSt11char_traitsIcESaIcEE6appendERKS4_jj
0080bd50 g     F .text	00000010 _ZNSt12__cow_stringC1Ev
0080b2c4 g     F .text	000000b8 _ZNSt14overflow_errorC1ERKSs
00823954 g     F .text	0000007c alt_main
008118f8  w    F .text	00000008 _ZNKSt7__cxx1112basic_stringIcSt11char_traitsIcESaIcEE13_M_local_dataEv
00818378 g     F .text	000000cc _puts_r
00813070  w    F .text	0000004c _ZNSt7__cxx1112basic_stringIcSt11char_traitsIcESaIcEE6insertEjPKcj
0082b7c4 g     O .bss	00000100 alt_irq
0080d1d8 g     F .text	00000008 _ZGTtNKSt13runtime_error4whatEv
0080a34c g     F .text	00000004 _ZN10__cxxabiv115__forced_unwindD1Ev
00812ef0  w    F .text	00000028 _ZNSt7__cxx1112basic_stringIcSt11char_traitsIcESaIcEE6assignEPKcj
00829970  w    O .rwdata	00000004 _ZNSs4nposE
0080d770 g     F .text	00000120 _ZGTtNSt15underflow_errorC2EPKc
00821644 g     F .text	00000064 _lseek_r
0080651c  w    F .text	00000024 _ZN9__gnu_cxx13new_allocatorISt6vectorISt4pairIifESaIS3_EEED1Ev
0080f424  w    F .text	000000e8 _ZNSs6assignEPKcj
0080e164  w    F .text	0000008c _ZNKSs13find_first_ofEPKcjj
00814200  w    F .text	00000040 _ZNKSt7__cxx1112basic_stringIcSt11char_traitsIcESaIcEE17find_first_not_ofEcj
00817394 g     F .text	00000020 .hidden _Unwind_GetIPInfo
008078c8  w    F .text	0000006c _ZNSt27__uninitialized_default_n_1ILb0EE18__uninit_default_nIPSt6vectorISt4pairIifESaIS4_EEjEET_S8_T0_
00810d74  w    F .text	00000010 _ZNSs7replaceEN9__gnu_cxx17__normal_iteratorIPcSsEES2_PKcj
008130bc  w    F .text	00000050 _ZNSt7__cxx1112basic_stringIcSt11char_traitsIcESaIcEE6insertEjRKS4_
008299f8 g       *ABS*	00000000 __flash_rwdata_start
00814ee8  w    F .text	00000074 _ZNKSt7__cxx1112basic_stringIcSt11char_traitsIcESaIcEE6substrEjj
008135e0  w    F .text	00000054 _ZNSt7__cxx1112basic_stringIcSt11char_traitsIcESaIcEE6insertEN9__gnu_cxx17__normal_iteratorIPcS4_EESt16initializer_listIcE
00822474 g     F .text	00000080 .hidden __eqdf2
0080c408 g     F .text	00000120 _ZGTtNSt12domain_errorC1EPKc
0080b8ec g     F .text	000000bc _ZNSt12length_errorC2EPKc
00811908  w    F .text	00000014 _ZNSt7__cxx1112basic_stringIcSt11char_traitsIcESaIcEE13_M_set_lengthEj
0080937c g     F .text	00000084 __cxa_rethrow
00807fa4  w    F .text	0000009c _ZNSt12_Vector_baseISt4pairIifESaIS1_EED1Ev
0081732c g     F .text	00000010 .hidden _Unwind_SjLj_Unregister
0080dc78  w    F .text	00000018 _ZNKSs6rbeginEv
00809220 g     F .text	00000024 _ZSt14set_unexpectedPFvvE
00800710 g     F .text	00000064 _Z12run_dijkstraiii
0080e7f0  w    F .text	000000b0 _ZNKSs7compareEjjPKc
00810590  w    F .text	000000a4 _ZNSs12_S_constructIN9__gnu_cxx17__normal_iteratorIPcSsEEEES2_T_S4_RKSaIcESt20forward_iterator_tag
0080db7c  w    F .text	00000024 _ZNSs13_S_copy_charsEPcN9__gnu_cxx17__normal_iteratorIS_SsEES2_
00817384 g     F .text	00000010 .hidden _Unwind_GetIP
00807edc  w    F .text	00000024 _ZSt11__addressofISt4pairIifEEPT_RS2_
0082b8c4 g       *ABS*	00000000 __alt_heap_start
00815220 g     F .text	00000070 .hidden __floatdidf
00812744  w    F .text	00000044 _ZNSt7__cxx1112basic_stringIcSt11char_traitsIcESaIcEE5eraseEN9__gnu_cxx17__normal_iteratorIPKcS4_EE
0080c10c g     F .text	00000004 _Z23_txnal_cow_string_c_strPKv
00806bb4  w    F .text	0000003c _ZNSaISt6vectorISt4pairIifESaIS1_EEEC1ERKS4_
0080aff4 g     F .text	000000b8 _ZNSt12length_errorC1ERKSs
00818998 g     F .text	00000060 _kill_r
0080daa0  w    F .text	00000030 _ZNKSs15_M_check_lengthEjjPKc
0080ee24  w    F .text	00000038 _ZNSs5beginEv
00800690 g     F .text	0000004c _Z19read_dijkstra_cacheii
00809ef0 g     F .text	00000010 _ZNSt9bad_allocD2Ev
00818320 g     F .text	00000038 printf
0080dcd0  w    F .text	00000010 _ZNKSs5crendEv
00814bac  w    F .text	000000ec _ZStplIcSt11char_traitsIcESaIcEENSt7__cxx1112basic_stringIT_T0_T1_EERKS8_SA_
0080f798  w    F .text	0000000c _ZNSs6insertEN9__gnu_cxx17__normal_iteratorIPcSsEESt16initializer_listIcE
00821760 g     F .text	0000006c _wcrtomb_r
0080cc1c g     F .text	00000044 _ZGTtNSt12length_errorD0Ev
0080f604  w    F .text	00000194 _ZNSs6insertEjPKcj
00818508 g     F .text	00000098 _signal_r
0080d434 g     F .text	00000030 _ZGTtNSt11range_errorD2Ev
00827290  w    O .rodata	00000013 _ZTSSt14overflow_error
0080dd5c  w    F .text	00000014 _ZNKSs4backEv
00800480 g     F .text	000000ac _ZN3DMA5checkEv
0081f7b8 g     F .text	0000005c __sseek
0081d10c g     F .text	00000010 __sinit
00824a7c g     F .text	000000b4 alt_avalon_dma_init
00820d48 g     F .text	00000148 __swbuf_r
00812478  w    F .text	00000014 _ZNKSt7__cxx1112basic_stringIcSt11char_traitsIcESaIcEE4backEv
0080a234 g     F .text	0000002c __cxa_free_dependent_exception
0080a3a4 g     F .text	00000010 _ZN10__cxxabiv120__si_class_type_infoD2Ev
00821550 g     F .text	00000074 _setlocale_r
00827124  w    O .rodata	00000025 _ZTSN10__cxxabiv120__si_class_type_infoE
008146fc  w    F .text	00000008 _ZNSt7__cxx1112basic_stringIcSt11char_traitsIcESaIcEE12_Alloc_hiderC2EPcRKS3_
0081cf2c g     F .text	00000078 __sfmoreglue
0080cab8 g     F .text	00000134 _ZGTtNSt12length_errorC2ERKNSt7__cxx1112basic_stringIcSt11char_traitsIcESaIcEEE
008239f4 g     F .text	00000024 __malloc_unlock
0080b470 g     F .text	00000070 _ZNSt11logic_errorC1ERKS_
0080d770 g     F .text	00000120 _ZGTtNSt15underflow_errorC1EPKc
00806e3c  w    F .text	00000084 _ZNSt6vectorISt4pairIifESaIS1_EE17_S_check_init_lenEjRKS2_
0080a34c g     F .text	00000004 _ZN10__cxxabiv115__forced_unwindD2Ev
0080e8a0  w    F .text	00000094 _ZNKSs7compareEjjPKcj
00810db4  w    F .text	00000068 _ZNSs7replaceEN9__gnu_cxx17__normal_iteratorIPcSsEES2_PKc
0080bb10 g     F .text	000000bc _ZNSt11range_errorC2EPKc
00808364 g     F .text	00000020 _ZSt18uncaught_exceptionv
00813174  w    F .text	00000078 _ZNSt7__cxx1112basic_stringIcSt11char_traitsIcESaIcEE6insertEjPKc
008272c4  w    O .rodata	0000000c _ZTISt15underflow_error
00806140  w    F .text	00000124 _ZNSt6vectorIS_ISt4pairIifESaIS1_EESaIS3_EEC1EjRKS4_
008060d8  w    F .text	00000034 _ZNSaISt6vectorISt4pairIifESaIS1_EEEC1Ev
0081192c  w    F .text	00000054 _ZNSt7__cxx1112basic_stringIcSt11char_traitsIcESaIcEE9_M_createERjj
00813fc4  w    F .text	00000050 _ZNKSt7__cxx1112basic_stringIcSt11char_traitsIcESaIcEE13find_first_ofEPKcj
0080b9a8 g     F .text	000000bc _ZNSt12out_of_rangeC2EPKc
0080eb20  w    F .text	00000044 _ZNSsC1EjcRKSaIcE
0080f8c4  w    F .text	00000044 _ZNSsD2Ev
0080a398 g     F .text	0000000c __cxa_deleted_virtual
0082b76c g     O .bss	00000004 altera_avalon_timer_ts_freq
008121e0  w    F .text	00000100 _ZNSt7__cxx1112basic_stringIcSt11char_traitsIcESaIcEE7reserveEj
0081149c g     F .text	00000004 _ZNSt13random_device9_M_getvalEv
00814024  w    F .text	0000008c _ZNKSt7__cxx1112basic_stringIcSt11char_traitsIcESaIcEE12find_last_ofEPKcjj
008100dc  w    F .text	000000a8 _ZNSspLEc
008138d4  w    F .text	0000002c _ZNSt7__cxx1112basic_stringIcSt11char_traitsIcESaIcEE6appendEPKcj
00807374  w    F .text	0000003c _ZNSt12_Vector_baseISt6vectorISt4pairIifESaIS2_EESaIS4_EE17_Vector_impl_dataC1Ev
00811570 g     F .text	000000b8 _ZNSt12__sso_stringC2EPKcj
0080c38c g     F .text	00000030 _ZGTtNSt11logic_errorD1Ev
008145b4  w    F .text	000000b4 _ZNKSt7__cxx1112basic_stringIcSt11char_traitsIcESaIcEE7compareEjjPKc
008180d4 g     F .text	0000012c memmove
008064d0  w    F .text	00000028 _ZNK9__gnu_cxx17__normal_iteratorIPSt4pairIifESt6vectorIS2_SaIS2_EEEdeEv
00811780 g     F .text	00000018 _ZNSt12__sso_stringD2Ev
008114a4 g     F .text	00000014 _ZNSt12__sso_stringC1Ev
0080a31c g     F .text	00000004 _ZNSt9exceptionD2Ev
0081d0f8 g     F .text	00000014 _cleanup
00812844  w    F .text	0000013c _ZNSt7__cxx1112basic_stringIcSt11char_traitsIcESaIcEE14_M_replace_auxEjjjc
00810d10  w    F .text	00000064 _ZNSs7replaceEjjPKc
00807a44  w    F .text	00000028 _ZNSt12_Destroy_auxILb1EE9__destroyIPSt4pairIifEEEvT_S5_
0081dddc g     F .text	000000a4 _Balloc
0080e0b8  w    F .text	0000000c _ZNKSs5rfindERKSsj
00811294  w    F .text	00000008 _ZNSt23mersenne_twister_engineIjLj32ELj624ELj397ELj31ELj2567483615ELj11ELj4294967295ELj7ELj2636928640ELj15ELj4022730752ELj18ELj1812433253EEC2Ev
0080610c  w    F .text	00000034 _ZNSaISt6vectorISt4pairIifESaIS1_EEED1Ev
00812fe8  w    F .text	0000003c _ZNSt7__cxx1112basic_stringIcSt11char_traitsIcESaIcEEaSESt16initializer_listIcE
0080dba0  w    F .text	00000024 _ZNSs13_S_copy_charsEPcN9__gnu_cxx17__normal_iteratorIPKcSsEES4_
00812148  w    F .text	00000010 _ZNSt7__cxx1112basic_stringIcSt11char_traitsIcESaIcEE4rendEv
0080f804  w    F .text	00000050 _ZNSs6insertEjPKc
008005d4 g     F .text	000000bc _Z24DMA_write_dijkstra_cachefii
00827234  w    O .rodata	00000011 _ZTSSt12out_of_range
00826fdc  w    O .rodata	0000000c _ZTISt8bad_cast
008112ac  w    F .text	000000e8 _ZNSt23mersenne_twister_engineIjLj32ELj624ELj397ELj31ELj2567483615ELj11ELj4294967295ELj7ELj2636928640ELj15ELj4022730752ELj18ELj1812433253EE11_M_gen_randEv
0080f5c4  w    F .text	00000040 _ZNSsaSEPKc
00814e60  w    F .text	00000014 _ZNSt7__cxx1112basic_stringIcSt11char_traitsIcESaIcEEC1EPKcjRKS3_
0080c150 g     F .text	00000114 _ZGTtNSt11logic_errorC2EPKc
0080bd60 g     F .text	00000004 _ZNSt12__cow_stringC2ERKSs
008224f4 g     F .text	000000e8 .hidden __gtdf2
008270e8  w    O .rodata	00000014 _ZTVSt13bad_exception
0082649c g     F .text	00000024 altera_nios2_gen2_irq_init
00810ff8 g     F .text	0000000c _ZNKSt13random_device13_M_getentropyEv
00812020  w    F .text	000000c8 _ZNSt7__cxx1112basic_stringIcSt11char_traitsIcESaIcEEaSEOS4_
0080a9ec g     F .text	00000068 _ZNSt14overflow_errorD0Ev
00807e3c  w    F .text	00000060 _ZN9__gnu_cxx13new_allocatorISt4pairIifEE8allocateEjPKv
00807a6c  w    F .text	00000048 _ZN9__gnu_cxx13new_allocatorISt4pairIifEE10deallocateEPS2_j
008120f0  w    F .text	00000008 _ZNKSt7__cxx1112basic_stringIcSt11char_traitsIcESaIcEE5beginEv
00800000 g     F .entry	0000001c __reset
0081db74 g     F .text	00000008 __localeconv_l
0080c998 g     F .text	00000120 _ZGTtNSt12length_errorC2EPKc
0080c7f0 g     F .text	00000134 _ZGTtNSt16invalid_argumentC2ERKNSt7__cxx1112basic_stringIcSt11char_traitsIcESaIcEEE
00829968  w    O .rwdata	00000001 _ZNSs4_Rep11_S_terminalE
0080a854 g     F .text	00000060 _ZNSt14overflow_errorD2Ev
00807538  w    F .text	00000058 _ZNSt6vectorISt4pairIifESaIS1_EE11_S_max_sizeERKS2_
008173d0 g     F .text	00000008 .hidden _Unwind_GetRegionStart
0080dd70  w    F .text	00000088 _ZNKSs4copyEPcjj
0080bc88 g     F .text	000000bc _ZNSt15underflow_errorC1EPKc
00800020 g       *ABS*	00000000 __flash_exceptions_start
008133a8  w    F .text	00000064 _ZNSt7__cxx1112basic_stringIcSt11char_traitsIcESaIcEE7replaceEN9__gnu_cxx17__normal_iteratorIPKcS4_EES9_St16initializer_listIcE
0080aab4 g     F .text	00000060 _ZNSt12out_of_rangeD2Ev
00811a90  w    F .text	0000002c _ZNKSt7__cxx1112basic_stringIcSt11char_traitsIcESaIcEE15_M_check_lengthEjjPKc
00821498 g     F .text	00000060 _fstat_r
0080f8a0  w    F .text	00000024 _ZNSs4_Rep10_M_disposeERKSaIcE
0082b750 g     O .bss	00000004 errno
0080f310  w    F .text	00000018 _ZNSs7replaceEN9__gnu_cxx17__normal_iteratorIPcSsEES2_jc
0081f730 g     F .text	00000008 __seofread
0080b698 g     F .text	00000030 _ZNSt13runtime_erroraSEOS_
008076f0  w    F .text	00000088 _ZSt13__copy_move_aILb0EPKSt4pairIifEPS1_ET1_T0_S6_S5_
0080e77c  w    F .text	00000074 _ZNKSs7compareEPKc
00810214  w    F .text	0000005c _ZNSsC1ERKSs
0080c954 g     F .text	00000044 _ZGTtNSt16invalid_argumentD0Ev
00807ad8  w    F .text	00000024 _ZSt12__niter_baseIPSt4pairIifEET_S3_
00806ec0  w    F .text	00000024 _ZNSt12_Vector_baseISt4pairIifESaIS1_EE19_M_get_Tp_allocatorEv
00817598 g     F .text	00000088 .hidden _Unwind_Backtrace
00812528  w    F .text	00000094 _ZNSt7__cxx1112basic_stringIcSt11char_traitsIcESaIcEE9push_backEc
0082b760 g     O .bss	00000004 alt_argv
0080f3a8  w    F .text	0000007c _ZNSs15_M_replace_safeEjjPKcj
00814d60  w    F .text	00000048 _ZNSt7__cxx1112basic_stringIcSt11char_traitsIcESaIcEEC2ERKS4_jRKS3_
00831938 g       *ABS*	00000000 _gp
00808110  w    F .text	00000034 _ZNSaISt4pairIifEEC1Ev
00814da8  w    F .text	0000005c _ZNSt7__cxx1112basic_stringIcSt11char_traitsIcESaIcEEC1ERKS4_jj
00807688  w    F .text	00000044 _ZNSt16allocator_traitsISaISt4pairIifEEE10deallocateERS2_PS1_j
00809fa8 g     F .text	00000038 _ZNSt10bad_typeidD0Ev
00807ca4  w    F .text	00000038 _ZNSt12_Vector_baseISt4pairIifESaIS1_EEC2Ev
0080a854 g     F .text	00000060 _ZNSt14overflow_errorD1Ev
00807838  w    F .text	0000003c _ZNSt16allocator_traitsISaISt6vectorISt4pairIifESaIS2_EEEE8allocateERS5_j
00814014  w    F .text	00000010 _ZNKSt7__cxx1112basic_stringIcSt11char_traitsIcESaIcEE13find_first_ofEcj
00809f54 g     F .text	00000038 _ZNSt8bad_castD0Ev
00823240 g     F .text	00000020 getpid
0080e948  w    F .text	0000000c _ZNKSs4_Rep12_M_is_leakedEv
0081410c  w    F .text	00000010 _ZNKSt7__cxx1112basic_stringIcSt11char_traitsIcESaIcEE12find_last_ofEcj
008072d8  w    F .text	00000030 _ZNSt16allocator_traitsISaISt6vectorISt4pairIifESaIS2_EEEE8max_sizeERKS5_
00808f74 g     F .text	0000017c __cxa_call_unexpected
008299a4  w    O .rwdata	00000004 _ZNSt23mersenne_twister_engineIjLj32ELj624ELj397ELj31ELj2567483615ELj11ELj4294967295ELj7ELj2636928640ELj15ELj4022730752ELj18ELj1812433253EE10state_sizeE
008081f0 g     F .text	00000008 __cxa_get_exception_ptr
00814704  w    F .text	00000008 _ZNSt7__cxx1112basic_stringIcSt11char_traitsIcESaIcEE12_Alloc_hiderC2EPcOS3_
00823c84 g     F .text	00000078 alt_uncached_malloc
00825cb0 g     F .text	00000054 alt_dma_txchan_open
00810f04  w    F .text	00000040 _ZNSsC2ESt16initializer_listIcERKSaIcE
00829978  w    O .rwdata	00000004 _ZNSt23mersenne_twister_engineIjLj32ELj624ELj397ELj31ELj2567483615ELj11ELj4294967295ELj7ELj2636928640ELj15ELj4022730752ELj18ELj1812433253EE25initialization_multiplierE
00811628 g     F .text	000000f0 _ZNSt12__sso_stringC2ERKS_
0082867c g     O .rwdata	00000180 alt_fd_list
0080aa54 g     F .text	00000060 _ZNSt12length_errorD2Ev
00814e74  w    F .text	00000050 _ZNSt7__cxx1112basic_stringIcSt11char_traitsIcESaIcEEC2EPKcRKS3_
008079bc  w    F .text	00000028 _ZN9__gnu_cxx13new_allocatorISt4pairIifEEC1ERKS3_
00811114 g     F .text	00000004 _ZNSt13random_device7_M_initERKNSt7__cxx1112basic_stringIcSt11char_traitsIcESaIcEEE
0080b830 g     F .text	000000bc _ZNSt16invalid_argumentC1EPKc
008064f8  w    F .text	00000024 _ZN9__gnu_cxx13new_allocatorISt6vectorISt4pairIifESaIS3_EEEC2Ev
00814b7c  w    F .text	00000020 _ZNSt7__cxx1112basic_stringIcSt11char_traitsIcESaIcEEC1ERKS4_
00800344 g     F .text	00000060 _ZN3DMA3isrEPv
00827320  w    O .rodata	00000014 _ZTVSt12out_of_range
00818358 g     F .text	00000008 _putchar_r
008174b8 g     F .text	00000044 .hidden _Unwind_SjLj_ForcedUnwind
00811798 g     F .text	00000078 _ZNSt12__sso_stringC1EOS_
00806404  w    F .text	00000044 _ZNSt6vectorISt4pairIifESaIS1_EE3endEv
00817354 g     F .text	00000018 .hidden _Unwind_GetCFA
008091f0 g     F .text	00000024 _ZSt13set_terminatePFvvE
00825dcc g     F .text	00000090 alt_find_dev
00817fd4 g     F .text	00000100 memcpy
0080dc20  w    F .text	00000010 _ZNSsC2Ev
00812980  w    F .text	00000034 _ZNSt7__cxx1112basic_stringIcSt11char_traitsIcESaIcEE6appendEjc
0080a1f0 g     F .text	00000044 __cxa_allocate_dependent_exception
00806cb8  w    F .text	00000050 _ZNSt12_Vector_baseISt6vectorISt4pairIifESaIS2_EESaIS4_EE13_M_deallocateEPS4_j
00810f44  w    F .text	0000003c _ZNSsC1IPKcEET_S2_RKSaIcE
0081cdb0 g     F .text	0000000c _cleanup_r
00814ff4 g     F .text	00000018 _ZNK10__cxxabiv117__class_type_info20__do_find_public_srcEiPKvPKS0_S2_
00816eb8 g     F .text	000000b8 .hidden __floatsidf
00811e24  w    F .text	00000084 _ZNSt7__cxx1112basic_stringIcSt11char_traitsIcESaIcEE8_M_eraseEjj
00825ffc g     F .text	0000007c alt_io_redirect
008225dc g     F .text	000000e8 .hidden __ltdf2
00827348  w    O .rodata	00000014 _ZTVSt11range_error
0080a734 g     F .text	00000060 _ZNSt13runtime_errorD2Ev
008077c0  w    F .text	00000048 _ZSt18uninitialized_copyIPKSt4pairIifEPS1_ET0_T_S6_S5_
0080997c g     F .text	000000a8 _ZSt21__throw_runtime_errorPKc
00826cec g       *ABS*	00000000 __DTOR_END__
0081500c g     F .text	00000010 _ZN10__cxxabiv117__class_type_infoD1Ev
0080e0c4  w    F .text	00000050 _ZNKSs5rfindEPKcj
008272f8  w    O .rodata	00000014 _ZTVSt16invalid_argument
0080addc g     F .text	000000a8 _ZNSt11logic_errorC2ERKSs
0080e24c  w    F .text	00000010 _ZNKSs13find_first_ofEcj
00810f90  w    F .text	00000010 _ZN9__gnu_cxxeqIPKcSsEEbRKNS_17__normal_iteratorIT_T0_EES8_
00818444 g     F .text	00000010 puts
00825e90 g     F .text	00000098 alt_exception_cause_generated_bad_addr
00811420  w    F .text	0000007c _ZNSt23mersenne_twister_engineIjLj32ELj624ELj397ELj31ELj2567483615ELj11ELj4294967295ELj7ELj2636928640ELj15ELj4022730752ELj18ELj1812433253EEclEv
00810314  w    F .text	000000ec _ZStplIcSt11char_traitsIcESaIcEESbIT_T0_T1_EPKS3_RKS6_
00807ca4  w    F .text	00000038 _ZNSt12_Vector_baseISt4pairIifESaIS1_EEC1Ev
0080d164 g     F .text	00000030 _ZGTtNSt13runtime_errorD1Ev
0082999c  w    O .rwdata	00000004 _ZNSt23mersenne_twister_engineIjLj32ELj624ELj397ELj31ELj2567483615ELj11ELj4294967295ELj7ELj2636928640ELj15ELj4022730752ELj18ELj1812433253EE9mask_bitsE
0080b20c g     F .text	000000b8 _ZNSt11range_errorC2ERKSs
0080de8c  w    F .text	000000d8 _ZNKSs4findEPKcjj
0080c7f0 g     F .text	00000134 _ZGTtNSt16invalid_argumentC1ERKNSt7__cxx1112basic_stringIcSt11char_traitsIcESaIcEEE
00806840  w    F .text	00000040 _ZSt8_DestroyIPSt6vectorISt4pairIifESaIS2_EES4_EvT_S6_RSaIT0_E
00811980  w    F .text	00000018 _ZNSt7__cxx1112basic_stringIcSt11char_traitsIcESaIcEE10_M_disposeEv
00811810 g     F .text	000000c8 _ZNSt12__sso_stringaSEOS_
008003a4 g     F .text	000000dc _ZN3DMA4copyEPvS0_i
0081eddc g     F .text	000000a4 __ratio
00810310  w    F .text	00000004 _ZNSsaSERKSs
0080c3bc g     F .text	00000044 _ZGTtNSt11logic_errorD0Ev
00827248  w    O .rodata	0000000c _ZTISt12out_of_range
00820c6c g     F .text	0000001c __vfiprintf_internal
00813e7c  w    F .text	0000000c _ZNKSt7__cxx1112basic_stringIcSt11char_traitsIcESaIcEE5rfindERKS4_j
00813f28  w    F .text	00000090 _ZNKSt7__cxx1112basic_stringIcSt11char_traitsIcESaIcEE13find_first_ofEPKcjj
00811998  w    F .text	00000008 _ZNSt7__cxx1112basic_stringIcSt11char_traitsIcESaIcEE10_M_destroyEj
008109ac  w    F .text	00000040 _ZNSsC2EPKcjRKSaIcE
0080d164 g     F .text	00000030 _ZGTtNSt13runtime_errorD2Ev
0082515c g     F .text	00000220 altera_avalon_jtag_uart_read
0081768c g     F .text	00000010 malloc
008182f0 g     F .text	00000030 _printf_r
00807b3c  w    F .text	00000028 _ZSt12__niter_wrapIPSt4pairIifEET_RKS3_S3_
00815384 g     F .text	00000064 .hidden __udivsi3
0080f534  w    F .text	0000004c _ZNSs6assignERKSsjj
00823534 g     F .text	000000b0 isatty
00806140  w    F .text	00000124 _ZNSt6vectorIS_ISt4pairIifESaIS1_EESaIS3_EEC2EjRKS4_
008136a4  w    F .text	0000009c _ZNSt7__cxx1112basic_stringIcSt11char_traitsIcESaIcEE7replaceEjjRKS4_jj
008185a0 g     F .text	000000c4 _raise_r
008065f8  w    F .text	00000108 _ZNSt12_Vector_baseISt6vectorISt4pairIifESaIS2_EESaIS4_EEC2EjRKS5_
0080dad0  w    F .text	00000018 _ZNKSs8_M_limitEjj
00820f64 g     F .text	00000064 __assert_func
0080052c g     F .text	00000054 _ZN3DMA5resetEv
00827b4c g     O .rodata	000000c8 __mprec_tens
00809acc g     F .text	000000a8 _ZSt22__throw_overflow_errorPKc
0080b0ac g     F .text	000000b8 _ZNSt12out_of_rangeC2ERKSs
008121c4  w    F .text	0000001c _ZNKSt7__cxx1112basic_stringIcSt11char_traitsIcESaIcEE8capacityEv
0080db48  w    F .text	00000034 _ZNSs9_M_assignEPcjc
00807124  w    F .text	000000bc _ZNSt6vectorISt4pairIifESaIS1_EE15_M_erase_at_endEPS1_
00812b04  w    F .text	00000018 _ZNSt7__cxx1112basic_stringIcSt11char_traitsIcESaIcEE7replaceEN9__gnu_cxx17__normal_iteratorIPKcS4_EES9_jc
00826680 g     F .text	00000090 alt_icache_flush
0080dce0  w    F .text	0000000c _ZNKSs4sizeEv
00813c38  w    F .text	00000008 _ZNKSt7__cxx1112basic_stringIcSt11char_traitsIcESaIcEE4dataEv
0082b74c g     O .bss	00000004 __malloc_top_pad
00807874  w    F .text	00000054 _ZN9__gnu_cxx13new_allocatorISt6vectorISt4pairIifESaIS3_EEE10deallocateEPS5_j
008075cc  w    F .text	00000034 _ZNSaISt4pairIifEED1Ev
008189f8 g     F .text	00000004 _getpid_r
00807500  w    F .text	00000038 _ZSt10__distanceIPKSt4pairIifEENSt15iterator_traitsIT_E15difference_typeES5_S5_St26random_access_iterator_tag
0080b6c8 g     F .text	000000ac _ZNSt11logic_errorC2EPKc
0080c264 g     F .text	00000128 _ZGTtNSt11logic_errorC2ERKNSt7__cxx1112basic_stringIcSt11char_traitsIcESaIcEEE
00818dd4 g     F .text	0000001c strtoul
0080fe74  w    F .text	00000040 _ZNSs6appendEPKc
00807600  w    F .text	0000004c _ZNSt12_Vector_baseISt4pairIifESaIS1_EE11_M_allocateEj
00813c30  w    F .text	00000008 _ZNKSt7__cxx1112basic_stringIcSt11char_traitsIcESaIcEE5c_strEv
0080d300 g     F .text	00000134 _ZGTtNSt11range_errorC1ERKNSt7__cxx1112basic_stringIcSt11char_traitsIcESaIcEEE
0081db7c g     F .text	0000000c _localeconv_r
0080a140 g     F .text	00000030 _ZN9__gnu_cxx9__freeresEv
00808384 g     F .text	0000001c _ZSt19uncaught_exceptionsv
0081e24c g     F .text	000000b0 __i2b
0081d56c g     F .text	000004c8 __sfvwrite_r
008143d0  w    F .text	00000098 _ZNKSt7__cxx1112basic_stringIcSt11char_traitsIcESaIcEE7compareEjjRKS4_
008150c0 g     F .text	0000009c _ZNK10__cxxabiv117__class_type_info10__do_catchEPKSt9type_infoPPvj
00818664 g     F .text	000000bc __sigtramp_r
0080da58  w    F .text	00000008 _ZNKSs9_M_ibeginEv
0080b164 g     F .text	000000a8 _ZNSt13runtime_errorC2ERKSs
0080e25c  w    F .text	0000008c _ZNKSs12find_last_ofEPKcjj
0080709c  w    F .text	00000050 _ZNSt12_Vector_baseISt4pairIifESaIS1_EE13_M_deallocateEPS1_j
00813900  w    F .text	00000060 _ZNSt7__cxx1112basic_stringIcSt11char_traitsIcESaIcEE6appendEPKc
00806bf0  w    F .text	00000048 _ZNSt12_Vector_baseISt6vectorISt4pairIifESaIS2_EESaIS4_EE12_Vector_implC2ERKS5_
0080d464 g     F .text	00000044 _ZGTtNSt11range_errorD0Ev
00818454 g     F .text	00000058 _sbrk_r
00810848  w    F .text	00000074 _ZNSsC2ERKSsjjRKSaIcE
00810724  w    F .text	00000064 _ZNSsC1ERKSsjRKSaIcE
0080a324 g     F .text	0000000c _ZGTtNKSt9exception4whatEv
00810030  w    F .text	00000008 _ZNSs6resizeEj
00829984  w    O .rwdata	00000004 _ZNSt23mersenne_twister_engineIjLj32ELj624ELj397ELj31ELj2567483615ELj11ELj4294967295ELj7ELj2636928640ELj15ELj4022730752ELj18ELj1812433253EE11tempering_tE
0080705c  w    F .text	00000040 _ZSt8_DestroyIPSt4pairIifES1_EvT_S3_RSaIT0_E
00827194  w    O .rodata	00000020 _ZTVSt9type_info
0080723c  w    F .text	00000058 _ZSt7advanceIPKSt4pairIifEjEvRT_T0_
008271f0  w    O .rodata	00000015 _ZTSSt16invalid_argument
008094a4 g     F .text	00000034 _ZSt17__throw_bad_allocv
00810fa0 g     F .text	0000000c _ZNSt13random_device7_M_initERKSs
0080c408 g     F .text	00000120 _ZGTtNSt12domain_errorC2EPKc
008216f8 g     F .text	00000064 _read_r
0080a324 g     F .text	0000000c _ZNKSt9exception4whatEv
0080f7a4  w    F .text	00000060 _ZNSs6insertEjRKSsjj
00825a3c g     F .text	00000078 alt_dcache_flush
008129e8  w    F .text	0000005c _ZNSt7__cxx1112basic_stringIcSt11char_traitsIcESaIcEE6insertEjjc
0080c150 g     F .text	00000114 _ZGTtNSt11logic_errorC1EPKc
008299d0 g     O .rwdata	00000004 alt_max_fd
00821160 g     F .text	00000070 _fclose_r
00826fa0  w    O .rodata	0000000c _ZTISt9bad_alloc
0080da4c  w    F .text	0000000c _ZNKSs6_M_repEv
0081cd24 g     F .text	00000084 fflush
0082b748 g     O .bss	00000004 __malloc_max_sbrked_mem
008006dc g     F .text	00000034 _Z16read_path_vectori
0080f058  w    F .text	00000050 _ZNSs5eraseEN9__gnu_cxx17__normal_iteratorIPcSsEE
00813024  w    F .text	0000004c _ZNSt7__cxx1112basic_stringIcSt11char_traitsIcESaIcEEaSEPKc
0080c924 g     F .text	00000030 _ZGTtNSt16invalid_argumentD1Ev
00810270  w    F .text	000000a0 _ZNSs6assignERKSs
00817000 g     F .text	000000fc .hidden __extendsfdf2
0080b8ec g     F .text	000000bc _ZNSt12length_errorC1EPKc
00812f8c  w    F .text	0000005c _ZNSt7__cxx1112basic_stringIcSt11char_traitsIcESaIcEE7replaceEjjPKcj
0080c38c g     F .text	00000030 _ZGTtNSt11logic_errorD2Ev
00806bb4  w    F .text	0000003c _ZNSaISt6vectorISt4pairIifESaIS1_EEEC2ERKS4_
0080de4c  w    F .text	00000028 _ZNSs6assignEOSs
0081546c g     F .text	000008f0 .hidden __adddf3
00823fbc g     F .text	000000fc alt_avalon_dma_launch_bidir
00827158  w    O .rodata	0000002c _ZTVN10__cxxabiv120__si_class_type_infoE
008079e4  w    F .text	00000024 _ZN9__gnu_cxx13new_allocatorISt4pairIifEED1Ev
0080f8c4  w    F .text	00000044 _ZNSsD1Ev
0081eb70 g     F .text	00000108 __b2d
00811af0  w    F .text	00000020 _ZNSt7__cxx1112basic_stringIcSt11char_traitsIcESaIcEE7_S_copyEPcPKcj
0080c114 g     F .text	0000002c _Z20_txnal_cow_string_D1Pv
0080bd50 g     F .text	00000010 _ZNSt12__cow_stringC2Ev
00809f44 g     F .text	00000010 _ZNSt8bad_castD1Ev
00825c20 g     F .text	00000054 alt_dma_rxchan_open
00821eb0 g     F .text	000005c4 .hidden __umoddi3
0080f328  w    F .text	00000038 _ZNSs6insertEN9__gnu_cxx17__normal_iteratorIPcSsEEjc
00823874 g     F .text	000000e0 lseek
00813344  w    F .text	00000064 _ZNSt7__cxx1112basic_stringIcSt11char_traitsIcESaIcEE7replaceEN9__gnu_cxx17__normal_iteratorIPKcS4_EES9_S8_S8_
0080eeac  w    F .text	00000048 _ZNSs3endEv
008114a4 g     F .text	00000014 _ZNSt12__sso_stringC2Ev
008272d0  w    O .rodata	00000014 _ZTVSt11logic_error
00815054 g     F .text	0000006c _ZNK10__cxxabiv117__class_type_info11__do_upcastEPKS0_PKvRNS0_15__upcast_resultE
0080630c  w    F .text	00000044 _ZNSt6vectorIS_ISt4pairIifESaIS1_EESaIS3_EEixEj
00809fe0 g     F .text	00000004 _ZdlPv
0080ac3c g     F .text	00000068 _ZNSt12length_errorD0Ev
008299b8 g     O .rwdata	00000004 _global_impure_ptr
0081f178 g     F .text	00000564 _realloc_r
00809d78 g     F .text	0000016c _ZN9__gnu_cxx15__snprintf_liteEPcjPKcPv
0082b8c4 g       *ABS*	00000000 __bss_end
0080a380 g     F .text	0000000c _ZSt15get_new_handlerv
00823410 g     F .text	000000e8 alt_iic_isr_register
0080681c  w    F .text	00000024 _ZNSt12_Vector_baseISt6vectorISt4pairIifESaIS2_EESaIS4_EE19_M_get_Tp_allocatorEv
00826394 g     F .text	00000108 alt_tick
00817314 g     F .text	00000018 .hidden _Unwind_SjLj_Register
00813c48  w    F .text	000000d8 _ZNKSt7__cxx1112basic_stringIcSt11char_traitsIcESaIcEE4findEPKcjj
00814f6c  w    F .text	00000010 _ZN9__gnu_cxxeqIPKcNSt7__cxx1112basic_stringIcSt11char_traitsIcESaIcEEEEEbRKNS_17__normal_iteratorIT_T0_EESE_
0080d890 g     F .text	00000134 _ZGTtNSt15underflow_errorC2ERKNSt7__cxx1112basic_stringIcSt11char_traitsIcESaIcEEE
00821890 g     F .text	00000620 .hidden __udivdi3
00812b60  w    F .text	00000058 _ZNSt7__cxx1112basic_stringIcSt11char_traitsIcESaIcEE6insertEN9__gnu_cxx17__normal_iteratorIPKcS4_EEjc
00811900  w    F .text	00000008 _ZNSt7__cxx1112basic_stringIcSt11char_traitsIcESaIcEE11_M_capacityEj
0082735c  w    O .rodata	00000014 _ZTVSt14overflow_error
0080bd44 g     F .text	0000000c _ZNSt12__sso_stringC2ERKSs
008213fc g     F .text	00000024 _fputwc_r
00809738 g     F .text	000000a8 _ZSt20__throw_length_errorPKc
00827b24 g     O .rodata	00000028 __mprec_bigtens
0081e000 g     F .text	00000138 __s2b
0080bbcc g     F .text	000000bc _ZNSt14overflow_errorC2EPKc
00807294  w    F .text	00000044 _ZSt22__uninitialized_copy_aIPKSt4pairIifEPS1_S1_ET0_T_S6_S5_RSaIT1_E
00817674 g     F .text	00000018 abort
00807374  w    F .text	0000003c _ZNSt12_Vector_baseISt6vectorISt4pairIifESaIS2_EESaIS4_EE17_Vector_impl_dataC2Ev
00813c40  w    F .text	00000008 _ZNKSt7__cxx1112basic_stringIcSt11char_traitsIcESaIcEE13get_allocatorEv
00816f70 g     F .text	00000090 .hidden __floatunsidf
0080da70  w    F .text	00000030 _ZNKSs8_M_checkEjPKc
0080dc48  w    F .text	00000018 _ZNSsC1EOSsRKSaIcE
0080f958  w    F .text	00000028 _ZNSs4_Rep10_M_refcopyEv
0081e890 g     F .text	00000058 __mcmp
00808110  w    F .text	00000034 _ZNSaISt4pairIifEEC2Ev
008082b0 g     F .text	000000b4 __cxa_end_catch
0081340c  w    F .text	0000006c _ZNSt7__cxx1112basic_stringIcSt11char_traitsIcESaIcEE7replaceEN9__gnu_cxx17__normal_iteratorIPKcS4_EES9_RKS4_
0081d12c g     F .text	00000014 __fp_lock_all
0080d9f4 g     F .text	00000044 _ZGTtNSt15underflow_errorD0Ev
008233c4 g     F .text	0000004c alt_ic_irq_enabled
0081242c  w    F .text	00000028 _ZNSt7__cxx1112basic_stringIcSt11char_traitsIcESaIcEE2atEj
0080a320 g     F .text	00000004 _ZNSt13bad_exceptionD2Ev
00810f04  w    F .text	00000040 _ZNSsC1ESt16initializer_listIcERKSaIcE
008262f0 g     F .text	000000a4 alt_alarm_stop
00811a64  w    F .text	0000002c _ZNKSt7__cxx1112basic_stringIcSt11char_traitsIcESaIcEE8_M_checkEjPKc
0080e954  w    F .text	0000000c _ZNKSs4_Rep12_M_is_sharedEv
0080da38  w    F .text	00000008 _ZNKSs7_M_dataEv
0082b758 g     O .bss	00000004 alt_irq_active
00814da8  w    F .text	0000005c _ZNSt7__cxx1112basic_stringIcSt11char_traitsIcESaIcEEC2ERKS4_jj
008123f8  w    F .text	0000000c _ZNSt7__cxx1112basic_stringIcSt11char_traitsIcESaIcEEixEj
008091b8 g     F .text	00000014 _ZSt9terminatev
00807f00  w    F .text	00000064 _ZSt10_ConstructISt4pairIifEJRKS1_EEvPT_DpOT0_
00809888 g     F .text	000000f4 _ZSt24__throw_out_of_range_fmtPKcz
008132e0  w    F .text	00000064 _ZNSt7__cxx1112basic_stringIcSt11char_traitsIcESaIcEE7replaceEN9__gnu_cxx17__normal_iteratorIPKcS4_EES9_PcSA_
0080a794 g     F .text	00000060 _ZNSt15underflow_errorD1Ev
00809690 g     F .text	000000a8 _ZSt24__throw_invalid_argumentPKc
00806700  w    F .text	000000b4 _ZNSt12_Vector_baseISt6vectorISt4pairIifESaIS2_EESaIS4_EED2Ev
008000fc g     F .exceptions	000000c8 alt_irq_handler
0080f580  w    F .text	00000040 _ZNSs6assignEPKc
00828654 g     O .rwdata	00000028 alt_dev_null
00810fb8 g     F .text	00000040 _ZNSt13random_device7_M_finiEv
00810184  w    F .text	00000034 _ZNSs4_Rep7_M_grabERKSaIcES2_
00800284 g     F .text	0000005c _ZN3DMAC1Ejj
00812168  w    F .text	00000008 _ZNKSt7__cxx1112basic_stringIcSt11char_traitsIcESaIcEE6cbeginEv
0080dd54  w    F .text	00000008 _ZNKSs5frontEv
0080d194 g     F .text	00000044 _ZGTtNSt13runtime_errorD0Ev
0080abd4 g     F .text	00000068 _ZNSt11logic_errorD0Ev
008109ec  w    F .text	00000298 _ZNSs7replaceEjjPKcj
0080a358 g     F .text	00000004 _ZN10__cxxabiv119__foreign_exceptionD2Ev
0080734c  w    F .text	00000028 _ZN9__gnu_cxx13new_allocatorISt6vectorISt4pairIifESaIS3_EEEC2ERKS6_
008060d8  w    F .text	00000034 _ZNSaISt6vectorISt4pairIifESaIS1_EEEC2Ev
008126ac  w    F .text	00000098 _ZNSt7__cxx1112basic_stringIcSt11char_traitsIcESaIcEE5eraseEjj
008070ec  w    F .text	00000038 _ZNKSt6vectorISt4pairIifESaIS1_EE4sizeEv
00812f40  w    F .text	0000004c _ZNSt7__cxx1112basic_stringIcSt11char_traitsIcESaIcEE6assignEPKc
0080bc88 g     F .text	000000bc _ZNSt15underflow_errorC2EPKc
00811f60  w    F .text	00000080 _ZNSt7__cxx1112basic_stringIcSt11char_traitsIcESaIcEEC2EOS4_RKS3_
0080b434 g     F .text	0000003c _Z27_txnal_cow_string_D1_commitPv
0081387c  w    F .text	0000000c _ZNSt7__cxx1112basic_stringIcSt11char_traitsIcESaIcEEpLERKS4_
0080bd44 g     F .text	0000000c _ZNSt12__sso_stringC1ERKSs
00827604  w    O .rodata	00000022 _ZTSN10__cxxabiv117__class_type_infoE
00825ab4 g     F .text	0000004c alt_dcache_flush_all
0081e138 g     F .text	00000064 __hi0bits
00811f60  w    F .text	00000080 _ZNSt7__cxx1112basic_stringIcSt11char_traitsIcESaIcEEC1EOS4_RKS3_
00811b10  w    F .text	00000020 _ZNSt7__cxx1112basic_stringIcSt11char_traitsIcESaIcEE7_S_moveEPcPKcj
00829940  w    O .rwdata	00000008 _ZTISt9exception
00816e38 g     F .text	00000080 .hidden __fixdfsi
0080dc90  w    F .text	00000010 _ZNKSs4rendEv
00810c84  w    F .text	00000024 _ZNSs7replaceEjjRKSs
0080d6fc g     F .text	00000030 _ZGTtNSt14overflow_errorD1Ev
008119a0  w    F .text	000000a4 _ZNSt7__cxx1112basic_stringIcSt11char_traitsIcESaIcEE12_M_constructEjc
00811ed0  w    F .text	00000018 _ZNSt7__cxx1112basic_stringIcSt11char_traitsIcESaIcEEC2EjcRKS3_
00814540  w    F .text	00000074 _ZNKSt7__cxx1112basic_stringIcSt11char_traitsIcESaIcEE7compareEPKc
0080fa2c  w    F .text	00000090 _ZNSs7reserveEj
0080c400 g     F .text	00000008 _ZGTtNKSt11logic_error4whatEv
008299f8 g       *ABS*	00000000 __ram_rwdata_end
00811a54  w    F .text	00000008 _ZNSt7__cxx1112basic_stringIcSt11char_traitsIcESaIcEE16_M_get_allocatorEv
0080a66c g     F .text	00000004 _ZNSt9type_infoD1Ev
00811628 g     F .text	000000f0 _ZNSt12__sso_stringC1ERKS_
008299c8 g     O .rwdata	00000008 alt_dev_list
0080a358 g     F .text	00000004 _ZN10__cxxabiv119__foreign_exceptionD1Ev
00824708 g     F .text	00000074 alt_avalon_dma_space
008271d0  w    O .rodata	00000011 _ZTSSt12domain_error
00823d38 g     F .text	00000104 write
008299a8  w    O .rwdata	00000004 _ZNSt23mersenne_twister_engineIjLj32ELj624ELj397ELj31ELj2567483615ELj11ELj4294967295ELj7ELj2636928640ELj15ELj4022730752ELj18ELj1812433253EE9word_sizeE
0080b4e0 g     F .text	00000068 _ZNSt11logic_erroraSERKS_
0081efcc g     F .text	000000cc _putc_r
0080cbec g     F .text	00000030 _ZGTtNSt12length_errorD1Ev
008299a0  w    O .rwdata	00000004 _ZNSt23mersenne_twister_engineIjLj32ELj624ELj397ELj31ELj2567483615ELj11ELj4294967295ELj7ELj2636928640ELj15ELj4022730752ELj18ELj1812433253EE10shift_sizeE
0080ee5c  w    F .text	00000050 _ZNSs4rendEv
008258e8 g     F .text	00000020 alt_timestamp_freq
00811ea8  w    F .text	00000014 _ZNSt7__cxx1112basic_stringIcSt11char_traitsIcESaIcEEC1Ev
0080a680 g     F .text	00000008 _ZNSt9type_infoD0Ev
00814ec4  w    F .text	00000014 _ZNSt7__cxx1112basic_stringIcSt11char_traitsIcESaIcEEC2ESt16initializer_listIcERKS3_
0080a734 g     F .text	00000060 _ZNSt13runtime_errorD1Ev
0080c998 g     F .text	00000120 _ZGTtNSt12length_errorC1EPKc
00813d2c  w    F .text	00000050 _ZNKSt7__cxx1112basic_stringIcSt11char_traitsIcESaIcEE4findEPKcj
00827cbc g       *ABS*	00000000 __ram_rodata_end
008101b8  w    F .text	0000005c _ZNSsC2ERKSsRKSaIcE
008081ec g     F .text	00000004 _ZdlPvj
008121b8  w    F .text	0000000c _ZNKSt7__cxx1112basic_stringIcSt11char_traitsIcESaIcEE8max_sizeEv
00823184 g     F .text	000000bc fstat
00811bf4  w    F .text	00000008 _ZNSt7__cxx1112basic_stringIcSt11char_traitsIcESaIcEE10_S_compareEjj
0080e934  w    F .text	00000008 _ZNSs12_Alloc_hiderC2EPcRKSaIcE
00823620 g     F .text	0000012c kill
008118e0  w    F .text	00000008 _ZNSt7__cxx1112basic_stringIcSt11char_traitsIcESaIcEE9_M_lengthEj
0080cf28 g     F .text	00000114 _ZGTtNSt13runtime_errorC1EPKc
0080ae84 g     F .text	000000b8 _ZNSt12domain_errorC2ERKSs
008225dc g     F .text	000000e8 .hidden __ledf2
00807cdc  w    F .text	00000038 _ZNSt6vectorISt4pairIifESaIS1_EEC1Ev
0080ae84 g     F .text	000000b8 _ZNSt12domain_errorC1ERKSs
0080ab74 g     F .text	00000060 _ZNSt12domain_errorD1Ev
008108bc  w    F .text	0000003c _ZNSsC2IPcEET_S1_RKSaIcE
008079bc  w    F .text	00000028 _ZN9__gnu_cxx13new_allocatorISt4pairIifEEC2ERKS3_
0081e5c0 g     F .text	00000148 __pow5mult
00810400  w    F .text	000000dc _ZStplIcSt11char_traitsIcESaIcEESbIT_T0_T1_ES3_RKS6_
008060b0  w    F .text	00000028 _ZnwjPv
00809c9c g     F .text	000000dc _ZN9__gnu_cxx15__concat_size_tEPcjj
0081f928 g     F .text	00001344 ___vfiprintf_internal_r
0080a984 g     F .text	00000068 _ZNSt15underflow_errorD0Ev
008153e8 g     F .text	0000005c .hidden __umodsi3
0080a678 g     F .text	00000008 _ZNKSt9type_info11__do_upcastEPKN10__cxxabiv117__class_type_infoEPPv
0080a7f4 g     F .text	00000060 _ZNSt11range_errorD2Ev
00807d64  w    F .text	000000a8 _ZNSt6vectorISt4pairIifESaIS1_EED2Ev
00812130  w    F .text	00000018 _ZNKSt7__cxx1112basic_stringIcSt11char_traitsIcESaIcEE6rbeginEv
00806264  w    F .text	000000a8 _ZNSt6vectorIS_ISt4pairIifESaIS1_EESaIS3_EED2Ev
0080d1e0 g     F .text	00000120 _ZGTtNSt11range_errorC1EPKc
008092b8 g     F .text	00000064 __cxa_init_primary_exception
0080df70  w    F .text	00000050 _ZNKSs4findEPKcj
00809214 g     F .text	0000000c _ZSt13get_terminatev
00812c10  w    F .text	00000008 _ZNSt7__cxx1112basic_stringIcSt11char_traitsIcESaIcEE6resizeEj
0080e504  w    F .text	0000000c _ZNKSs16find_last_not_ofERKSsj
0082b8c4 g       *ABS*	00000000 end
00811080 g     F .text	00000094 _ZNSt13random_device14_M_init_pretr1ERKNSt7__cxx1112basic_stringIcSt11char_traitsIcESaIcEEE
0080b37c g     F .text	000000b8 _ZNSt15underflow_errorC2ERKSs
008002e0 g     F .text	00000064 _ZN3DMA7irq_regEjj
00811b64  w    F .text	00000024 _ZNSt7__cxx1112basic_stringIcSt11char_traitsIcESaIcEE13_S_copy_charsEPcN9__gnu_cxx17__normal_iteratorIS5_S4_EES8_
00806264  w    F .text	000000a8 _ZNSt6vectorIS_ISt4pairIifESaIS1_EESaIS3_EED1Ev
008065c4  w    F .text	00000034 _ZNSt12_Vector_baseISt6vectorISt4pairIifESaIS2_EESaIS4_EE12_Vector_implD1Ev
008108bc  w    F .text	0000003c _ZNSsC1IPcEET_S1_RKSaIcE
0080da60  w    F .text	00000010 _ZNKSs7_M_iendEv
00817580 g     F .text	00000018 .hidden _Unwind_DeleteException
00824c94 g     F .text	000000c0 altera_avalon_jtag_uart_init
00807b64  w    F .text	00000078 _ZNSt20__uninitialized_copyILb0EE13__uninit_copyIPKSt4pairIifEPS3_EET0_T_S8_S7_
008001c4 g     F .exceptions	00000074 alt_instruction_exception_entry
00811ff8  w    F .text	00000028 _ZNSt7__cxx1112basic_stringIcSt11char_traitsIcESaIcEEaSERKS4_
0080bd64 g     F .text	0000001c _ZNSt12__cow_stringC1EPKcj
008114b8 g     F .text	000000b8 _ZNSt12__sso_stringC1ERKNSt7__cxx1112basic_stringIcSt11char_traitsIcESaIcEEE
0080e344  w    F .text	00000010 _ZNKSs12find_last_ofEcj
0080dc60  w    F .text	00000008 _ZNKSs5beginEv
00811118 g     F .text	00000178 _ZNSt13random_device7_M_initEPKcj
0081515c g     F .text	000000c4 _ZNK10__cxxabiv117__class_type_info12__do_dyncastEiNS0_10__sub_kindEPKS0_PKvS3_S5_RNS0_16__dyncast_resultE
00826ce6 g       *ABS*	00000000 __CTOR_LIST__
01000000 g       *ABS*	00000000 __alt_stack_pointer
0080f980  w    F .text	000000ac _ZNSs4_Rep8_M_cloneERKSaIcEj
0082b78c  w    O .bss	00000010 _ZNSs4_Rep20_S_empty_rep_storageE
00825620 g     F .text	00000084 alt_avalon_timer_sc_init
0080a6cc g     F .text	00000008 _ZNKSt13runtime_error4whatEv
00817620 g     F .text	00000054 .hidden __clzsi2
00827268  w    O .rodata	0000000c _ZTISt13runtime_error
00807c04  w    F .text	0000006c _ZN9__gnu_cxx13new_allocatorISt6vectorISt4pairIifESaIS3_EEE8allocateEjPKv
00814f7c g     F .text	00000078 _ZNK10__cxxabiv117__class_type_info11__do_upcastEPKS0_PPv
00806448  w    F .text	00000050 _ZN9__gnu_cxxneIPSt4pairIifESt6vectorIS2_SaIS2_EEEEbRKNS_17__normal_iteratorIT_T0_EESC_
0082537c g     F .text	00000228 altera_avalon_jtag_uart_write
00808040  w    F .text	00000028 _ZNK9__gnu_cxx13new_allocatorISt4pairIifEE11_M_max_sizeEv
00811ee8  w    F .text	00000078 _ZNSt7__cxx1112basic_stringIcSt11char_traitsIcESaIcEEC2EOS4_
0081d11c g     F .text	00000004 __sfp_lock_acquire
00827070  w    O .rodata	00000012 _ZTSSt13bad_exception
00817e8c g     F .text	000000d0 memchr
00818df0 g     F .text	00002104 ___vfprintf_internal_r
0082730c  w    O .rodata	00000014 _ZTVSt12length_error
00807e9c  w    F .text	00000040 _ZSt14__copy_move_a2ILb0EPKSt4pairIifEPS1_ET1_T0_S6_S5_
0081d270 g     F .text	000002fc _free_r
00809f38 g     F .text	0000000c _ZNKSt8bad_cast4whatEv
0080e6a4  w    F .text	000000d8 _ZNKSs7compareEjjRKSsjj
008278cc g     O .rodata	00000180 _ctype_b
00810e54  w    F .text	0000001c _ZNSs7replaceEN9__gnu_cxx17__normal_iteratorIPcSsEES2_S2_S2_
008215c4 g     F .text	0000000c __locale_mb_cur_max
0082477c g     F .text	00000138 alt_avalon_dma_send
0080eaec  w    F .text	00000034 _ZNSsC1ERKSaIcE
008114a0 g     F .text	00000004 _ZNSt13random_device16_M_getval_pretr1Ev
00807808  w    F .text	00000030 _ZNK9__gnu_cxx13new_allocatorISt6vectorISt4pairIifESaIS3_EEE8max_sizeEv
00813d20  w    F .text	0000000c _ZNKSt7__cxx1112basic_stringIcSt11char_traitsIcESaIcEE4findERKS4_j
00826994 g     F .text	00000120 __call_exitprocs
0080e96c  w    F .text	00000008 _ZNSs4_Rep15_M_set_sharableEv
0080ef48  w    F .text	00000048 _ZNSs4backEv
008299e8 g     O .rwdata	00000008 alt_dma_txchan_list
00814240  w    F .text	0000008c _ZNKSt7__cxx1112basic_stringIcSt11char_traitsIcESaIcEE16find_last_not_ofEPKcjj
0082996c  w    O .rwdata	00000004 _ZNSs4_Rep11_S_max_sizeE
0080ab14 g     F .text	00000060 _ZNSt16invalid_argumentD2Ev
0080aa54 g     F .text	00000060 _ZNSt12length_errorD1Ev
0080d4a8 g     F .text	00000120 _ZGTtNSt14overflow_errorC1EPKc
0080e020  w    F .text	00000098 _ZNKSs5rfindEPKcjj
008299b0 g     O .rwdata	00000004 __malloc_sbrk_base
00800238 g     F .text	0000004c _start
008271c4  w    O .rodata	0000000c _ZTISt11logic_error
0080de7c  w    F .text	00000008 _ZNKSs4dataEv
0080b470 g     F .text	00000070 _ZNSt11logic_errorC2ERKS_
0082b774 g     O .bss	00000004 _alt_tick_rate
008149dc  w    F .text	00000010 _ZNSt7__cxx1112basic_stringIcSt11char_traitsIcESaIcEEC2IN9__gnu_cxx17__normal_iteratorIPcS4_EEvEET_SA_RKS3_
008146fc  w    F .text	00000008 _ZNSt7__cxx1112basic_stringIcSt11char_traitsIcESaIcEE12_Alloc_hiderC1EPcRKS3_
00827184  w    O .rodata	0000000d _ZTSSt9type_info
0081129c  w    F .text	00000008 _ZNSt23mersenne_twister_engineIjLj32ELj624ELj397ELj31ELj2567483615ELj11ELj4294967295ELj7ELj2636928640ELj15ELj4022730752ELj18ELj1812433253EE3minEv
0080dca8  w    F .text	00000010 _ZNKSs4cendEv
0080dd04  w    F .text	0000000c _ZNKSs8capacityEv
0080da40  w    F .text	0000000c _ZNSs7_M_dataEPc
0080b37c g     F .text	000000b8 _ZNSt15underflow_errorC1ERKSs
00809ee4 g     F .text	0000000c _ZNKSt9bad_alloc4whatEv
0080a38c g     F .text	0000000c __cxa_pure_virtual
008073b0  w    F .text	0000004c _ZNSt12_Vector_baseISt6vectorISt4pairIifESaIS2_EESaIS4_EE11_M_allocateEj
0081e708 g     F .text	00000188 __lshift
00826fac  w    O .rodata	00000014 _ZTVSt9bad_alloc
0082b778 g     O .bss	00000004 _alt_nticks
00806b38  w    F .text	00000024 _ZNK9__gnu_cxx17__normal_iteratorIPSt4pairIifESt6vectorIS2_SaIS2_EEE4baseEv
008187dc g     F .text	000000a0 signal
0080dcb8  w    F .text	00000018 _ZNKSs7crbeginEv
00823a54 g     F .text	00000108 read
00823eac g     F .text	000000a8 alt_sys_init
008081c8  w    F .text	00000024 _ZN9__gnu_cxx13new_allocatorISt4pairIifEEC2Ev
00806c38  w    F .text	00000080 _ZNSt12_Vector_baseISt6vectorISt4pairIifESaIS2_EESaIS4_EE17_M_create_storageEj
00810214  w    F .text	0000005c _ZNSsC2ERKSs
00811a44  w    F .text	00000010 _ZNSt7__cxx1112basic_stringIcSt11char_traitsIcESaIcEE18_M_construct_aux_2Ejc
0080de84  w    F .text	00000008 _ZNKSs13get_allocatorEv
0080d9c4 g     F .text	00000030 _ZGTtNSt15underflow_errorD2Ev
0082701c  w    O .rodata	0000000c _ZTISt10bad_typeid
0080ede0  w    F .text	00000044 _ZNSsixEj
0080eb20  w    F .text	00000044 _ZNSsC2EjcRKSaIcE
00826904 g     F .text	00000090 __register_exitproc
00826f90  w    O .rodata	0000000d _ZTSSt9bad_alloc
008123d0  w    F .text	00000010 _ZNSt7__cxx1112basic_stringIcSt11char_traitsIcESaIcEE5clearEv
0080a330 g     F .text	0000000c _ZGTtNKSt13bad_exception4whatEv
0080d434 g     F .text	00000030 _ZGTtNSt11range_errorD1Ev
0080a3ec g     F .text	00000160 _ZNK10__cxxabiv120__si_class_type_info12__do_dyncastEiNS_17__class_type_info10__sub_kindEPKS1_PKvS4_S6_RNS1_16__dyncast_resultE
008123ec  w    F .text	0000000c _ZNKSt7__cxx1112basic_stringIcSt11char_traitsIcESaIcEEixEj
008141b0  w    F .text	00000050 _ZNKSt7__cxx1112basic_stringIcSt11char_traitsIcESaIcEE17find_first_not_ofEPKcj
00811bac  w    F .text	00000024 _ZNSt7__cxx1112basic_stringIcSt11char_traitsIcESaIcEE13_S_copy_charsEPcS5_S5_
00812108  w    F .text	00000010 _ZNKSt7__cxx1112basic_stringIcSt11char_traitsIcESaIcEE3endEv
0080f0a8  w    F .text	00000060 _ZNSs5eraseEN9__gnu_cxx17__normal_iteratorIPcSsEES2_
0080d03c g     F .text	00000128 _ZGTtNSt13runtime_errorC1ERKNSt7__cxx1112basic_stringIcSt11char_traitsIcESaIcEEE
0080d300 g     F .text	00000134 _ZGTtNSt11range_errorC2ERKNSt7__cxx1112basic_stringIcSt11char_traitsIcESaIcEEE
0081e2fc g     F .text	000002c4 __multiply
00811fe0  w    F .text	00000018 _ZNSt7__cxx1112basic_stringIcSt11char_traitsIcESaIcEED2Ev
00812788  w    F .text	0000005c _ZNSt7__cxx1112basic_stringIcSt11char_traitsIcESaIcEE5eraseEN9__gnu_cxx17__normal_iteratorIPKcS4_EES9_
00825000 g     F .text	00000068 altera_avalon_jtag_uart_close
00814ec4  w    F .text	00000014 _ZNSt7__cxx1112basic_stringIcSt11char_traitsIcESaIcEEC1ESt16initializer_listIcERKS3_
00814e04  w    F .text	0000005c _ZNSt7__cxx1112basic_stringIcSt11char_traitsIcESaIcEEC2ERKS4_jjRKS3_
00815444 g     F .text	00000028 .hidden __mulsi3
00827cbc g       *ABS*	00000000 __ram_rwdata_start
0080ab74 g     F .text	00000060 _ZNSt12domain_errorD2Ev
008173f0 g     F .text	000000c8 .hidden _Unwind_SjLj_RaiseException
00826cec g       *ABS*	00000000 __ram_rodata_start
0080e5b4  w    F .text	00000054 _ZNKSs7compareERKSs
0082b79c g     O .bss	00000028 __malloc_current_mallinfo
008174fc g     F .text	00000044 .hidden _Unwind_SjLj_Resume
00814468  w    F .text	000000d8 _ZNKSt7__cxx1112basic_stringIcSt11char_traitsIcESaIcEE7compareEjjRKS4_jj
0080ed94  w    F .text	00000014 _ZNSs7_M_leakEv
00807480  w    F .text	0000005c _ZNSt12_Destroy_auxILb0EE9__destroyIPSt6vectorISt4pairIifESaIS4_EEEEvT_S8_
0081ec78 g     F .text	00000164 __d2b
00827110  w    O .rodata	00000014 _ZTVN10__cxxabiv119__foreign_exceptionE
0080a66c g     F .text	00000004 _ZNSt9type_infoD2Ev
008140bc  w    F .text	00000050 _ZNKSt7__cxx1112basic_stringIcSt11char_traitsIcESaIcEE12find_last_ofEPKcj
0080a35c g     F .text	00000008 _ZN10__cxxabiv119__foreign_exceptionD0Ev
0080eb78  w    F .text	000001b4 _ZNSs9_M_mutateEjjj
0080a5e8 g     F .text	00000084 _ZNK10__cxxabiv120__si_class_type_info11__do_upcastEPKNS_17__class_type_infoEPKvRNS1_15__upcast_resultE
00807590  w    F .text	0000003c _ZNSaISt4pairIifEEC2ERKS1_
0080ab14 g     F .text	00000060 _ZNSt16invalid_argumentD1Ev
0080dc68  w    F .text	00000010 _ZNKSs3endEv
00810fac g     F .text	0000000c _ZNSt13random_device14_M_init_pretr1ERKSs
00824b30 g     F .text	00000060 altera_avalon_jtag_uart_read_fd
00818db4 g     F .text	00000004 _strtoul_r
008265c8 g     F .text	000000b8 alt_get_fd
008272b0  w    O .rodata	00000014 _ZTSSt15underflow_error
00829950  w    O .rwdata	00000008 _ZTIN10__cxxabiv119__foreign_exceptionE
00820f0c g     F .text	00000058 _close_r
00812bb8  w    F .text	00000058 _ZNSt7__cxx1112basic_stringIcSt11char_traitsIcESaIcEE6resizeEjc
0080a794 g     F .text	00000060 _ZNSt15underflow_errorD2Ev
00807e0c  w    F .text	00000030 _ZNK9__gnu_cxx13new_allocatorISt4pairIifEE8max_sizeEv
0080bbcc g     F .text	000000bc _ZNSt14overflow_errorC1EPKc
0080fef8  w    F .text	000000e4 _ZNSs6appendEjc
00814c98  w    F .text	000000c8 _ZNSt7__cxx1112basic_stringIcSt11char_traitsIcESaIcEE12_M_constructIPKcEEvT_S8_St20forward_iterator_tag
00806da8  w    F .text	0000005c _ZSt8distanceIPKSt4pairIifEENSt15iterator_traitsIT_E15difference_typeES5_S5_
00829988  w    O .rwdata	00000004 _ZNSt23mersenne_twister_engineIjLj32ELj624ELj397ELj31ELj2567483615ELj11ELj4294967295ELj7ELj2636928640ELj15ELj4022730752ELj18ELj1812433253EE11tempering_bE
0080fc64  w    F .text	00000108 _ZNSs6appendERKSsjj
0080e2e8  w    F .text	0000000c _ZNKSs12find_last_ofERKSsj
00817f5c g     F .text	00000078 memcmp
00824bf0 g     F .text	00000050 altera_avalon_jtag_uart_close_fd
0082b8c4 g       *ABS*	00000000 __alt_stack_base
00829998  w    O .rwdata	00000004 _ZNSt23mersenne_twister_engineIjLj32ELj624ELj397ELj31ELj2567483615ELj11ELj4294967295ELj7ELj2636928640ELj15ELj4022730752ELj18ELj1812433253EE8xor_maskE
00824c40 g     F .text	00000054 altera_avalon_jtag_uart_ioctl_fd
00809f00 g     F .text	00000038 _ZNSt9bad_allocD0Ev
008142d8  w    F .text	00000050 _ZNKSt7__cxx1112basic_stringIcSt11char_traitsIcESaIcEE16find_last_not_ofEPKcj
0080a3a4 g     F .text	00000010 _ZN10__cxxabiv120__si_class_type_infoD1Ev
00806d08  w    F .text	0000003c _ZSt27__uninitialized_default_n_aIPSt6vectorISt4pairIifESaIS2_EEjS4_ET_S6_T0_RSaIT1_E
0080be4c g     F .text	00000044 _ZNSt12__cow_stringD1Ev
0080fabc  w    F .text	000000dc _ZNSs13shrink_to_fitEv
0080a7f4 g     F .text	00000060 _ZNSt11range_errorD1Ev
0081afd0 g     F .text	00000164 __swsetup_r
00813870  w    F .text	0000000c _ZNSt7__cxx1112basic_stringIcSt11char_traitsIcESaIcEE6appendERKS4_
00827274  w    O .rodata	00000010 _ZTSSt11range_error
0080d72c g     F .text	00000044 _ZGTtNSt14overflow_errorD0Ev
00817540 g     F .text	00000040 .hidden _Unwind_SjLj_Resume_or_Rethrow
00800580 g     F .text	00000054 _Z20write_dijkstra_cachefii
00812a9c  w    F .text	00000068 _ZNSt7__cxx1112basic_stringIcSt11char_traitsIcESaIcEE7replaceEjjjc
00815d5c g     F .text	00000930 .hidden __divdf3
0081cfa4 g     F .text	00000154 __sfp
0081eef0 g     F .text	0000007c __copybits
00811fe0  w    F .text	00000018 _ZNSt7__cxx1112basic_stringIcSt11char_traitsIcESaIcEED1Ev
008271e4  w    O .rodata	0000000c _ZTISt12domain_error
0080a670 g     F .text	00000008 _ZNKSt9type_info14__is_pointer_pEv
00826fd0  w    O .rodata	0000000c _ZTSSt8bad_cast
0081437c  w    F .text	00000054 _ZNKSt7__cxx1112basic_stringIcSt11char_traitsIcESaIcEE7compareERKS4_
00814b9c  w    F .text	00000010 _ZNSt7__cxx1112basic_stringIcSt11char_traitsIcESaIcEEC2IPcvEET_S7_RKS3_
00808180  w    F .text	00000048 _ZNSt4pairIifEaSERKS0_
00810e70  w    F .text	0000001c _ZNSs7replaceEN9__gnu_cxx17__normal_iteratorIPcSsEES2_NS0_IPKcSsEES5_
008272a4  w    O .rodata	0000000c _ZTISt14overflow_error
00827cbc g     O .rwdata	00000408 __malloc_av_
0081d128 g     F .text	00000004 __sinit_lock_release
0080ba64 g     F .text	000000ac _ZNSt13runtime_errorC2EPKc
0080e510  w    F .text	00000050 _ZNKSs16find_last_not_ofEPKcj
0081668c g     F .text	000007ac .hidden __muldf3
00829974  w    O .rwdata	00000004 _ZNSt23mersenne_twister_engineIjLj32ELj624ELj397ELj31ELj2567483615ELj11ELj4294967295ELj7ELj2636928640ELj15ELj4022730752ELj18ELj1812433253EE12default_seedE
0081f6dc g     F .text	00000054 __sread
008270d4  w    O .rodata	00000014 _ZTVSt9exception
0080a350 g     F .text	00000008 _ZN10__cxxabiv115__forced_unwindD0Ev
00808144  w    F .text	0000003c _ZNSt12_Vector_baseISt4pairIifESaIS1_EE17_Vector_impl_dataC1Ev
00829990  w    O .rwdata	00000004 _ZNSt23mersenne_twister_engineIjLj32ELj624ELj397ELj31ELj2567483615ELj11ELj4294967295ELj7ELj2636928640ELj15ELj4022730752ELj18ELj1812433253EE11tempering_dE
00807440  w    F .text	00000040 _ZSt25__uninitialized_default_nIPSt6vectorISt4pairIifESaIS2_EEjET_S6_T0_
00806b00  w    F .text	00000038 _ZN9__gnu_cxx17__normal_iteratorIPSt4pairIifESt6vectorIS2_SaIS2_EEEC2ERKS3_
0080ffdc  w    F .text	00000054 _ZNSs6resizeEjc
008264c0 g     F .text	00000108 alt_find_file
00810d84  w    F .text	00000030 _ZNSs7replaceEN9__gnu_cxx17__normal_iteratorIPcSsEES2_RKSs
008299ac  w    O .rwdata	00000004 _ZNSt7__cxx1112basic_stringIcSt11char_traitsIcESaIcEE4nposE
0080c264 g     F .text	00000128 _ZGTtNSt11logic_errorC1ERKNSt7__cxx1112basic_stringIcSt11char_traitsIcESaIcEEE
0080f908  w    F .text	00000050 _ZNSs5clearEv
00825b3c g     F .text	000000a8 alt_dev_llist_insert
008239d0 g     F .text	00000024 __malloc_lock
00823bcc g     F .text	000000b8 sbrk
0080bd60 g     F .text	00000004 _ZNSt12__cow_stringC1ERKSs
008095e8 g     F .text	000000a8 _ZSt20__throw_domain_errorPKc
00809540 g     F .text	000000a8 _ZSt19__throw_logic_errorPKc
00811ad0  w    F .text	00000020 _ZNKSt7__cxx1112basic_stringIcSt11char_traitsIcESaIcEE11_M_disjunctEPKc
00827634  w    O .rodata	0000002c _ZTVN10__cxxabiv117__class_type_infoE
0080931c g     F .text	00000060 __cxa_throw
0081ccc4 g     F .text	00000060 _fflush_r
008173b4 g     F .text	00000010 .hidden _Unwind_SetIP
0080dc48  w    F .text	00000018 _ZNSsC2EOSsRKSaIcE
00820fdc g     F .text	000000c4 _calloc_r
008137cc  w    F .text	000000a4 _ZNSt7__cxx1112basic_stringIcSt11char_traitsIcESaIcEE9_M_appendEPKcj
00811718 g     F .text	00000068 _ZNSt12__sso_stringaSERKS_
00827228  w    O .rodata	0000000c _ZTISt12length_error
0080e960  w    F .text	0000000c _ZNSs4_Rep13_M_set_leakedEv
0080cc60 g     F .text	00000120 _ZGTtNSt12out_of_rangeC1EPKc
00809a24 g     F .text	000000a8 _ZSt19__throw_range_errorPKc
0080af3c g     F .text	000000b8 _ZNSt16invalid_argumentC1ERKSs
0082b734 g       *ABS*	00000000 __bss_start
008118d8  w    F .text	00000008 _ZNSt7__cxx1112basic_stringIcSt11char_traitsIcESaIcEE7_M_dataEPc
008131ec  w    F .text	00000094 _ZNSt7__cxx1112basic_stringIcSt11char_traitsIcESaIcEE7replaceEjjPKc
00818200 g     F .text	000000f0 memset
0080dc14  w    F .text	0000000c _ZNSs12_S_empty_repEv
00800774 g     F .text	0000593c main
0080c924 g     F .text	00000030 _ZGTtNSt16invalid_argumentD2Ev
00827254  w    O .rodata	00000012 _ZTSSt13runtime_error
0080e608  w    F .text	0000009c _ZNKSs7compareEjjRKSs
00824588 g     F .text	00000048 alt_avalon_dma_rx_ioctl
0080e3e8  w    F .text	00000050 _ZNKSs17find_first_not_ofEPKcj
0080bd80 g     F .text	00000064 _ZNSt12__cow_stringC1ERKS_
0082b764 g     O .bss	00000004 alt_envp
0080c140 g     F .text	00000008 _Z26_txnal_logic_error_get_msgPv
0082b744 g     O .bss	00000004 __malloc_max_total_mem
008081c8  w    F .text	00000024 _ZN9__gnu_cxx13new_allocatorISt4pairIifEEC1Ev
00827028  w    O .rodata	00000014 _ZTVSt10bad_typeid
00814a94  w    F .text	00000020 _ZNSt7__cxx1112basic_stringIcSt11char_traitsIcESaIcEEC1ERKS4_RKS3_
00824b90 g     F .text	00000060 altera_avalon_jtag_uart_write_fd
00811294  w    F .text	00000008 _ZNSt23mersenne_twister_engineIjLj32ELj624ELj397ELj31ELj2567483615ELj11ELj4294967295ELj7ELj2636928640ELj15ELj4022730752ELj18ELj1812433253EEC1Ev
00814e60  w    F .text	00000014 _ZNSt7__cxx1112basic_stringIcSt11char_traitsIcESaIcEEC2EPKcjRKS3_
00820e90 g     F .text	00000018 __swbuf
0080a364 g     F .text	00000004 _ZGTtNKSt9exceptionD1Ev
00809470 g     F .text	00000034 _ZSt21__throw_bad_exceptionv
008083a0 g     F .text	0000000c __cxa_get_globals_fast
00814e04  w    F .text	0000005c _ZNSt7__cxx1112basic_stringIcSt11char_traitsIcESaIcEEC1ERKS4_jjRKS3_
008068a8  w    F .text	0000004c _ZNKSt16initializer_listISt4pairIifEE3endEv
0080de24  w    F .text	00000028 _ZNSsaSEOSs
00813960  w    F .text	00000060 _ZNSt7__cxx1112basic_stringIcSt11char_traitsIcESaIcEEpLEPKc
00811ee8  w    F .text	00000078 _ZNSt7__cxx1112basic_stringIcSt11char_traitsIcESaIcEEC1EOS4_
0080ea48  w    F .text	000000a4 _ZNSs12_S_constructEjcRKSaIcE
00813e88  w    F .text	00000050 _ZNKSt7__cxx1112basic_stringIcSt11char_traitsIcESaIcEE5rfindEPKcj
00826fe8  w    O .rodata	00000014 _ZTVSt8bad_cast
0081f814 g     F .text	00000008 __sclose
01000000 g       *ABS*	00000000 __alt_heap_limit
0080db08  w    F .text	00000020 _ZNSs7_M_copyEPcPKcj
00809f8c g     F .text	0000000c _ZNKSt10bad_typeid4whatEv
008211d0 g     F .text	00000070 fclose
0080df64  w    F .text	0000000c _ZNKSs4findERKSsj
008256a4 g     F .text	00000098 alt_timestamp_start
0080aab4 g     F .text	00000060 _ZNSt12out_of_rangeD1Ev
0081b354 g     F .text	00001748 _dtoa_r
008176ac g     F .text	000007e0 _malloc_r
0080c110 g     F .text	00000004 _Z23_txnal_sso_string_c_strPKv
00810f44  w    F .text	0000003c _ZNSsC2IPKcEET_S2_RKSaIcE
00821860 g     F .text	00000030 __ascii_wctomb
00814b9c  w    F .text	00000010 _ZNSt7__cxx1112basic_stringIcSt11char_traitsIcESaIcEEC1IPcvEET_S7_RKS3_
0080a330 g     F .text	0000000c _ZNKSt13bad_exception4whatEv
0080fe70  w    F .text	00000004 _ZNSspLESt16initializer_listIcE
0080eaec  w    F .text	00000034 _ZNSsC2ERKSaIcE
008299d4 g     O .rwdata	00000004 alt_errno
00814ab4  w    F .text	000000c8 _ZNSt7__cxx1112basic_stringIcSt11char_traitsIcESaIcEE12_M_constructIPcEEvT_S7_St20forward_iterator_tag
00807a08  w    F .text	0000003c _ZNSt16allocator_traitsISaISt4pairIifEEE8allocateERS2_j
00810e1c  w    F .text	0000001c _ZNSs7replaceEN9__gnu_cxx17__normal_iteratorIPcSsEES2_S1_S1_
0080bde4 g     F .text	00000068 _ZNSt12__cow_stringaSERKS_
0080b2c4 g     F .text	000000b8 _ZNSt14overflow_errorC2ERKSs
0080e2f4  w    F .text	00000050 _ZNKSs12find_last_ofEPKcj
0080a91c g     F .text	00000068 _ZNSt11range_errorD0Ev
00821240 g     F .text	00000020 _fiprintf_r
0081887c g     F .text	00000060 _init_signal
00827628  w    O .rodata	0000000c _ZTIN10__cxxabiv117__class_type_infoE
00806350  w    F .text	00000074 _ZNSt6vectorISt4pairIifESaIS1_EEaSESt16initializer_listIS1_E
0081da34 g     F .text	00000098 _fwalk
0080b548 g     F .text	00000024 _ZNSt11logic_errorC1EOS_
008216a8 g     F .text	0000000c _mbtowc_r
0080a320 g     F .text	00000004 _ZNSt13bad_exceptionD1Ev
00806d80  w    F .text	00000028 _ZNKSt16initializer_listISt4pairIifEE4sizeEv
0080c6d0 g     F .text	00000120 _ZGTtNSt16invalid_argumentC1EPKc
0081f098 g     F .text	000000e0 putc
00815290 g     F .text	00000080 .hidden __divsi3
0081d154 g     F .text	0000011c _malloc_trim_r
00806d44  w    F .text	0000003c _ZSt8_DestroyIPSt6vectorISt4pairIifESaIS2_EEEvT_S6_
00826cec g       *ABS*	00000000 __CTOR_END__
008068f4  w    F .text	0000020c _ZNSt6vectorISt4pairIifESaIS1_EE13_M_assign_auxIPKS1_EEvT_S7_St20forward_iterator_tag
0080db28  w    F .text	00000020 _ZNSs7_M_moveEPcPKcj
00829994  w    O .rwdata	00000004 _ZNSt23mersenne_twister_engineIjLj32ELj624ELj397ELj31ELj2567483615ELj11ELj4294967295ELj7ELj2636928640ELj15ELj4022730752ELj18ELj1812433253EE11tempering_uE
0080fb98  w    F .text	000000c8 _ZNSs6appendERKSs
00810038  w    F .text	000000a4 _ZNSs9push_backEc
008189fc g     F .text	000000b8 strcmp
0080b9a8 g     F .text	000000bc _ZNSt12out_of_rangeC1EPKc
008064f8  w    F .text	00000024 _ZN9__gnu_cxx13new_allocatorISt6vectorISt4pairIifESaIS3_EEEC1Ev
0080dbe8  w    F .text	00000024 _ZNSs13_S_copy_charsEPcPKcS1_
0080e114  w    F .text	00000050 _ZNKSs5rfindEcj
00826cec g       *ABS*	00000000 __flash_rodata_start
008270fc  w    O .rodata	00000014 _ZTVN10__cxxabiv115__forced_unwindE
00826cec g       *ABS*	00000000 __DTOR_LIST__
0080eb64  w    F .text	00000010 _ZNSs18_S_construct_aux_2EjcRKSaIcE
00811780 g     F .text	00000018 _ZNSt12__sso_stringD1Ev
008114b8 g     F .text	000000b8 _ZNSt12__sso_stringC2ERKNSt7__cxx1112basic_stringIcSt11char_traitsIcESaIcEEE
00810ea8  w    F .text	0000005c _ZNSsC1EPKcRKSaIcE
00818db8 g     F .text	0000001c strtoul_l
00822474 g     F .text	00000080 .hidden __nedf2
00809f44 g     F .text	00000010 _ZNSt8bad_castD2Ev
0080b60c g     F .text	00000068 _ZNSt13runtime_erroraSERKS_
00813280  w    F .text	00000060 _ZNSt7__cxx1112basic_stringIcSt11char_traitsIcESaIcEE7replaceEN9__gnu_cxx17__normal_iteratorIPKcS4_EES9_S8_j
008121a8  w    F .text	00000008 _ZNKSt7__cxx1112basic_stringIcSt11char_traitsIcESaIcEE4sizeEv
0080b0ac g     F .text	000000b8 _ZNSt12out_of_rangeC1ERKSs
00823e70 g     F .text	0000003c alt_irq_init
00807bdc  w    F .text	00000028 _ZNK9__gnu_cxx13new_allocatorISt6vectorISt4pairIifESaIS3_EEE11_M_max_sizeEv
00807308  w    F .text	00000044 _ZSt3minIjERKT_S2_S2_
00810670  w    F .text	000000b4 _ZNSs12_S_constructIPcEES0_T_S1_RKSaIcESt20forward_iterator_tag
00823b5c g     F .text	00000070 alt_release_fd
00829980  w    O .rwdata	00000004 _ZNSt23mersenne_twister_engineIjLj32ELj624ELj397ELj31ELj2567483615ELj11ELj4294967295ELj7ELj2636928640ELj15ELj4022730752ELj18ELj1812433253EE11tempering_cE
00813740  w    F .text	0000008c _ZNSt7__cxx1112basic_stringIcSt11char_traitsIcESaIcEE6insertEjRKS4_jj
0080a3b4 g     F .text	00000038 _ZN10__cxxabiv120__si_class_type_infoD0Ev
00807fa4  w    F .text	0000009c _ZNSt12_Vector_baseISt4pairIifESaIS1_EED2Ev
00812464  w    F .text	00000014 _ZNSt7__cxx1112basic_stringIcSt11char_traitsIcESaIcEE4backEv
0080f860  w    F .text	00000040 _ZNSs8pop_backEv
00810ca8  w    F .text	00000068 _ZNSs7replaceEjjRKSsjj
00826758 g     F .text	00000018 memalign
00827660 g     O .rodata	00000100 .hidden __clz_tab
0080a6d4 g     F .text	00000060 _ZNSt11logic_errorD2Ev
00811290  w    F .text	00000004 _ZNSt23mersenne_twister_engineIjLj32ELj624ELj397ELj31ELj2567483615ELj11ELj4294967295ELj7ELj2636928640ELj15ELj4022730752ELj18ELj1812433253EEC1Ej
0080ed2c  w    F .text	00000068 _ZNSs12_M_leak_hardEv
0082b754 g     O .bss	00000004 _PathLocale
008079e4  w    F .text	00000024 _ZN9__gnu_cxx13new_allocatorISt4pairIifEED2Ev
008271b4  w    O .rodata	00000010 _ZTSSt11logic_error
0080a6d4 g     F .text	00000060 _ZNSt11logic_errorD1Ev
00826710 g     F .text	00000014 atexit
008125e4  w    F .text	000000c8 _ZNSt7__cxx1112basic_stringIcSt11char_traitsIcESaIcEE6assignEOS4_
0080ceb4 g     F .text	00000030 _ZGTtNSt12out_of_rangeD1Ev
00827284  w    O .rodata	0000000c _ZTISt11range_error
0081310c  w    F .text	00000068 _ZNSt7__cxx1112basic_stringIcSt11char_traitsIcESaIcEE7replaceEjjRKS4_
0080d6fc g     F .text	00000030 _ZGTtNSt14overflow_errorD2Ev
0080b20c g     F .text	000000b8 _ZNSt11range_errorC1ERKSs
00820ea8 g     F .text	00000064 _write_r
00811ebc  w    F .text	00000014 _ZNSt7__cxx1112basic_stringIcSt11char_traitsIcESaIcEEC2ERKS3_
0080d9c4 g     F .text	00000030 _ZGTtNSt15underflow_errorD1Ev
0080f854  w    F .text	0000000c _ZNSs6insertEjRKSs
00814838  w    F .text	000000fc _ZStplIcSt11char_traitsIcESaIcEENSt7__cxx1112basic_stringIT_T0_T1_EES5_RKS8_
0080cd80 g     F .text	00000134 _ZGTtNSt12out_of_rangeC2ERKNSt7__cxx1112basic_stringIcSt11char_traitsIcESaIcEEE
008215d0 g     F .text	00000074 setlocale
0080aca4 g     F .text	00000068 _ZNSt12out_of_rangeD0Ev
00806b00  w    F .text	00000038 _ZN9__gnu_cxx17__normal_iteratorIPSt4pairIifESt6vectorIS2_SaIS2_EEEC1ERKS3_
00806540  w    F .text	00000084 _ZNSt6vectorIS_ISt4pairIifESaIS1_EESaIS3_EE17_S_check_init_lenEjRKS4_
00807f64  w    F .text	00000040 _ZNSt12_Vector_baseISt4pairIifESaIS1_EE12_Vector_implC2Ev
008173e8 g     F .text	00000008 .hidden _Unwind_GetTextRelBase
0080c6d0 g     F .text	00000120 _ZGTtNSt16invalid_argumentC2EPKc
0080a2c4 g     F .text	00000058 __cxa_call_terminate
00813540  w    F .text	000000a0 _ZNSt7__cxx1112basic_stringIcSt11char_traitsIcESaIcEE7replaceEN9__gnu_cxx17__normal_iteratorIPKcS4_EES9_S8_
00814668  w    F .text	00000094 _ZNKSt7__cxx1112basic_stringIcSt11char_traitsIcESaIcEE7compareEjjPKcj
008065c4  w    F .text	00000034 _ZNSt12_Vector_baseISt6vectorISt4pairIifESaIS2_EESaIS4_EE12_Vector_implD2Ev
0080d890 g     F .text	00000134 _ZGTtNSt15underflow_errorC1ERKNSt7__cxx1112basic_stringIcSt11char_traitsIcESaIcEEE
0080f108  w    F .text	000000a4 _ZNSs14_M_replace_auxEjjjc
008299bc g     O .rwdata	00000004 _impure_ptr
00829948  w    O .rwdata	00000008 _ZTIN10__cxxabiv115__forced_unwindE
00811394  w    F .text	0000008c _ZNSt23mersenne_twister_engineIjLj32ELj624ELj397ELj31ELj2567483615ELj11ELj4294967295ELj7ELj2636928640ELj15ELj4022730752ELj18ELj1812433253EE7discardEy
0082b75c g     O .bss	00000004 alt_argc
0080b674 g     F .text	00000024 _ZNSt13runtime_errorC2EOS_
0080f2a4  w    F .text	0000006c _ZNSs7replaceEjjjc
0081ca9c g     F .text	00000228 __sflush_r
0082b768 g     O .bss	00000004 altera_avalon_timer_ts_base
00810788  w    F .text	00000074 _ZNSsC1ERKSsjj
00825d68 g     F .text	00000064 _do_dtors
0080cab8 g     F .text	00000134 _ZGTtNSt12length_errorC1ERKNSt7__cxx1112basic_stringIcSt11char_traitsIcESaIcEEE
008104dc  w    F .text	000000b4 _ZStplIcSt11char_traitsIcESaIcEESbIT_T0_T1_ERKS6_S8_
008067b4  w    F .text	00000068 _ZNSt6vectorIS_ISt4pairIifESaIS1_EESaIS3_EE21_M_default_initializeEj
008125bc  w    F .text	00000028 _ZNSt7__cxx1112basic_stringIcSt11char_traitsIcESaIcEE6assignERKS4_
008107fc  w    F .text	0000004c _ZNKSs6substrEjj
00809244 g     F .text	0000000c _ZSt14get_unexpectedv
00800020 g       .exceptions	00000000 alt_irq_entry
008216b4 g     F .text	00000044 __ascii_mbtowc
0080dd10  w    F .text	00000010 _ZNKSs5emptyEv
0081eb14 g     F .text	0000005c __ulp
008173d8 g     F .text	00000008 .hidden _Unwind_FindEnclosingFunction
00810f80  w    F .text	00000010 _ZN9__gnu_cxxeqIPcSsEEbRKNS_17__normal_iteratorIT_T0_EES7_
0081d140 g     F .text	00000014 __fp_unlock_all
00807c70  w    F .text	00000034 _ZNSt12_Vector_baseISt4pairIifESaIS1_EE12_Vector_implD2Ev
0080b830 g     F .text	000000bc _ZNSt16invalid_argumentC2EPKc
008120e8  w    F .text	00000008 _ZNSt7__cxx1112basic_stringIcSt11char_traitsIcESaIcEE5beginEv
008118e8  w    F .text	00000008 _ZNKSt7__cxx1112basic_stringIcSt11char_traitsIcESaIcEE7_M_dataEv
00807afc  w    F .text	00000040 _ZSt14__copy_move_a1ILb0EPKSt4pairIifEPS1_ET1_T0_S6_S5_
008299c0 g     O .rwdata	00000008 alt_fs_list
008270b0  w    O .rodata	00000024 _ZTSN10__cxxabiv119__foreign_exceptionE
00813fb8  w    F .text	0000000c _ZNKSt7__cxx1112basic_stringIcSt11char_traitsIcESaIcEE13find_first_ofERKS4_j
008173c4 g     F .text	0000000c .hidden _Unwind_GetLanguageSpecificData
00800284 g     F .text	0000005c _ZN3DMAC2Ejj
0080ad74 g     F .text	00000068 _ZNSt16invalid_argumentD0Ev
00806700  w    F .text	000000b4 _ZNSt12_Vector_baseISt6vectorISt4pairIifESaIS2_EESaIS4_EED1Ev
0080b774 g     F .text	000000bc _ZNSt12domain_errorC2EPKc
00811b88  w    F .text	00000024 _ZNSt7__cxx1112basic_stringIcSt11char_traitsIcESaIcEE13_S_copy_charsEPcN9__gnu_cxx17__normal_iteratorIPKcS4_EESA_
008109ac  w    F .text	00000040 _ZNSsC1EPKcjRKSaIcE
008081f8 g     F .text	000000b8 __cxa_begin_catch
0081411c  w    F .text	00000088 _ZNKSt7__cxx1112basic_stringIcSt11char_traitsIcESaIcEE17find_first_not_ofEPKcjj
0080f5c0  w    F .text	00000004 _ZNSs6assignESt16initializer_listIcE
00813634  w    F .text	00000070 _ZNSt7__cxx1112basic_stringIcSt11char_traitsIcESaIcEE6insertEN9__gnu_cxx17__normal_iteratorIPKcS4_EESt16initializer_listIcE
0081500c g     F .text	00000010 _ZN10__cxxabiv117__class_type_infoD2Ev
008091cc g     F .text	00000010 _ZN10__cxxabiv112__unexpectedEPFvvE
0080bed0 g     F .text	00000100 _ZNKSt3_V214error_category10_M_messageEi
0080dc30  w    F .text	00000018 _ZNSsC2EOSs
00827214  w    O .rodata	00000011 _ZTSSt12length_error
00800020 g       *ABS*	00000000 __ram_exceptions_start
008080ec  w    F .text	00000024 _ZSt7forwardIRKSt4pairIifEEOT_RNSt16remove_referenceIS4_E4typeE
008101b8  w    F .text	0000005c _ZNSsC1ERKSsRKSaIcE
008063c4  w    F .text	00000040 _ZNSt6vectorISt4pairIifESaIS1_EE5beginEv
0081db88 g     F .text	0000000c localeconv
0082573c g     F .text	000001ac alt_timestamp
00811570 g     F .text	000000b8 _ZNSt12__sso_stringC1EPKcj
008094d8 g     F .text	00000034 _ZSt16__throw_bad_castv
0081dd44 g     F .text	00000098 __swhatbuf_r
0080a344 g     F .text	00000008 _ZNSt13bad_exceptionD0Ev
008065f8  w    F .text	00000108 _ZNSt12_Vector_baseISt6vectorISt4pairIifESaIS2_EESaIS4_EEC1EjRKS5_
008076cc  w    F .text	00000024 _ZSt12__miter_baseIPKSt4pairIifEET_S4_
00829958 g     O .rwdata	00000004 _ZN10__cxxabiv119__terminate_handlerE
00807d64  w    F .text	000000a8 _ZNSt6vectorISt4pairIifESaIS1_EED1Ev
00827370  w    O .rodata	00000014 _ZTVSt15underflow_error
0080e3dc  w    F .text	0000000c _ZNKSs17find_first_not_ofERKSsj
00823260 g     F .text	00000050 alt_ic_isr_register
008112a4  w    F .text	00000008 _ZNSt23mersenne_twister_engineIjLj32ELj624ELj397ELj31ELj2567483615ELj11ELj4294967295ELj7ELj2636928640ELj15ELj4022730752ELj18ELj1812433253EE3maxEv
00813478  w    F .text	00000064 _ZNSt7__cxx1112basic_stringIcSt11char_traitsIcESaIcEE7replaceEN9__gnu_cxx17__normal_iteratorIPKcS4_EES9_NS6_IPcS4_EESB_
0080c528 g     F .text	00000134 _ZGTtNSt12domain_errorC1ERKNSt7__cxx1112basic_stringIcSt11char_traitsIcESaIcEEE
0080651c  w    F .text	00000024 _ZN9__gnu_cxx13new_allocatorISt6vectorISt4pairIifESaIS3_EEED2Ev
0080a170 g     F .text	00000058 __cxa_allocate_exception
0080b59c g     F .text	00000070 _ZNSt13runtime_errorC2ERKS_
00811ed0  w    F .text	00000018 _ZNSt7__cxx1112basic_stringIcSt11char_traitsIcESaIcEEC1EjcRKS3_
0080b59c g     F .text	00000070 _ZNSt13runtime_errorC1ERKS_
0082714c  w    O .rodata	0000000c _ZTIN10__cxxabiv120__si_class_type_infoE
0080dd20  w    F .text	0000000c _ZNKSsixEj
0080a36c g     F .text	00000014 _ZSt15set_new_handlerPFvvE
0080c148 g     F .text	00000008 _Z28_txnal_runtime_error_get_msgPv
0080f360  w    F .text	00000048 _ZNSsaSEc
0080be4c g     F .text	00000044 _ZNSt12__cow_stringD2Ev
008299f8 g       *ABS*	00000000 _edata
0080c65c g     F .text	00000030 _ZGTtNSt12domain_errorD1Ev
0080cbec g     F .text	00000030 _ZGTtNSt12length_errorD2Ev
00807f64  w    F .text	00000040 _ZNSt12_Vector_baseISt4pairIifESaIS1_EE12_Vector_implC1Ev
0080e560  w    F .text	00000054 _ZNKSs16find_last_not_ofEcj
0082b8c4 g       *ABS*	00000000 _end
0082995c g     O .rwdata	00000001 _ZSt7nothrow
0080a8b4 g     F .text	00000068 _ZNSt13runtime_errorD0Ev
00807590  w    F .text	0000003c _ZNSaISt4pairIifEEC1ERKS1_
008088dc g     F .text	00000698 __gxx_personality_sj0
0080d1e0 g     F .text	00000120 _ZGTtNSt11range_errorC2EPKc
00821298 g     F .text	00000164 __fputwc
00811abc  w    F .text	00000014 _ZNKSt7__cxx1112basic_stringIcSt11char_traitsIcESaIcEE8_M_limitEjj
00800238 g       *ABS*	00000000 __ram_exceptions_end
00814934  w    F .text	000000a8 _ZNSt7__cxx1112basic_stringIcSt11char_traitsIcESaIcEE12_M_constructIN9__gnu_cxx17__normal_iteratorIPcS4_EEEEvT_SA_St20forward_iterator_tag
0080dc30  w    F .text	00000018 _ZNSsC1EOSs
00825068 g     F .text	000000f4 altera_avalon_jtag_uart_ioctl
0080bfd0 g     F .text	0000013c _Z35_txnal_cow_string_C1_for_exceptionsPvPKcS_
0080c528 g     F .text	00000134 _ZGTtNSt12domain_errorC2ERKNSt7__cxx1112basic_stringIcSt11char_traitsIcESaIcEEE
00812158  w    F .text	00000010 _ZNKSt7__cxx1112basic_stringIcSt11char_traitsIcESaIcEE4rendEv
008129b4  w    F .text	00000034 _ZNSt7__cxx1112basic_stringIcSt11char_traitsIcESaIcEE6assignEjc
0080dca0  w    F .text	00000008 _ZNKSs6cbeginEv
00814ed8  w    F .text	00000010 _ZNSt7__cxx1112basic_stringIcSt11char_traitsIcESaIcEEC2IPKcvEET_S8_RKS3_
00807d14  w    F .text	00000050 _ZSt10_ConstructISt6vectorISt4pairIifESaIS2_EEJEEvPT_DpOT0_
0080bea8 g     F .text	00000028 _ZNSt12__cow_stringaSEOS_
0080610c  w    F .text	00000034 _ZNSaISt6vectorISt4pairIifESaIS1_EEED2Ev
0080a31c g     F .text	00000004 _ZNSt9exceptionD1Ev
00814b7c  w    F .text	00000020 _ZNSt7__cxx1112basic_stringIcSt11char_traitsIcESaIcEEC2ERKS4_
00823338 g     F .text	0000008c alt_ic_irq_disable
00811cdc  w    F .text	00000148 _ZNSt7__cxx1112basic_stringIcSt11char_traitsIcESaIcEE9_M_mutateEjjPKcj
00814f5c  w    F .text	00000010 _ZN9__gnu_cxxeqIPcNSt7__cxx1112basic_stringIcSt11char_traitsIcESaIcEEEEEbRKNS_17__normal_iteratorIT_T0_EESD_
0081f738 g     F .text	00000080 __swrite
00809400 g     F .text	00000070 _Znwj
0080f50c  w    F .text	00000028 _ZNSsaSESt16initializer_listIcE
008120f8  w    F .text	00000010 _ZNSt7__cxx1112basic_stringIcSt11char_traitsIcESaIcEE3endEv
0080734c  w    F .text	00000028 _ZN9__gnu_cxx13new_allocatorISt6vectorISt4pairIifESaIS3_EEEC1ERKS6_
0080764c  w    F .text	0000003c _ZSt8_DestroyIPSt4pairIifEEvT_S3_
008299b4 g     O .rwdata	00000004 __malloc_trim_threshold
00813de4  w    F .text	00000098 _ZNKSt7__cxx1112basic_stringIcSt11char_traitsIcESaIcEE5rfindEPKcjj
00814d60  w    F .text	00000048 _ZNSt7__cxx1112basic_stringIcSt11char_traitsIcESaIcEEC1ERKS4_jRKS3_
00811a5c  w    F .text	00000008 _ZNKSt7__cxx1112basic_stringIcSt11char_traitsIcESaIcEE16_M_get_allocatorEv
00826724 g     F .text	00000034 exit
00821260 g     F .text	00000038 fiprintf
0081245c  w    F .text	00000008 _ZNKSt7__cxx1112basic_stringIcSt11char_traitsIcESaIcEE5frontEv
0081736c g     F .text	00000018 .hidden _Unwind_SetGR
0082175c g     F .text	00000004 _vfiprintf_r
0080fc60  w    F .text	00000004 _ZNSspLERKSs
0081dacc g     F .text	000000a8 _fwalk_reent
0080a54c g     F .text	0000009c _ZNK10__cxxabiv120__si_class_type_info20__do_find_public_srcEiPKvPKNS_17__class_type_infoES2_
00813d7c  w    F .text	00000068 _ZNKSt7__cxx1112basic_stringIcSt11char_traitsIcESaIcEE4findEcj
008272e4  w    O .rodata	00000014 _ZTVSt12domain_error
0081e8e8 g     F .text	0000022c __mdiff
008090f0 g     F .text	000000c8 _ZN10__cxxabiv111__terminateEPFvvE
0080eda8  w    F .text	00000038 _ZNSs5frontEv
00807934  w    F .text	00000024 _ZSt11__addressofISt6vectorISt4pairIifESaIS2_EEEPT_RS5_
00812404  w    F .text	00000028 _ZNKSt7__cxx1112basic_stringIcSt11char_traitsIcESaIcEE2atEj
0080cc60 g     F .text	00000120 _ZGTtNSt12out_of_rangeC2EPKc
00815310 g     F .text	00000074 .hidden __modsi3
00826770 g     F .text	00000194 _memalign_r
00806498  w    F .text	00000038 _ZN9__gnu_cxx17__normal_iteratorIPSt4pairIifESt6vectorIS2_SaIS2_EEEppEv
00811798 g     F .text	00000078 _ZNSt12__sso_stringC2EOS_
0080dd2c  w    F .text	00000028 _ZNKSs2atEj
00809ef0 g     F .text	00000010 _ZNSt9bad_allocD1Ev
008122e0  w    F .text	000000f0 _ZNSt7__cxx1112basic_stringIcSt11char_traitsIcESaIcEE13shrink_to_fitEv
0080e1fc  w    F .text	00000050 _ZNKSs13find_first_ofEPKcj
0080e354  w    F .text	00000088 _ZNKSs17find_first_not_ofEPKcjj
00811b30  w    F .text	00000034 _ZNSt7__cxx1112basic_stringIcSt11char_traitsIcESaIcEE9_S_assignEPcjc
01000000 g       *ABS*	00000000 __alt_data_end
00809c1c g     F .text	00000080 _ZN9__gnu_cxx26__throw_insufficient_spaceEPKcS1_
00800020 g     F .exceptions	00000000 alt_exception
0081d120 g     F .text	00000004 __sfp_lock_release
008134dc  w    F .text	00000064 _ZNSt7__cxx1112basic_stringIcSt11char_traitsIcESaIcEE7replaceEN9__gnu_cxx17__normal_iteratorIPKcS4_EES9_S9_S9_
0080bd64 g     F .text	0000001c _ZNSt12__cow_stringC2EPKcj
008127e4  w    F .text	00000060 _ZNSt7__cxx1112basic_stringIcSt11char_traitsIcESaIcEE8pop_backEv
0082998c  w    O .rwdata	00000004 _ZNSt23mersenne_twister_engineIjLj32ELj624ELj397ELj31ELj2567483615ELj11ELj4294967295ELj7ELj2636928640ELj15ELj4022730752ELj18ELj1812433253EE11tempering_sE
00813a18  w    F .text	0000008c _ZNKSt7__cxx1112basic_stringIcSt11char_traitsIcESaIcEE4copyEPcjj
00827084  w    O .rodata	0000000c _ZTISt13bad_exception
00800000 g       *ABS*	00000000 __alt_mem_sdram
0080d4a8 g     F .text	00000120 _ZGTtNSt14overflow_errorC2EPKc
00813ed8  w    F .text	00000050 _ZNKSt7__cxx1112basic_stringIcSt11char_traitsIcESaIcEE5rfindEcj
0080ceb4 g     F .text	00000030 _ZGTtNSt12out_of_rangeD2Ev
008075cc  w    F .text	00000034 _ZNSaISt4pairIifEED2Ev
00810848  w    F .text	00000074 _ZNSsC1ERKSsjjRKSaIcE
00808144  w    F .text	0000003c _ZNSt12_Vector_baseISt4pairIifESaIS1_EE17_Vector_impl_dataC2Ev
008277c8 g     O .rodata	00000101 _ctype_
00814328  w    F .text	00000054 _ZNKSt7__cxx1112basic_stringIcSt11char_traitsIcESaIcEE16find_last_not_ofEcj
0080ad0c g     F .text	00000068 _ZNSt12domain_errorD0Ev
00822f78 g     F .text	00000054 .hidden __unorddf2
0080de74  w    F .text	00000008 _ZNKSs5c_strEv
00812454  w    F .text	00000008 _ZNSt7__cxx1112basic_stringIcSt11char_traitsIcESaIcEE5frontEv
0080be90 g     F .text	00000018 _ZNSt12__cow_stringC1EOS_
0080dc0c  w    F .text	00000008 _ZNSs10_S_compareEjj
00823110 g     F .text	00000038 _exit
00812b1c  w    F .text	00000044 _ZNSt7__cxx1112basic_stringIcSt11char_traitsIcESaIcEEaSEc
0080e9a0  w    F .text	000000a8 _ZNSs4_Rep9_S_createEjjRKSaIcE
00814ed8  w    F .text	00000010 _ZNSt7__cxx1112basic_stringIcSt11char_traitsIcESaIcEEC1IPKcvEET_S8_RKS3_
00825908 g     F .text	00000134 alt_alarm_start
0080e974  w    F .text	00000024 _ZNSs4_Rep26_M_set_length_and_sharableEj
008097e0 g     F .text	000000a8 _ZSt20__throw_out_of_rangePKc
0080f244  w    F .text	00000060 _ZNSs6insertEN9__gnu_cxx17__normal_iteratorIPcSsEEc
00806ee4  w    F .text	00000178 _ZNSt6vectorISt4pairIifESaIS1_EE20_M_allocate_and_copyIPKS1_EEPS1_jT_S8_
00814e74  w    F .text	00000050 _ZNSt7__cxx1112basic_stringIcSt11char_traitsIcESaIcEEC1EPKcRKS3_
0081733c g     F .text	00000018 .hidden _Unwind_GetGR
008083ac g     F .text	0000000c __cxa_get_globals
0081db94 g     F .text	000001b0 __smakebuf_r
00806880  w    F .text	00000028 _ZNKSt16initializer_listISt4pairIifEE5beginEv
0082993c g     O .rwdata	00000004 _ZN10__cxxabiv120__unexpected_handlerE
00812198  w    F .text	00000010 _ZNKSt7__cxx1112basic_stringIcSt11char_traitsIcESaIcEE5crendEv
0080d03c g     F .text	00000128 _ZGTtNSt13runtime_errorC2ERKNSt7__cxx1112basic_stringIcSt11char_traitsIcESaIcEEE
0080feb8  w    F .text	00000040 _ZNSspLEPKc
0080feb4  w    F .text	00000004 _ZNSs6appendESt16initializer_listIcE
00818ab4 g     F .text	00000098 strlen
0080efe8  w    F .text	00000070 _ZNSs5eraseEjj
00809b74 g     F .text	000000a8 _ZSt23__throw_underflow_errorPKc
008184ac g     F .text	0000005c _init_signal_r
00829960  w    O .rwdata	00000008 _ZTISt9type_info
00826190 g     F .text	00000160 open
0080a368 g     F .text	00000004 _ZGTtNKSt13bad_exceptionD1Ev
00811bfc  w    F .text	000000e0 _ZNSt7__cxx1112basic_stringIcSt11char_traitsIcESaIcEE9_M_assignERKS4_
0080e93c  w    F .text	0000000c _ZNSs4_Rep12_S_empty_repEv
0080e934  w    F .text	00000008 _ZNSs12_Alloc_hiderC1EPcRKSaIcE
0080798c  w    F .text	00000030 _ZNSt16allocator_traitsISaISt4pairIifEEE8max_sizeERKS2_
00811290  w    F .text	00000004 _ZNSt23mersenne_twister_engineIjLj32ELj624ELj397ELj31ELj2567483615ELj11ELj4294967295ELj7ELj2636928640ELj15ELj4022730752ELj18ELj1812433253EEC2Ej
0080f1e4  w    F .text	00000060 _ZNSs6insertEjjc
008224f4 g     F .text	000000e8 .hidden __gedf2
0080f1ac  w    F .text	00000038 _ZNSs6assignEjc
0080ba64 g     F .text	000000ac _ZNSt13runtime_errorC1EPKc
00806e04  w    F .text	00000038 _ZNKSt6vectorISt4pairIifESaIS1_EE8capacityEv
0080b674 g     F .text	00000024 _ZNSt13runtime_errorC1EOS_
00807c70  w    F .text	00000034 _ZNSt12_Vector_baseISt4pairIifESaIS1_EE12_Vector_implD1Ev
00827060  w    O .rodata	0000000d _ZTSSt9exception
0080d5c8 g     F .text	00000134 _ZGTtNSt14overflow_errorC1ERKNSt7__cxx1112basic_stringIcSt11char_traitsIcESaIcEEE
00827334  w    O .rodata	00000014 _ZTVSt13runtime_error
0080bd80 g     F .text	00000064 _ZNSt12__cow_stringC2ERKS_
0082700c  w    O .rodata	0000000f _ZTSSt10bad_typeid
0080dcec  w    F .text	0000000c _ZNKSs6lengthEv
0080c68c g     F .text	00000044 _ZGTtNSt12domain_errorD0Ev
0080dbc4  w    F .text	00000024 _ZNSs13_S_copy_charsEPcS_S_
0080d5c8 g     F .text	00000134 _ZGTtNSt14overflow_errorC2ERKNSt7__cxx1112basic_stringIcSt11char_traitsIcESaIcEEE
0080a6cc g     F .text	00000008 _ZNKSt11logic_error4whatEv
00820fc8 g     F .text	00000014 __assert
00812c18  w    F .text	00000274 _ZNSt7__cxx1112basic_stringIcSt11char_traitsIcESaIcEE10_M_replaceEjjPKcj
0080e478  w    F .text	0000008c _ZNKSs16find_last_not_ofEPKcjj
008108f8  w    F .text	000000b4 _ZNSs12_S_constructIPKcEEPcT_S3_RKSaIcESt20forward_iterator_tag
0080dfc0  w    F .text	00000060 _ZNKSs4findEcj
0080a33c g     F .text	00000008 _ZNSt9exceptionD0Ev
0081f910 g     F .text	00000018 __sprint_r
00825e5c g     F .text	00000034 alt_icache_flush_all
00813aa4  w    F .text	0000018c _ZNSt7__cxx1112basic_stringIcSt11char_traitsIcESaIcEE4swapERS4_
00809f98 g     F .text	00000010 _ZNSt10bad_typeidD1Ev
0080ef90  w    F .text	00000058 _ZNSs2atEj
0081248c  w    F .text	0000009c _ZNSt7__cxx1112basic_stringIcSt11char_traitsIcESaIcEEpLEc
008071e0  w    F .text	0000005c _ZSt4copyIPKSt4pairIifEPS1_ET0_T_S6_S5_
00814704  w    F .text	00000008 _ZNSt7__cxx1112basic_stringIcSt11char_traitsIcESaIcEE12_Alloc_hiderC1EPcOS3_
008173e0 g     F .text	00000008 .hidden _Unwind_GetDataRelBase
00810e38  w    F .text	0000001c _ZNSs7replaceEN9__gnu_cxx17__normal_iteratorIPcSsEES2_PKcS4_
008299d8 g     O .rwdata	00000004 alt_priority_mask
00806bf0  w    F .text	00000048 _ZNSt12_Vector_baseISt6vectorISt4pairIifESaIS2_EESaIS4_EE12_Vector_implC1ERKS5_
0080b56c g     F .text	00000030 _ZNSt11logic_erroraSEOS_
008123e0  w    F .text	0000000c _ZNKSt7__cxx1112basic_stringIcSt11char_traitsIcESaIcEE5emptyEv
008149ec  w    F .text	000000a8 _ZNSt7__cxx1112basic_stringIcSt11char_traitsIcESaIcEE12_M_constructIN9__gnu_cxx17__normal_iteratorIPKcS4_EEEEvT_SB_St20forward_iterator_tag
00808068  w    F .text	00000084 _ZNSt11__copy_moveILb0ELb0ESt26random_access_iterator_tagE8__copy_mIPKSt4pairIifEPS4_EET0_T_S9_S8_
008232b0 g     F .text	00000088 alt_ic_irq_enable
0081470c  w    F .text	0000012c _ZStplIcSt11char_traitsIcESaIcEENSt7__cxx1112basic_stringIT_T0_T1_EEPKS5_RKS8_
0081aef4 g     F .text	0000001c __vfprintf_internal
0080dcf8  w    F .text	0000000c _ZNKSs8max_sizeEv
00807958  w    F .text	00000034 _ZSt8_DestroyISt6vectorISt4pairIifESaIS2_EEEvPT_
00812e8c  w    F .text	00000064 _ZNSt7__cxx1112basic_stringIcSt11char_traitsIcESaIcEE6assignERKS4_jj
0080cf28 g     F .text	00000114 _ZGTtNSt13runtime_errorC2EPKc
0080cee4 g     F .text	00000044 _ZGTtNSt12out_of_rangeD0Ev
008141a4  w    F .text	0000000c _ZNKSt7__cxx1112basic_stringIcSt11char_traitsIcESaIcEE17find_first_not_ofERKS4_j
00821854 g     F .text	0000000c _wctomb_r
0080e438  w    F .text	00000040 _ZNKSs17find_first_not_ofEcj
008245d0 g     F .text	00000138 alt_avalon_dma_prepare
00810724  w    F .text	00000064 _ZNSsC2ERKSsjRKSaIcE
00809f98 g     F .text	00000010 _ZNSt10bad_typeidD2Ev
008226c4 g     F .text	000008b4 .hidden __subdf3
00812a44  w    F .text	00000058 _ZNSt7__cxx1112basic_stringIcSt11char_traitsIcESaIcEE6insertEN9__gnu_cxx17__normal_iteratorIPKcS4_EEc
0080eb74  w    F .text	00000004 _ZNSs4_Rep10_M_destroyERKSaIcE
00811004  w    F .text	0000007c _ZNSt23mersenne_twister_engineIjLj32ELj624ELj397ELj31ELj2567483615ELj11ELj4294967295ELj7ELj2636928640ELj15ELj4022730752ELj18ELj1812433253EE4seedEj
00810ea8  w    F .text	0000005c _ZNSsC2EPKcRKSaIcE
00811bd0  w    F .text	00000024 _ZNSt7__cxx1112basic_stringIcSt11char_traitsIcESaIcEE13_S_copy_charsEPcPKcS7_
008299e0 g     O .rwdata	00000008 alt_dma_rxchan_list
008139c0  w    F .text	0000002c _ZNSt7__cxx1112basic_stringIcSt11char_traitsIcESaIcEEpLESt16initializer_listIcE
0080e998  w    F .text	00000008 _ZNSs4_Rep10_M_refdataEv
0081e19c g     F .text	000000b0 __lo0bits
0080eef4  w    F .text	00000054 _ZNSs6rbeginEv
0080c65c g     F .text	00000030 _ZGTtNSt12domain_errorD2Ev
00812f18  w    F .text	00000028 _ZNSt7__cxx1112basic_stringIcSt11char_traitsIcESaIcEE6assignESt16initializer_listIcE
0080b6c8 g     F .text	000000ac _ZNSt11logic_errorC1EPKc
0082997c  w    O .rwdata	00000004 _ZNSt23mersenne_twister_engineIjLj32ELj624ELj397ELj31ELj2567483615ELj11ELj4294967295ELj7ELj2636928640ELj15ELj4022730752ELj18ELj1812433253EE11tempering_lE
008139ec  w    F .text	0000002c _ZNSt7__cxx1112basic_stringIcSt11char_traitsIcESaIcEE6appendESt16initializer_listIcE
008299f0 g     O .rwdata	00000008 alt_alarm_list
0080cd80 g     F .text	00000134 _ZGTtNSt12out_of_rangeC1ERKNSt7__cxx1112basic_stringIcSt11char_traitsIcESaIcEEE
00825d04 g     F .text	00000064 _do_ctors
00812118  w    F .text	00000018 _ZNSt7__cxx1112basic_stringIcSt11char_traitsIcESaIcEE6rbeginEv
008188dc g     F .text	000000bc __sigtramp
008142cc  w    F .text	0000000c _ZNKSt7__cxx1112basic_stringIcSt11char_traitsIcESaIcEE16find_last_not_ofERKS4_j
00827208  w    O .rodata	0000000c _ZTISt16invalid_argument
0080e1f0  w    F .text	0000000c _ZNKSs13find_first_ofERKSsj
00810634  w    F .text	0000003c _ZNSsC2IN9__gnu_cxx17__normal_iteratorIPcSsEEEET_S4_RKSaIcE
0080bb10 g     F .text	000000bc _ZNSt11range_errorC1EPKc
008217cc g     F .text	00000088 wcrtomb
0081191c  w    F .text	00000010 _ZNKSt7__cxx1112basic_stringIcSt11char_traitsIcESaIcEE11_M_is_localEv
0080dae8  w    F .text	00000020 _ZNKSs11_M_disjunctEPKc
008140b0  w    F .text	0000000c _ZNKSt7__cxx1112basic_stringIcSt11char_traitsIcESaIcEE12find_last_ofERKS4_j
00823008 g     F .text	000000dc close
0080ddf8  w    F .text	0000002c _ZNSs4swapERSs
0080be90 g     F .text	00000018 _ZNSt12__cow_stringC2EOS_
008121b0  w    F .text	00000008 _ZNKSt7__cxx1112basic_stringIcSt11char_traitsIcESaIcEE6lengthEv
008284e8 g     O .rwdata	0000016c __global_locale
00811ea8  w    F .text	00000014 _ZNSt7__cxx1112basic_stringIcSt11char_traitsIcESaIcEEC2Ev
00810e8c  w    F .text	0000001c _ZNSs7replaceEN9__gnu_cxx17__normal_iteratorIPcSsEES2_St16initializer_listIcE
00827090  w    O .rodata	00000020 _ZTSN10__cxxabiv115__forced_unwindE
0080addc g     F .text	000000a8 _ZNSt11logic_errorC1ERKSs
008237b4 g     F .text	00000084 alt_load
00824540 g     F .text	00000048 alt_avalon_dma_tx_ioctl
0080dc20  w    F .text	00000010 _ZNSsC1Ev
0080a688 g     F .text	00000044 _ZNKSt9type_info10__do_catchEPKS_PPvj
0080b774 g     F .text	000000bc _ZNSt12domain_errorC1EPKc
00807778  w    F .text	00000048 _ZSt9__advanceIPKSt4pairIifEiEvRT_T0_St26random_access_iterator_tag
0080b548 g     F .text	00000024 _ZNSt11logic_errorC2EOS_
00811ebc  w    F .text	00000014 _ZNSt7__cxx1112basic_stringIcSt11char_traitsIcESaIcEEC1ERKS3_
008073fc  w    F .text	00000044 _ZNSt16allocator_traitsISaISt6vectorISt4pairIifESaIS2_EEEE10deallocateERS5_PS4_j
00821420 g     F .text	00000078 fputwc
00818720 g     F .text	000000bc raise
0080af3c g     F .text	000000b8 _ZNSt16invalid_argumentC2ERKSs
0081769c g     F .text	00000010 free
0081d124 g     F .text	00000004 __sinit_lock_acquire
0080aff4 g     F .text	000000b8 _ZNSt12length_errorC2ERKSs
008074dc  w    F .text	00000024 _ZSt19__iterator_categoryIPKSt4pairIifEENSt15iterator_traitsIT_E17iterator_categoryERKS5_
0081dea4 g     F .text	0000015c __multadd
0081501c g     F .text	00000038 _ZN10__cxxabiv117__class_type_infoD0Ev
0081de80 g     F .text	00000024 _Bfree
00812180  w    F .text	00000018 _ZNKSt7__cxx1112basic_stringIcSt11char_traitsIcESaIcEE7crbeginEv
008149dc  w    F .text	00000010 _ZNSt7__cxx1112basic_stringIcSt11char_traitsIcESaIcEEC1IN9__gnu_cxx17__normal_iteratorIPcS4_EEvEET_SA_RKS3_
00814a94  w    F .text	00000020 _ZNSt7__cxx1112basic_stringIcSt11char_traitsIcESaIcEEC2ERKS4_RKS3_
0080fd6c  w    F .text	00000104 _ZNSs6appendEPKcj
0080b164 g     F .text	000000a8 _ZNSt13runtime_errorC1ERKSs



Disassembly of section .entry:

00800000 <__reset>:
#if NIOS2_ICACHE_SIZE > 0 && defined(ALT_ALLOW_CODE_AT_RESET) && (!defined(ALT_SIM_OPTIMIZE) || defined(NIOS2_ECC_PRESENT))
    /* Assume the instruction cache size is always a power of two. */
#if NIOS2_ICACHE_SIZE > 0x8000
    movhi r2, %hi(NIOS2_ICACHE_SIZE)
#else
    movui r2, NIOS2_ICACHE_SIZE
  800000:	00820014 	movui	r2,2048
#endif

0:
    initi r2
  800004:	1001483a 	initi	r2
    addi r2, r2, -NIOS2_ICACHE_LINE_SIZE
  800008:	10bff804 	addi	r2,r2,-32
    bgt r2, zero, 0b
  80000c:	00bffd16 	blt	zero,r2,800004 <__reset+0x4>
 * Jump to the _start entry point in the .text section if reset code
 * is allowed or if optimizing for RTL simulation.
 */
#if defined(ALT_ALLOW_CODE_AT_RESET) || defined(ALT_SIM_OPTIMIZE)
    /* Jump to the _start entry point in the .text section. */
    movhi r1, %hi(_start)
  800010:	00402034 	movhi	at,128
    ori r1, r1, %lo(_start)
  800014:	08408e14 	ori	at,at,568
    jmp r1
  800018:	0800683a 	jmp	at
  80001c:	00000000 	call	0 <__alt_mem_sdram-0x800000>

Disassembly of section .exceptions:

00800020 <alt_exception>:

#else /* ALT_EXCEPTION_STACK disabled */
        /* 
         * Reserve space on normal stack for registers about to be pushed.
         */
        addi  sp, sp, -76
  800020:	deffed04 	addi	sp,sp,-76
         * documentation for details).
         *
         * Leave a gap in the stack frame at 4(sp) for the muldiv handler to
         * store zero into.
         */
        stw   ra,  0(sp)
  800024:	dfc00015 	stw	ra,0(sp)
        stw   r1,   8(sp)
  800028:	d8400215 	stw	at,8(sp)
        stw   r2,  12(sp)
  80002c:	d8800315 	stw	r2,12(sp)
        stw   r3,  16(sp)
  800030:	d8c00415 	stw	r3,16(sp)
        stw   r4,  20(sp)
  800034:	d9000515 	stw	r4,20(sp)
        stw   r5,  24(sp)
  800038:	d9400615 	stw	r5,24(sp)
        stw   r6,  28(sp)
  80003c:	d9800715 	stw	r6,28(sp)
        stw   r7,  32(sp)
  800040:	d9c00815 	stw	r7,32(sp)
        rdctl r5, estatus   /* Read early to avoid usage stall */
  800044:	000b307a 	rdctl	r5,estatus
        stw   r8,  36(sp)
  800048:	da000915 	stw	r8,36(sp)
        stw   r9,  40(sp)
  80004c:	da400a15 	stw	r9,40(sp)
        stw   r10, 44(sp)
  800050:	da800b15 	stw	r10,44(sp)
        stw   r11, 48(sp)
  800054:	dac00c15 	stw	r11,48(sp)
        stw   r12, 52(sp)
  800058:	db000d15 	stw	r12,52(sp)
        stw   r13, 56(sp)
  80005c:	db400e15 	stw	r13,56(sp)
        stw   r14, 60(sp)
  800060:	db800f15 	stw	r14,60(sp)
        stw   r15, 64(sp)
  800064:	dbc01015 	stw	r15,64(sp)
        /*
         * ea-4 contains the address of the instruction being executed
         * when the exception occured. For interrupt exceptions, we will
         * will be re-issue the isntruction. Store it in 72(sp)
         */
        stw   r5,  68(sp)  /* estatus */
  800068:	d9401115 	stw	r5,68(sp)
        addi  r15, ea, -4  /* instruction that caused exception */
  80006c:	ebffff04 	addi	r15,ea,-4
        stw   r15,  72(sp)
  800070:	dbc01215 	stw	r15,72(sp)
#else
        /*
         * Test to see if the exception was a software exception or caused 
         * by an external interrupt, and vector accordingly.
         */
        rdctl r4, ipending
  800074:	0009313a 	rdctl	r4,ipending
        andi  r2, r5, 1
  800078:	2880004c 	andi	r2,r5,1
        beq   r2, zero, .Lnot_irq
  80007c:	10000326 	beq	r2,zero,80008c <alt_exception+0x6c>
        beq   r4, zero, .Lnot_irq
  800080:	20000226 	beq	r4,zero,80008c <alt_exception+0x6c>
        /*
         * Now that all necessary registers have been preserved, call 
         * alt_irq_handler() to process the interrupts.
         */

        call alt_irq_handler
  800084:	08000fc0 	call	8000fc <alt_irq_handler>

        .section .exceptions.irqreturn, "xa"

        br    .Lexception_exit
  800088:	00000706 	br	8000a8 <alt_exception+0x88>
         * upon completion, so we write ea (address of instruction *after*
         * the one where the exception occured) into 72(sp). The actual
         * instruction that caused the exception is written in r2, which these
         * handlers will utilize.
         */
        stw ea, 72(sp) /* EA is PC+4 so will skip over instruction causing exception */
  80008c:	df401215 	stw	ea,72(sp)
.Lunknown_16bit:
        addi.n r4, r4, 2 /* Need PC+2 to skip over instruction causing exception */
        stw r4, 72(sp)

#else /* CDX is not Enabled and all instructions are 32bits */
        ldw r2, -4(ea) /* Instruction value that caused exception */
  800090:	e8bfff17 	ldw	r2,-4(ea)
         * debugger is present) or go into an infinite loop since the
         * handling behavior is undefined; in that case we will not return here.
         */

        /* Load exception-causing address as first argument (r4) */
        addi   r4, ea, -4
  800094:	e93fff04 	addi	r4,ea,-4

        /* Call the instruction-exception entry */
        call   alt_instruction_exception_entry
  800098:	08001c40 	call	8001c4 <alt_instruction_exception_entry>
         * instruction
         *
         * Return code was 0: Skip. The instruction after the exception is
         * already stored in 72(sp).
         */
        bne   r2, r0, .Lexception_exit
  80009c:	1000021e 	bne	r2,zero,8000a8 <alt_exception+0x88>

        /*
         * Otherwise, modify 72(sp) to re-issue the instruction that caused the
         * exception.
         */
        addi  r15, ea, -4  /* instruction that caused exception */
  8000a0:	ebffff04 	addi	r15,ea,-4
        stw   r15,  72(sp)
  8000a4:	dbc01215 	stw	r15,72(sp)
        /* 
         * Restore the saved registers, so that all general purpose registers 
         * have been restored to their state at the time the interrupt occured.
         */

        ldw   r5,  68(sp)
  8000a8:	d9401117 	ldw	r5,68(sp)
        ldw   ea,  72(sp)  /* This becomes the PC once eret is executed */
  8000ac:	df401217 	ldw	ea,72(sp)
        ldw   ra,   0(sp)
  8000b0:	dfc00017 	ldw	ra,0(sp)

        wrctl estatus, r5
  8000b4:	2801707a 	wrctl	estatus,r5

        ldw   r1,   8(sp)
  8000b8:	d8400217 	ldw	at,8(sp)
        ldw   r2,  12(sp)
  8000bc:	d8800317 	ldw	r2,12(sp)
        ldw   r3,  16(sp)
  8000c0:	d8c00417 	ldw	r3,16(sp)
        ldw   r4,  20(sp)
  8000c4:	d9000517 	ldw	r4,20(sp)
        ldw   r5,  24(sp)
  8000c8:	d9400617 	ldw	r5,24(sp)
        ldw   r6,  28(sp)
  8000cc:	d9800717 	ldw	r6,28(sp)
        ldw   r7,  32(sp)
  8000d0:	d9c00817 	ldw	r7,32(sp)

#if defined(ALT_EXCEPTION_STACK) && defined(ALT_STACK_CHECK)
        ldw   et, %gprel(alt_exception_old_stack_limit)(gp)
#endif

        ldw   r8,  36(sp)
  8000d4:	da000917 	ldw	r8,36(sp)
        ldw   r9,  40(sp)
  8000d8:	da400a17 	ldw	r9,40(sp)
        ldw   r10, 44(sp)
  8000dc:	da800b17 	ldw	r10,44(sp)
        ldw   r11, 48(sp)
  8000e0:	dac00c17 	ldw	r11,48(sp)
        ldw   r12, 52(sp)
  8000e4:	db000d17 	ldw	r12,52(sp)
        ldw   r13, 56(sp)
  8000e8:	db400e17 	ldw	r13,56(sp)
        ldw   r14, 60(sp)
  8000ec:	db800f17 	ldw	r14,60(sp)
        ldw   r15, 64(sp)
  8000f0:	dbc01017 	ldw	r15,64(sp)
        stw   et, %gprel(alt_stack_limit_value)(gp)
        stw   zero, %gprel(alt_exception_old_stack_limit)(gp)
#endif /* ALT_STACK_CHECK */
        ldw   sp,  76(sp)
#else /* ALT_EXCEPTION_STACK disabled */
        addi  sp, sp, 76
  8000f4:	dec01304 	addi	sp,sp,76

        /*
         * Return to the interrupted instruction.
         */

        eret
  8000f8:	ef80083a 	eret

008000fc <alt_irq_handler>:
 * instruction is present if the macro ALT_CI_INTERRUPT_VECTOR defined.
 */

void alt_irq_handler (void) __attribute__ ((section (".exceptions")));
void alt_irq_handler (void)
{
  8000fc:	defff904 	addi	sp,sp,-28
  800100:	dfc00615 	stw	ra,24(sp)
  800104:	df000515 	stw	fp,20(sp)
  800108:	df000504 	addi	fp,sp,20
  
  /*
   * Notify the operating system that we are at interrupt level.
   */ 
  
  ALT_OS_INT_ENTER();
  80010c:	0001883a 	nop
#ifndef NIOS2_EIC_PRESENT
static ALT_INLINE alt_u32 ALT_ALWAYS_INLINE alt_irq_pending (void)
{
  alt_u32 active;

  NIOS2_READ_IPENDING (active);
  800110:	0005313a 	rdctl	r2,ipending
  800114:	e0bffc15 	stw	r2,-16(fp)

  return active;
  800118:	e0bffc17 	ldw	r2,-16(fp)
   * Consider the case where the high priority interupt is asserted during
   * the interrupt entry sequence for a lower priority interrupt to see why
   * this is the case.
   */

  active = alt_irq_pending ();
  80011c:	e0bfff15 	stw	r2,-4(fp)

  do
  {
    i = 0;
  800120:	e03ffd15 	stw	zero,-12(fp)
    mask = 1;
  800124:	00800044 	movi	r2,1
  800128:	e0bffe15 	stw	r2,-8(fp)
     * called to clear the interrupt condition.
     */

    do
    {
      if (active & mask)
  80012c:	e0ffff17 	ldw	r3,-4(fp)
  800130:	e0bffe17 	ldw	r2,-8(fp)
  800134:	1884703a 	and	r2,r3,r2
  800138:	10001126 	beq	r2,zero,800180 <alt_irq_handler+0x84>
      { 
#ifdef ALT_ENHANCED_INTERRUPT_API_PRESENT
        alt_irq[i].handler(alt_irq[i].context); 
  80013c:	e0bffd17 	ldw	r2,-12(fp)
  800140:	100690fa 	slli	r3,r2,3
  800144:	008020f4 	movhi	r2,131
  800148:	1885883a 	add	r2,r3,r2
  80014c:	10edf117 	ldw	r3,-18492(r2)
  800150:	e0bffd17 	ldw	r2,-12(fp)
  800154:	100890fa 	slli	r4,r2,3
  800158:	008020f4 	movhi	r2,131
  80015c:	2085883a 	add	r2,r4,r2
  800160:	10adf217 	ldw	r2,-18488(r2)
  800164:	1009883a 	mov	r4,r2
  800168:	183ee83a 	callr	r3
#else
        alt_irq[i].handler(alt_irq[i].context, i); 
#endif
        break;
  80016c:	0001883a 	nop
  NIOS2_READ_IPENDING (active);
  800170:	0005313a 	rdctl	r2,ipending
  800174:	e0bffb15 	stw	r2,-20(fp)
  return active;
  800178:	e0bffb17 	ldw	r2,-20(fp)
  80017c:	00000706 	br	80019c <alt_irq_handler+0xa0>
      }
      mask <<= 1;
  800180:	e0bffe17 	ldw	r2,-8(fp)
  800184:	1085883a 	add	r2,r2,r2
  800188:	e0bffe15 	stw	r2,-8(fp)
      i++;
  80018c:	e0bffd17 	ldw	r2,-12(fp)
  800190:	10800044 	addi	r2,r2,1
  800194:	e0bffd15 	stw	r2,-12(fp)
      if (active & mask)
  800198:	003fe406 	br	80012c <alt_irq_handler+0x30>

    } while (1);

    active = alt_irq_pending ();
  80019c:	e0bfff15 	stw	r2,-4(fp)
    
  } while (active);
  8001a0:	e0bfff17 	ldw	r2,-4(fp)
  8001a4:	103fde1e 	bne	r2,zero,800120 <alt_irq_handler+0x24>

  /*
   * Notify the operating system that interrupt processing is complete.
   */ 

  ALT_OS_INT_EXIT();
  8001a8:	0001883a 	nop
}
  8001ac:	0001883a 	nop
  8001b0:	e037883a 	mov	sp,fp
  8001b4:	dfc00117 	ldw	ra,4(sp)
  8001b8:	df000017 	ldw	fp,0(sp)
  8001bc:	dec00204 	addi	sp,sp,8
  8001c0:	f800283a 	ret

008001c4 <alt_instruction_exception_entry>:
 * that handler if it has been registered. Absent a handler, it will
 * break break or hang as discussed below.
 */
int 
alt_instruction_exception_entry (alt_u32 exception_pc)
{
  8001c4:	defffb04 	addi	sp,sp,-20
  8001c8:	dfc00415 	stw	ra,16(sp)
  8001cc:	df000315 	stw	fp,12(sp)
  8001d0:	df000304 	addi	fp,sp,12
  8001d4:	e13ffd15 	stw	r4,-12(fp)
 * NIOS2_EXCEPTION_CAUSE_NOT_PRESENT. Your handling routine should
 * check the validity of the cause argument before proceeding.
 */
#ifdef NIOS2_HAS_EXTRA_EXCEPTION_INFO
  /* Get exception cause & "badaddr" */
  NIOS2_READ_EXCEPTION(cause);
  8001d8:	000531fa 	rdctl	r2,exception
  8001dc:	e0bfff15 	stw	r2,-4(fp)
  cause = ( (cause & NIOS2_EXCEPTION_REG_CAUSE_MASK) >>
  8001e0:	e0bfff17 	ldw	r2,-4(fp)
  8001e4:	1004d0ba 	srli	r2,r2,2
  8001e8:	108007cc 	andi	r2,r2,31
  8001ec:	e0bfff15 	stw	r2,-4(fp)
              NIOS2_EXCEPTION_REG_CAUSE_OFST );

  NIOS2_READ_BADADDR(badaddr);
  8001f0:	0005333a 	rdctl	r2,badaddr
  8001f4:	e0bffe15 	stw	r2,-8(fp)
#else
  cause = NIOS2_EXCEPTION_CAUSE_NOT_PRESENT;
  badaddr = 0;
#endif /* NIOS2_HAS_EXTRA_EXCEPTION_INFO */

  if(alt_instruction_exception_handler) {
  8001f8:	d0a78e17 	ldw	r2,-25032(gp)
  8001fc:	10000726 	beq	r2,zero,80021c <alt_instruction_exception_entry+0x58>
     * Call handler. Its return value indicates whether the exception-causing
     * instruction should be re-issued. The code that called us,
     * alt_eceptions_entry.S, will look at this value and adjust the ea
     * register as necessary
     */
    return alt_instruction_exception_handler(cause, exception_pc, badaddr);
  800200:	d0a78e17 	ldw	r2,-25032(gp)
  800204:	e0ffff17 	ldw	r3,-4(fp)
  800208:	e1bffe17 	ldw	r6,-8(fp)
  80020c:	e17ffd17 	ldw	r5,-12(fp)
  800210:	1809883a 	mov	r4,r3
  800214:	103ee83a 	callr	r2
  800218:	00000206 	br	800224 <alt_instruction_exception_entry+0x60>
   *    (a peripheral which negates its interrupt output before its
   *    interrupt handler has been executed will cause spurious interrupts)
   */
  else {
#ifdef NIOS2_HAS_DEBUG_STUB
    NIOS2_BREAK();
  80021c:	003da03a 	break	0
      ;
#endif /* NIOS2_HAS_DEBUG_STUB */
  }

  /* We should not get here. Remove compiler warning. */
  return NIOS2_EXCEPTION_RETURN_REISSUE_INST;
  800220:	0005883a 	mov	r2,zero
}
  800224:	e037883a 	mov	sp,fp
  800228:	dfc00117 	ldw	ra,4(sp)
  80022c:	df000017 	ldw	fp,0(sp)
  800230:	dec00204 	addi	sp,sp,8
  800234:	f800283a 	ret

Disassembly of section .text:

00800238 <_start>:

    /* Assume the data cache size is always a power of two. */
#if NIOS2_DCACHE_SIZE > 0x8000
    movhi r2, %hi(NIOS2_DCACHE_SIZE)
#else
    movui r2, NIOS2_DCACHE_SIZE
  800238:	00820014 	movui	r2,2048
#endif

0:
    initd 0(r2)
  80023c:	10000033 	initd	0(r2)
#ifdef NIOS2_ECC_PRESENT
    addi r2, r2, -4
#else
    addi r2, r2, -NIOS2_DCACHE_LINE_SIZE
  800240:	10bff804 	addi	r2,r2,-32
#endif
    bgt r2, zero, 0b
  800244:	00bffd16 	blt	zero,r2,80023c <_start+0x4>

    /*
     * Now that the caches are initialized, set up the stack pointer and global pointer.
     * The values provided by the linker are assumed to be correctly aligned.
     */
    movhi sp, %hi(__alt_stack_pointer)
  800248:	06c04034 	movhi	sp,256
    ori sp, sp, %lo(__alt_stack_pointer)
  80024c:	dec00014 	ori	sp,sp,0
    movhi gp, %hi(_gp)
  800250:	068020f4 	movhi	gp,131
    ori gp, gp, %lo(_gp)
  800254:	d6864e14 	ori	gp,gp,6456
 */
#ifndef ALT_SIM_OPTIMIZE
    /* Log that the BSS is about to be cleared. */
    ALT_LOG_PUTS(alt_log_msg_bss)

    movhi r2, %hi(__bss_start)
  800258:	008020b4 	movhi	r2,130
    ori r2, r2, %lo(__bss_start)
  80025c:	10adcd14 	ori	r2,r2,46900

    movhi r3, %hi(__bss_end)
  800260:	00c020b4 	movhi	r3,130
    ori r3, r3, %lo(__bss_end)
  800264:	18ee3114 	ori	r3,r3,47300

    beq r2, r3, 1f
  800268:	10c00326 	beq	r2,r3,800278 <_start+0x40>

0:
    stw zero, (r2)
  80026c:	10000015 	stw	zero,0(r2)
    addi r2, r2, 4
  800270:	10800104 	addi	r2,r2,4
    bltu r2, r3, 0b
  800274:	10fffd36 	bltu	r2,r3,80026c <_start+0x34>
     * section aren't defined until alt_load() has been called).
     */
    mov   et, zero
#endif

    call alt_load
  800278:	08237b40 	call	8237b4 <alt_load>

    /* Log that alt_main is about to be called. */
    ALT_LOG_PUTS(alt_log_msg_alt_main)

    /* Call the C entry point. It should never return. */
    call alt_main
  80027c:	08239540 	call	823954 <alt_main>

00800280 <alt_after_alt_main>:

    /* Wait in infinite loop in case alt_main does return. */
alt_after_alt_main:
    br alt_after_alt_main
  800280:	003fff06 	br	800280 <alt_after_alt_main>

00800284 <_ZN3DMAC1Ejj>:
#include "DMA.h"

DMA::DMA(unsigned int base, unsigned int control)
  800284:	defffb04 	addi	sp,sp,-20
  800288:	dfc00415 	stw	ra,16(sp)
  80028c:	df000315 	stw	fp,12(sp)
  800290:	df000304 	addi	fp,sp,12
  800294:	e13fff15 	stw	r4,-4(fp)
  800298:	e17ffe15 	stw	r5,-8(fp)
  80029c:	e1bffd15 	stw	r6,-12(fp)
:_base{base},
 _control{control}
  8002a0:	e0bfff17 	ldw	r2,-4(fp)
  8002a4:	10000015 	stw	zero,0(r2)
  8002a8:	e0bfff17 	ldw	r2,-4(fp)
  8002ac:	e0fffe17 	ldw	r3,-8(fp)
  8002b0:	10c00115 	stw	r3,4(r2)
  8002b4:	e0bfff17 	ldw	r2,-4(fp)
  8002b8:	e0fffd17 	ldw	r3,-12(fp)
  8002bc:	10c00215 	stw	r3,8(r2)
{
	reset();
  8002c0:	e13fff17 	ldw	r4,-4(fp)
  8002c4:	080052c0 	call	80052c <_ZN3DMA5resetEv>
}
  8002c8:	0001883a 	nop
  8002cc:	e037883a 	mov	sp,fp
  8002d0:	dfc00117 	ldw	ra,4(sp)
  8002d4:	df000017 	ldw	fp,0(sp)
  8002d8:	dec00204 	addi	sp,sp,8
  8002dc:	f800283a 	ret

008002e0 <_ZN3DMA7irq_regEjj>:

int DMA::irq_reg(unsigned int interrupt_controller_id, unsigned int irq)
{
  8002e0:	defffa04 	addi	sp,sp,-24
  8002e4:	dfc00515 	stw	ra,20(sp)
  8002e8:	df000415 	stw	fp,16(sp)
  8002ec:	df000404 	addi	fp,sp,16
  8002f0:	e13fff15 	stw	r4,-4(fp)
  8002f4:	e17ffe15 	stw	r5,-8(fp)
  8002f8:	e1bffd15 	stw	r6,-12(fp)
    if(alt_ic_isr_register(interrupt_controller_id, irq, isr, this, NULL) != 0)
  8002fc:	d8000015 	stw	zero,0(sp)
  800300:	e1ffff17 	ldw	r7,-4(fp)
  800304:	01802034 	movhi	r6,128
  800308:	3180d104 	addi	r6,r6,836
  80030c:	e17ffd17 	ldw	r5,-12(fp)
  800310:	e13ffe17 	ldw	r4,-8(fp)
  800314:	08232600 	call	823260 <alt_ic_isr_register>
  800318:	1004c03a 	cmpne	r2,r2,zero
  80031c:	10803fcc 	andi	r2,r2,255
  800320:	10000226 	beq	r2,zero,80032c <_ZN3DMA7irq_regEjj+0x4c>
    {
       return 1;
  800324:	00800044 	movi	r2,1
  800328:	00000106 	br	800330 <_ZN3DMA7irq_regEjj+0x50>
    }
    return 0;
  80032c:	0005883a 	mov	r2,zero
}
  800330:	e037883a 	mov	sp,fp
  800334:	dfc00117 	ldw	ra,4(sp)
  800338:	df000017 	ldw	fp,0(sp)
  80033c:	dec00204 	addi	sp,sp,8
  800340:	f800283a 	ret

00800344 <_ZN3DMA3isrEPv>:

void DMA::isr(void * context)
{
  800344:	defffc04 	addi	sp,sp,-16
  800348:	dfc00315 	stw	ra,12(sp)
  80034c:	df000215 	stw	fp,8(sp)
  800350:	df000204 	addi	fp,sp,8
  800354:	e13ffe15 	stw	r4,-8(fp)
	DMA* dma = (DMA*)context;
  800358:	e0bffe17 	ldw	r2,-8(fp)
  80035c:	e0bfff15 	stw	r2,-4(fp)
	//printf("DMA COPY COMPLETED\n");
	//dma->check();
	DMA_WR_STATUS(dma->_base, 0);  /*clear the interrupt*/
  800360:	e0bfff17 	ldw	r2,-4(fp)
  800364:	10800117 	ldw	r2,4(r2)
  800368:	0007883a 	mov	r3,zero
  80036c:	10c00035 	stwio	r3,0(r2)
	dma->reset();
  800370:	e13fff17 	ldw	r4,-4(fp)
  800374:	080052c0 	call	80052c <_ZN3DMA5resetEv>
	dma->done++;
  800378:	e0bfff17 	ldw	r2,-4(fp)
  80037c:	10800017 	ldw	r2,0(r2)
  800380:	10c00044 	addi	r3,r2,1
  800384:	e0bfff17 	ldw	r2,-4(fp)
  800388:	10c00015 	stw	r3,0(r2)
}
  80038c:	0001883a 	nop
  800390:	e037883a 	mov	sp,fp
  800394:	dfc00117 	ldw	ra,4(sp)
  800398:	df000017 	ldw	fp,0(sp)
  80039c:	dec00204 	addi	sp,sp,8
  8003a0:	f800283a 	ret

008003a4 <_ZN3DMA4copyEPvS0_i>:

int DMA::copy(void* read_location, void* write_location, int length)
{
  8003a4:	defffb04 	addi	sp,sp,-20
  8003a8:	df000415 	stw	fp,16(sp)
  8003ac:	df000404 	addi	fp,sp,16
  8003b0:	e13fff15 	stw	r4,-4(fp)
  8003b4:	e17ffe15 	stw	r5,-8(fp)
  8003b8:	e1bffd15 	stw	r6,-12(fp)
  8003bc:	e1fffc15 	stw	r7,-16(fp)
	//printf("mem_to_mem_copy initiated\n");

    if((DMA_RD_STATUS(_base) & DMA_BUSY_BIT)==DMA_BUSY_BIT)
  8003c0:	e0bfff17 	ldw	r2,-4(fp)
  8003c4:	10800117 	ldw	r2,4(r2)
  8003c8:	10800037 	ldwio	r2,0(r2)
  8003cc:	1080008c 	andi	r2,r2,2
  8003d0:	108000a0 	cmpeqi	r2,r2,2
  8003d4:	10803fcc 	andi	r2,r2,255
  8003d8:	10000226 	beq	r2,zero,8003e4 <_ZN3DMA4copyEPvS0_i+0x40>
    {
        return 1;
  8003dc:	00800044 	movi	r2,1
  8003e0:	00002306 	br	800470 <_ZN3DMA4copyEPvS0_i+0xcc>
    }

    /*Read buffer address*/
    DMA_WR_READADDR(_base, (unsigned int)read_location);
  8003e4:	e0bfff17 	ldw	r2,-4(fp)
  8003e8:	10800117 	ldw	r2,4(r2)
  8003ec:	10800104 	addi	r2,r2,4
  8003f0:	1007883a 	mov	r3,r2
  8003f4:	e0bffe17 	ldw	r2,-8(fp)
  8003f8:	18800035 	stwio	r2,0(r3)
    /*Write buffer address*/
    DMA_WR_WRITEADDR(_base, (unsigned int)write_location);
  8003fc:	e0bfff17 	ldw	r2,-4(fp)
  800400:	10800117 	ldw	r2,4(r2)
  800404:	10800204 	addi	r2,r2,8
  800408:	1007883a 	mov	r3,r2
  80040c:	e0bffd17 	ldw	r2,-12(fp)
  800410:	18800035 	stwio	r2,0(r3)
    /*Data length size*/
    DMA_WR_LEN(_base, length);
  800414:	e0bfff17 	ldw	r2,-4(fp)
  800418:	10800117 	ldw	r2,4(r2)
  80041c:	10800304 	addi	r2,r2,12
  800420:	1007883a 	mov	r3,r2
  800424:	e0bffc17 	ldw	r2,-16(fp)
  800428:	18800035 	stwio	r2,0(r3)
    /*Control register*/
    DMA_WR_CTRL(_base, _control | DMA_GO_BIT);
  80042c:	e0bfff17 	ldw	r2,-4(fp)
  800430:	10800117 	ldw	r2,4(r2)
  800434:	10800604 	addi	r2,r2,24
  800438:	1007883a 	mov	r3,r2
  80043c:	e0bfff17 	ldw	r2,-4(fp)
  800440:	10800217 	ldw	r2,8(r2)
  800444:	10800214 	ori	r2,r2,8
  800448:	18800035 	stwio	r2,0(r3)

    while(!done);
  80044c:	e0bfff17 	ldw	r2,-4(fp)
  800450:	10800017 	ldw	r2,0(r2)
  800454:	1005003a 	cmpeq	r2,r2,zero
  800458:	10803fcc 	andi	r2,r2,255
  80045c:	10000126 	beq	r2,zero,800464 <_ZN3DMA4copyEPvS0_i+0xc0>
  800460:	003ffa06 	br	80044c <_ZN3DMA4copyEPvS0_i+0xa8>
    done = 0;
  800464:	e0bfff17 	ldw	r2,-4(fp)
  800468:	10000015 	stw	zero,0(r2)

    return 0;
  80046c:	0005883a 	mov	r2,zero
}
  800470:	e037883a 	mov	sp,fp
  800474:	df000017 	ldw	fp,0(sp)
  800478:	dec00104 	addi	sp,sp,4
  80047c:	f800283a 	ret

00800480 <_ZN3DMA5checkEv>:

void DMA::check()
{
  800480:	defffa04 	addi	sp,sp,-24
  800484:	dfc00515 	stw	ra,20(sp)
  800488:	df000415 	stw	fp,16(sp)
  80048c:	df000404 	addi	fp,sp,16
  800490:	e13ffe15 	stw	r4,-8(fp)
	int STATUS_MASK = 0x11111;
  800494:	00800074 	movhi	r2,1
  800498:	10844444 	addi	r2,r2,4369
  80049c:	e0bfff15 	stw	r2,-4(fp)

	printf("readaddress: %x, writeaddress: %x, length: %x, status: %x, control: %x\n",
			IORD_ALTERA_AVALON_DMA_RADDRESS(_base),
  8004a0:	e0bffe17 	ldw	r2,-8(fp)
  8004a4:	10800117 	ldw	r2,4(r2)
  8004a8:	10800104 	addi	r2,r2,4
	printf("readaddress: %x, writeaddress: %x, length: %x, status: %x, control: %x\n",
  8004ac:	11000037 	ldwio	r4,0(r2)
			IORD_ALTERA_AVALON_DMA_WADDRESS(_base),
  8004b0:	e0bffe17 	ldw	r2,-8(fp)
  8004b4:	10800117 	ldw	r2,4(r2)
  8004b8:	10800204 	addi	r2,r2,8
	printf("readaddress: %x, writeaddress: %x, length: %x, status: %x, control: %x\n",
  8004bc:	11400037 	ldwio	r5,0(r2)
			IORD_ALTERA_AVALON_DMA_LENGTH(_base),
  8004c0:	e0bffe17 	ldw	r2,-8(fp)
  8004c4:	10800117 	ldw	r2,4(r2)
  8004c8:	10800304 	addi	r2,r2,12
	printf("readaddress: %x, writeaddress: %x, length: %x, status: %x, control: %x\n",
  8004cc:	11800037 	ldwio	r6,0(r2)
			IORD_ALTERA_AVALON_DMA_STATUS(_base) & STATUS_MASK,
  8004d0:	e0bffe17 	ldw	r2,-8(fp)
  8004d4:	10800117 	ldw	r2,4(r2)
  8004d8:	10c00037 	ldwio	r3,0(r2)
	printf("readaddress: %x, writeaddress: %x, length: %x, status: %x, control: %x\n",
  8004dc:	e0bfff17 	ldw	r2,-4(fp)
  8004e0:	1884703a 	and	r2,r3,r2
			IORD_ALTERA_AVALON_DMA_CONTROL(_base)
  8004e4:	e0fffe17 	ldw	r3,-8(fp)
  8004e8:	18c00117 	ldw	r3,4(r3)
  8004ec:	18c00604 	addi	r3,r3,24
	printf("readaddress: %x, writeaddress: %x, length: %x, status: %x, control: %x\n",
  8004f0:	18c00037 	ldwio	r3,0(r3)
  8004f4:	d8c00115 	stw	r3,4(sp)
  8004f8:	d8800015 	stw	r2,0(sp)
  8004fc:	300f883a 	mov	r7,r6
  800500:	280d883a 	mov	r6,r5
  800504:	200b883a 	mov	r5,r4
  800508:	010020b4 	movhi	r4,130
  80050c:	211b3b04 	addi	r4,r4,27884
  800510:	08183200 	call	818320 <printf>
			);
}
  800514:	0001883a 	nop
  800518:	e037883a 	mov	sp,fp
  80051c:	dfc00117 	ldw	ra,4(sp)
  800520:	df000017 	ldw	fp,0(sp)
  800524:	dec00204 	addi	sp,sp,8
  800528:	f800283a 	ret

0080052c <_ZN3DMA5resetEv>:

void DMA::reset()
{
  80052c:	defffe04 	addi	sp,sp,-8
  800530:	df000115 	stw	fp,4(sp)
  800534:	df000104 	addi	fp,sp,4
  800538:	e13fff15 	stw	r4,-4(fp)
	//printf("DMA RESET\n");
	IOWR_ALTERA_AVALON_DMA_CONTROL(_base, 0x1 << 12);
  80053c:	e0bfff17 	ldw	r2,-4(fp)
  800540:	10800117 	ldw	r2,4(r2)
  800544:	10800604 	addi	r2,r2,24
  800548:	1007883a 	mov	r3,r2
  80054c:	00840004 	movi	r2,4096
  800550:	18800035 	stwio	r2,0(r3)
	IOWR_ALTERA_AVALON_DMA_CONTROL(_base, 0x1 << 12);
  800554:	e0bfff17 	ldw	r2,-4(fp)
  800558:	10800117 	ldw	r2,4(r2)
  80055c:	10800604 	addi	r2,r2,24
  800560:	1007883a 	mov	r3,r2
  800564:	00840004 	movi	r2,4096
  800568:	18800035 	stwio	r2,0(r3)
	//printf("\n");
}
  80056c:	0001883a 	nop
  800570:	e037883a 	mov	sp,fp
  800574:	df000017 	ldw	fp,0(sp)
  800578:	dec00104 	addi	sp,sp,4
  80057c:	f800283a 	ret

00800580 <_Z20write_dijkstra_cachefii>:
#define ALT_CI_DIJKSTRA32_FLOAT_3(n,A,B) __builtin_custom_inii(ALT_CI_DIJKSTRA32_FLOAT_0_N+(n&ALT_CI_DIJKSTRA32_FLOAT_0_N_MASK),(A),(B))
#define ALT_CI_DIJKSTRA32_FLOAT_3_N 0x0
#define ALT_CI_DIJKSTRA32_FLOAT_3_N_MASK ((1<<8)-1)

// macro determines data type of inputs, doing problematic casting
void write_dijkstra_cache(float edge_value, int from_node, int to_node){
  800580:	defffa04 	addi	sp,sp,-24
  800584:	df000515 	stw	fp,20(sp)
  800588:	df000504 	addi	fp,sp,20
  80058c:	e13ffd15 	stw	r4,-12(fp)
  800590:	e17ffc15 	stw	r5,-16(fp)
  800594:	e1bffb15 	stw	r6,-20(fp)
	long dataa = (to_node<<16) + from_node;
  800598:	e0bffb17 	ldw	r2,-20(fp)
  80059c:	1004943a 	slli	r2,r2,16
  8005a0:	e0fffc17 	ldw	r3,-16(fp)
  8005a4:	1885883a 	add	r2,r3,r2
  8005a8:	e0bfff15 	stw	r2,-4(fp)
//	int dummy = 0;
//	memcpy((void*)&dummy, (void*)&edge_value, 4);
	float datab = edge_value;
  8005ac:	e0bffd17 	ldw	r2,-12(fp)
  8005b0:	e0bffe15 	stw	r2,-8(fp)
	ALT_CI_DIJKSTRA32_FLOAT_4(0,dataa,datab);
  8005b4:	e0bfff17 	ldw	r2,-4(fp)
  8005b8:	e0fffe17 	ldw	r3,-8(fp)
  8005bc:	10c5c032 	custom	0,r2,r2,r3
}
  8005c0:	0001883a 	nop
  8005c4:	e037883a 	mov	sp,fp
  8005c8:	df000017 	ldw	fp,0(sp)
  8005cc:	dec00104 	addi	sp,sp,4
  8005d0:	f800283a 	ret

008005d4 <_Z24DMA_write_dijkstra_cachefii>:

//writing single data with DMA
void DMA_write_dijkstra_cache(float edge_value, int from_node, int to_node){
  8005d4:	defff504 	addi	sp,sp,-44
  8005d8:	dfc00a15 	stw	ra,40(sp)
  8005dc:	df000915 	stw	fp,36(sp)
  8005e0:	df000904 	addi	fp,sp,36
  8005e4:	e13ff915 	stw	r4,-28(fp)
  8005e8:	e17ff815 	stw	r5,-32(fp)
  8005ec:	e1bff715 	stw	r6,-36(fp)
	unsigned int ctrl = DMA_IRQ_E_BIT | DMA_LEEN | DMA_WORD;
  8005f0:	00802504 	movi	r2,148
  8005f4:	e0bfff15 	stw	r2,-4(fp)
	  DMA dma(DMA_0_BASE, ctrl);
  8005f8:	e0bffa04 	addi	r2,fp,-24
  8005fc:	e1bfff17 	ldw	r6,-4(fp)
  800600:	01404134 	movhi	r5,260
  800604:	29442004 	addi	r5,r5,4224
  800608:	1009883a 	mov	r4,r2
  80060c:	08002840 	call	800284 <_ZN3DMAC1Ejj>
	  dma.irq_reg(DMA_0_IRQ_INTERRUPT_CONTROLLER_ID, DMA_0_IRQ);
  800610:	e0bffa04 	addi	r2,fp,-24
  800614:	01800184 	movi	r6,6
  800618:	000b883a 	mov	r5,zero
  80061c:	1009883a 	mov	r4,r2
  800620:	08002e00 	call	8002e0 <_ZN3DMA7irq_regEjj>


	float* float_in_ptr = (float*)alt_uncached_malloc(4);
  800624:	01000104 	movi	r4,4
  800628:	0823c840 	call	823c84 <alt_uncached_malloc>
  80062c:	e0bffe15 	stw	r2,-8(fp)
	 *float_in_ptr = edge_value;
  800630:	e0bffe17 	ldw	r2,-8(fp)
  800634:	e0fff917 	ldw	r3,-28(fp)
  800638:	10c00015 	stw	r3,0(r2)
	 unsigned int address = DIJKSTRA32_FLOAT_0_BASE + (to_node << 9) + (from_node << 2);
  80063c:	e0bff717 	ldw	r2,-36(fp)
  800640:	1006927a 	slli	r3,r2,9
  800644:	00804034 	movhi	r2,256
  800648:	1887883a 	add	r3,r3,r2
  80064c:	e0bff817 	ldw	r2,-32(fp)
  800650:	100490ba 	slli	r2,r2,2
  800654:	1885883a 	add	r2,r3,r2
  800658:	e0bffd15 	stw	r2,-12(fp)
	 dma.copy((void*)float_in_ptr, (void*)(address), 4);
  80065c:	e0fffd17 	ldw	r3,-12(fp)
  800660:	e0bffa04 	addi	r2,fp,-24
  800664:	01c00104 	movi	r7,4
  800668:	180d883a 	mov	r6,r3
  80066c:	e17ffe17 	ldw	r5,-8(fp)
  800670:	1009883a 	mov	r4,r2
  800674:	08003a40 	call	8003a4 <_ZN3DMA4copyEPvS0_i>

}
  800678:	0001883a 	nop
  80067c:	e037883a 	mov	sp,fp
  800680:	dfc00117 	ldw	ra,4(sp)
  800684:	df000017 	ldw	fp,0(sp)
  800688:	dec00204 	addi	sp,sp,8
  80068c:	f800283a 	ret

00800690 <_Z19read_dijkstra_cacheii>:

float read_dijkstra_cache(int from_node, int to_node){
  800690:	defffc04 	addi	sp,sp,-16
  800694:	df000315 	stw	fp,12(sp)
  800698:	df000304 	addi	fp,sp,12
  80069c:	e13ffe15 	stw	r4,-8(fp)
  8006a0:	e17ffd15 	stw	r5,-12(fp)
	long dataa = (to_node<<16) + from_node;
  8006a4:	e0bffd17 	ldw	r2,-12(fp)
  8006a8:	1004943a 	slli	r2,r2,16
  8006ac:	e0fffe17 	ldw	r3,-8(fp)
  8006b0:	1885883a 	add	r2,r3,r2
  8006b4:	e0bfff15 	stw	r2,-4(fp)
	return ALT_CI_DIJKSTRA32_FLOAT_1(1,dataa,0);
  8006b8:	e0bfff17 	ldw	r2,-4(fp)
  8006bc:	0007883a 	mov	r3,zero
  8006c0:	10c5c072 	custom	1,r2,r2,r3
  8006c4:	1007883a 	mov	r3,r2
}
  8006c8:	1805883a 	mov	r2,r3
  8006cc:	e037883a 	mov	sp,fp
  8006d0:	df000017 	ldw	fp,0(sp)
  8006d4:	dec00104 	addi	sp,sp,4
  8006d8:	f800283a 	ret

008006dc <_Z16read_path_vectori>:

int read_path_vector(int node){
  8006dc:	defffd04 	addi	sp,sp,-12
  8006e0:	df000215 	stw	fp,8(sp)
  8006e4:	df000204 	addi	fp,sp,8
  8006e8:	e13ffe15 	stw	r4,-8(fp)
	long dataa = node;
  8006ec:	e0bffe17 	ldw	r2,-8(fp)
  8006f0:	e0bfff15 	stw	r2,-4(fp)
	return ALT_CI_DIJKSTRA32_FLOAT_3(3,dataa,0);
  8006f4:	e0bfff17 	ldw	r2,-4(fp)
  8006f8:	0007883a 	mov	r3,zero
  8006fc:	10c5c0f2 	custom	3,r2,r2,r3
}
  800700:	e037883a 	mov	sp,fp
  800704:	df000017 	ldw	fp,0(sp)
  800708:	dec00104 	addi	sp,sp,4
  80070c:	f800283a 	ret

00800710 <_Z12run_dijkstraiii>:

float run_dijkstra (int from_node, int to_node, int number_of_nodes){
  800710:	defffa04 	addi	sp,sp,-24
  800714:	df000515 	stw	fp,20(sp)
  800718:	df000504 	addi	fp,sp,20
  80071c:	e13ffd15 	stw	r4,-12(fp)
  800720:	e17ffc15 	stw	r5,-16(fp)
  800724:	e1bffb15 	stw	r6,-20(fp)
	ALT_CI_DIJKSTRA32_FLOAT_2(2,0,0); //a manual software reset cuz hardware reset buggy
  800728:	0005883a 	mov	r2,zero
  80072c:	0007883a 	mov	r3,zero
  800730:	10c5c0b2 	custom	2,r2,r2,r3
	long dataa = (to_node <<16) + from_node;
  800734:	e0bffc17 	ldw	r2,-16(fp)
  800738:	1004943a 	slli	r2,r2,16
  80073c:	e0fffd17 	ldw	r3,-12(fp)
  800740:	1885883a 	add	r2,r3,r2
  800744:	e0bfff15 	stw	r2,-4(fp)
	long datab = number_of_nodes;
  800748:	e0bffb17 	ldw	r2,-20(fp)
  80074c:	e0bffe15 	stw	r2,-8(fp)
	return ALT_CI_DIJKSTRA32_FLOAT_2(2,dataa,datab);
  800750:	e0bfff17 	ldw	r2,-4(fp)
  800754:	e0fffe17 	ldw	r3,-8(fp)
  800758:	10c5c0b2 	custom	2,r2,r2,r3
  80075c:	1007883a 	mov	r3,r2
}
  800760:	1805883a 	mov	r2,r3
  800764:	e037883a 	mov	sp,fp
  800768:	df000017 	ldw	fp,0(sp)
  80076c:	dec00104 	addi	sp,sp,4
  800770:	f800283a 	ret

00800774 <main>:

int main()
{
  800774:	defff604 	addi	sp,sp,-40
  800778:	dfc00915 	stw	ra,36(sp)
  80077c:	df000815 	stw	fp,32(sp)
  800780:	ddc00715 	stw	r23,28(sp)
  800784:	dd800615 	stw	r22,24(sp)
  800788:	dd400515 	stw	r21,20(sp)
  80078c:	dd000415 	stw	r20,16(sp)
  800790:	dcc00315 	stw	r19,12(sp)
  800794:	dc800215 	stw	r18,8(sp)
  800798:	dc400115 	stw	r17,4(sp)
  80079c:	dc000015 	stw	r16,0(sp)
  8007a0:	df000804 	addi	fp,sp,32
  8007a4:	023fffb4 	movhi	r8,65534
  8007a8:	423cf704 	addi	r8,r8,-3108
  8007ac:	da37883a 	add	sp,sp,r8
  8007b0:	00bfffb4 	movhi	r2,65534
  8007b4:	10bddd04 	addi	r2,r2,-2188
  8007b8:	e0fff804 	addi	r3,fp,-32
  8007bc:	1887883a 	add	r3,r3,r2
  8007c0:	00802074 	movhi	r2,129
  8007c4:	10a23704 	addi	r2,r2,-30500
  8007c8:	18800015 	stw	r2,0(r3)
  8007cc:	00bfffb4 	movhi	r2,65534
  8007d0:	10bdde04 	addi	r2,r2,-2184
  8007d4:	e0fff804 	addi	r3,fp,-32
  8007d8:	1887883a 	add	r3,r3,r2
  8007dc:	008020b4 	movhi	r2,130
  8007e0:	109aad04 	addi	r2,r2,27316
  8007e4:	18800015 	stw	r2,0(r3)
  8007e8:	00bfffb4 	movhi	r2,65534
  8007ec:	10bddf04 	addi	r2,r2,-2180
  8007f0:	e0fff804 	addi	r3,fp,-32
  8007f4:	1887883a 	add	r3,r3,r2
  8007f8:	1f000015 	stw	fp,0(r3)
  8007fc:	00802034 	movhi	r2,128
  800800:	1097e004 	addi	r2,r2,24448
  800804:	18800115 	stw	r2,4(r3)
  800808:	1ec00215 	stw	sp,8(r3)
  80080c:	00bfffb4 	movhi	r2,65534
  800810:	10bdd704 	addi	r2,r2,-2212
  800814:	e0fff804 	addi	r3,fp,-32
  800818:	1885883a 	add	r2,r3,r2
  80081c:	1009883a 	mov	r4,r2
  800820:	08173140 	call	817314 <_Unwind_SjLj_Register>
  printf("Hello from Nios II!\n");
  800824:	00bfffb4 	movhi	r2,65534
  800828:	10bdd804 	addi	r2,r2,-2208
  80082c:	e0fff804 	addi	r3,fp,-32
  800830:	1887883a 	add	r3,r3,r2
  800834:	00bfffc4 	movi	r2,-1
  800838:	18800015 	stw	r2,0(r3)
  80083c:	010020b4 	movhi	r4,130
  800840:	211b4d04 	addi	r4,r4,27956
  800844:	08184440 	call	818444 <puts>
//



 float adjMatrix[128][128];
 for (int row=0; row < 128; row++){
  800848:	e03ff715 	stw	zero,-36(fp)
  80084c:	e0bff717 	ldw	r2,-36(fp)
  800850:	10802008 	cmpgei	r2,r2,128
  800854:	1000241e 	bne	r2,zero,8008e8 <main+0x174>
	  for (int column=0; column < 128; column++){
  800858:	e03ff615 	stw	zero,-40(fp)
  80085c:	e0bff617 	ldw	r2,-40(fp)
  800860:	10802008 	cmpgei	r2,r2,128
  800864:	10001c1e 	bne	r2,zero,8008d8 <main+0x164>
		  if (row == column){
  800868:	e0fff717 	ldw	r3,-36(fp)
  80086c:	e0bff617 	ldw	r2,-40(fp)
  800870:	18800b1e 	bne	r3,r2,8008a0 <main+0x12c>
			  DMA_write_dijkstra_cache(0,row, column);
  800874:	00bfffb4 	movhi	r2,65534
  800878:	10bdd804 	addi	r2,r2,-2208
  80087c:	e0fff804 	addi	r3,fp,-32
  800880:	1887883a 	add	r3,r3,r2
  800884:	00bfffc4 	movi	r2,-1
  800888:	18800015 	stw	r2,0(r3)
  80088c:	e1bff617 	ldw	r6,-40(fp)
  800890:	e17ff717 	ldw	r5,-36(fp)
  800894:	0009883a 	mov	r4,zero
  800898:	08005d40 	call	8005d4 <_Z24DMA_write_dijkstra_cachefii>
  80089c:	00000a06 	br	8008c8 <main+0x154>
		  }
		  else{
			  DMA_write_dijkstra_cache(0x7F800000,row, column);
  8008a0:	00bfffb4 	movhi	r2,65534
  8008a4:	10bdd804 	addi	r2,r2,-2208
  8008a8:	e0fff804 	addi	r3,fp,-32
  8008ac:	1887883a 	add	r3,r3,r2
  8008b0:	00bfffc4 	movi	r2,-1
  8008b4:	18800015 	stw	r2,0(r3)
  8008b8:	e1bff617 	ldw	r6,-40(fp)
  8008bc:	e17ff717 	ldw	r5,-36(fp)
  8008c0:	0113bff4 	movhi	r4,20223
  8008c4:	08005d40 	call	8005d4 <_Z24DMA_write_dijkstra_cachefii>
	  for (int column=0; column < 128; column++){
  8008c8:	e0bff617 	ldw	r2,-40(fp)
  8008cc:	10800044 	addi	r2,r2,1
  8008d0:	e0bff615 	stw	r2,-40(fp)
  8008d4:	003fe106 	br	80085c <main+0xe8>
 for (int row=0; row < 128; row++){
  8008d8:	e0bff717 	ldw	r2,-36(fp)
  8008dc:	10800044 	addi	r2,r2,1
  8008e0:	e0bff715 	stw	r2,-36(fp)
  8008e4:	003fd906 	br	80084c <main+0xd8>
		  }
	  }
  }
 for(int i = 0; i<128;i++){
  8008e8:	e03ff515 	stw	zero,-44(fp)
  8008ec:	e0bff517 	ldw	r2,-44(fp)
  8008f0:	10802008 	cmpgei	r2,r2,128
  8008f4:	1000271e 	bne	r2,zero,800994 <main+0x220>
	 for (int j = 0; j <128 ; j++){
  8008f8:	e03ff415 	stw	zero,-48(fp)
  8008fc:	e0bff417 	ldw	r2,-48(fp)
  800900:	10802008 	cmpgei	r2,r2,128
  800904:	10001f1e 	bne	r2,zero,800984 <main+0x210>
		 	if (i==j){
  800908:	e0fff517 	ldw	r3,-44(fp)
  80090c:	e0bff417 	ldw	r2,-48(fp)
  800910:	18800c1e 	bne	r3,r2,800944 <main+0x1d0>
		 		adjMatrix[i][j] = 0;
  800914:	00bffff4 	movhi	r2,65535
  800918:	10bdf104 	addi	r2,r2,-2108
  80091c:	e0fff804 	addi	r3,fp,-32
  800920:	1889883a 	add	r4,r3,r2
  800924:	e0bff517 	ldw	r2,-44(fp)
  800928:	100691fa 	slli	r3,r2,7
  80092c:	e0bff417 	ldw	r2,-48(fp)
  800930:	1885883a 	add	r2,r3,r2
  800934:	100490ba 	slli	r2,r2,2
  800938:	2085883a 	add	r2,r4,r2
  80093c:	10000015 	stw	zero,0(r2)
  800940:	00000c06 	br	800974 <main+0x200>
		 	}
		 	else{
		 		adjMatrix[i][j] = 0x7F800000;
  800944:	00bffff4 	movhi	r2,65535
  800948:	10bdf104 	addi	r2,r2,-2108
  80094c:	e0fff804 	addi	r3,fp,-32
  800950:	1889883a 	add	r4,r3,r2
  800954:	e0bff517 	ldw	r2,-44(fp)
  800958:	100691fa 	slli	r3,r2,7
  80095c:	e0bff417 	ldw	r2,-48(fp)
  800960:	1885883a 	add	r2,r3,r2
  800964:	100490ba 	slli	r2,r2,2
  800968:	2087883a 	add	r3,r4,r2
  80096c:	0093bff4 	movhi	r2,20223
  800970:	18800015 	stw	r2,0(r3)
	 for (int j = 0; j <128 ; j++){
  800974:	e0bff417 	ldw	r2,-48(fp)
  800978:	10800044 	addi	r2,r2,1
  80097c:	e0bff415 	stw	r2,-48(fp)
  800980:	003fde06 	br	8008fc <main+0x188>
 for(int i = 0; i<128;i++){
  800984:	e0bff517 	ldw	r2,-44(fp)
  800988:	10800044 	addi	r2,r2,1
  80098c:	e0bff515 	stw	r2,-44(fp)
  800990:	003fd606 	br	8008ec <main+0x178>
		 	}

		 }
 }
 adjMatrix[13][6] = 33.532;
  800994:	00bffff4 	movhi	r2,65535
  800998:	10bdf104 	addi	r2,r2,-2108
  80099c:	e0fff804 	addi	r3,fp,-32
  8009a0:	1887883a 	add	r3,r3,r2
  8009a4:	009081b4 	movhi	r2,16902
  8009a8:	10883144 	addi	r2,r2,8389
  8009ac:	18868615 	stw	r2,6680(r3)
  adjMatrix[13][12] = 53.887;
  8009b0:	00bffff4 	movhi	r2,65535
  8009b4:	10bdf104 	addi	r2,r2,-2108
  8009b8:	e0fff804 	addi	r3,fp,-32
  8009bc:	1887883a 	add	r3,r3,r2
  8009c0:	00909634 	movhi	r2,16984
  8009c4:	10a31284 	addi	r2,r2,-29622
  8009c8:	18868c15 	stw	r2,6704(r3)
  adjMatrix[1][11] = 62.337;
  8009cc:	00bffff4 	movhi	r2,65535
  8009d0:	10bdf104 	addi	r2,r2,-2108
  8009d4:	e0fff804 	addi	r3,fp,-32
  8009d8:	1887883a 	add	r3,r3,r2
  8009dc:	00909e74 	movhi	r2,17017
  8009e0:	109645c4 	addi	r2,r2,22807
  8009e4:	18808b15 	stw	r2,556(r3)
  adjMatrix[1][12] = 33.73;
  8009e8:	00bffff4 	movhi	r2,65535
  8009ec:	10bdf104 	addi	r2,r2,-2108
  8009f0:	e0fff804 	addi	r3,fp,-32
  8009f4:	1887883a 	add	r3,r3,r2
  8009f8:	009081f4 	movhi	r2,16903
  8009fc:	10bae144 	addi	r2,r2,-5243
  800a00:	18808c15 	stw	r2,560(r3)
  adjMatrix[2][12] = 19.803;
  800a04:	00bffff4 	movhi	r2,65535
  800a08:	10bdf104 	addi	r2,r2,-2108
  800a0c:	e0fff804 	addi	r3,fp,-32
  800a10:	1887883a 	add	r3,r3,r2
  800a14:	009067b4 	movhi	r2,16798
  800a18:	109b22c4 	addi	r2,r2,27787
  800a1c:	18810c15 	stw	r2,1072(r3)
  adjMatrix[2][1] = 28.225;
  800a20:	00bffff4 	movhi	r2,65535
  800a24:	10bdf104 	addi	r2,r2,-2108
  800a28:	e0fff804 	addi	r3,fp,-32
  800a2c:	1887883a 	add	r3,r3,r2
  800a30:	009078b4 	movhi	r2,16866
  800a34:	10b33344 	addi	r2,r2,-13107
  800a38:	18810115 	stw	r2,1028(r3)
  adjMatrix[3][8] = 10.796;
  800a3c:	00bffff4 	movhi	r2,65535
  800a40:	10bdf104 	addi	r2,r2,-2108
  800a44:	e0fff804 	addi	r3,fp,-32
  800a48:	1887883a 	add	r3,r3,r2
  800a4c:	00904b74 	movhi	r2,16685
  800a50:	10af1a84 	addi	r2,r2,-17302
  800a54:	18818815 	stw	r2,1568(r3)
  adjMatrix[3][5] = 154.774;
  800a58:	00bffff4 	movhi	r2,65535
  800a5c:	10bdf104 	addi	r2,r2,-2108
  800a60:	e0fff804 	addi	r3,fp,-32
  800a64:	1887883a 	add	r3,r3,r2
  800a68:	0090c6f4 	movhi	r2,17179
  800a6c:	10b18944 	addi	r2,r2,-14811
  800a70:	18818515 	stw	r2,1556(r3)
  adjMatrix[3][4] = 122.668;
  800a74:	00bffff4 	movhi	r2,65535
  800a78:	10bdf104 	addi	r2,r2,-2108
  800a7c:	e0fff804 	addi	r3,fp,-32
  800a80:	1887883a 	add	r3,r3,r2
  800a84:	0090bd74 	movhi	r2,17141
  800a88:	10958104 	addi	r2,r2,22020
  800a8c:	18818415 	stw	r2,1552(r3)
  adjMatrix[4][3] = 122.668;
  800a90:	00bffff4 	movhi	r2,65535
  800a94:	10bdf104 	addi	r2,r2,-2108
  800a98:	e0fff804 	addi	r3,fp,-32
  800a9c:	1887883a 	add	r3,r3,r2
  800aa0:	0090bd74 	movhi	r2,17141
  800aa4:	10958104 	addi	r2,r2,22020
  800aa8:	18820315 	stw	r2,2060(r3)
  adjMatrix[5][3] = 154.774;
  800aac:	00bffff4 	movhi	r2,65535
  800ab0:	10bdf104 	addi	r2,r2,-2108
  800ab4:	e0fff804 	addi	r3,fp,-32
  800ab8:	1887883a 	add	r3,r3,r2
  800abc:	0090c6f4 	movhi	r2,17179
  800ac0:	10b18944 	addi	r2,r2,-14811
  800ac4:	18828315 	stw	r2,2572(r3)
  adjMatrix[6][13] = 33.532;
  800ac8:	00bffff4 	movhi	r2,65535
  800acc:	10bdf104 	addi	r2,r2,-2108
  800ad0:	e0fff804 	addi	r3,fp,-32
  800ad4:	1887883a 	add	r3,r3,r2
  800ad8:	009081b4 	movhi	r2,16902
  800adc:	10883144 	addi	r2,r2,8389
  800ae0:	18830d15 	stw	r2,3124(r3)
  adjMatrix[6][10] = 181.396;
  800ae4:	00bffff4 	movhi	r2,65535
  800ae8:	10bdf104 	addi	r2,r2,-2108
  800aec:	e0fff804 	addi	r3,fp,-32
  800af0:	1887883a 	add	r3,r3,r2
  800af4:	0090cd74 	movhi	r2,17205
  800af8:	10995804 	addi	r2,r2,25952
  800afc:	18830a15 	stw	r2,3112(r3)
  adjMatrix[6][9] = 183.129;
  800b00:	00bffff4 	movhi	r2,65535
  800b04:	10bdf104 	addi	r2,r2,-2108
  800b08:	e0fff804 	addi	r3,fp,-32
  800b0c:	1887883a 	add	r3,r3,r2
  800b10:	0090cdf4 	movhi	r2,17207
  800b14:	10884184 	addi	r2,r2,8454
  800b18:	18830915 	stw	r2,3108(r3)
  adjMatrix[7][6] = 143.458;
  800b1c:	00bffff4 	movhi	r2,65535
  800b20:	10bdf104 	addi	r2,r2,-2108
  800b24:	e0fff804 	addi	r3,fp,-32
  800b28:	1887883a 	add	r3,r3,r2
  800b2c:	0090c3f4 	movhi	r2,17167
  800b30:	109d4fc4 	addi	r2,r2,30015
  800b34:	18838615 	stw	r2,3608(r3)
  adjMatrix[8][10] = 41.055;
  800b38:	00bffff4 	movhi	r2,65535
  800b3c:	10bdf104 	addi	r2,r2,-2108
  800b40:	e0fff804 	addi	r3,fp,-32
  800b44:	1887883a 	add	r3,r3,r2
  800b48:	00908934 	movhi	r2,16932
  800b4c:	108e1484 	addi	r2,r2,14418
  800b50:	18840a15 	stw	r2,4136(r3)
  adjMatrix[8][3] = 10.796;
  800b54:	00bffff4 	movhi	r2,65535
  800b58:	10bdf104 	addi	r2,r2,-2108
  800b5c:	e0fff804 	addi	r3,fp,-32
  800b60:	1887883a 	add	r3,r3,r2
  800b64:	00904b74 	movhi	r2,16685
  800b68:	10af1a84 	addi	r2,r2,-17302
  800b6c:	18840315 	stw	r2,4108(r3)
  adjMatrix[8][7] = 143.458;
  800b70:	00bffff4 	movhi	r2,65535
  800b74:	10bdf104 	addi	r2,r2,-2108
  800b78:	e0fff804 	addi	r3,fp,-32
  800b7c:	1887883a 	add	r3,r3,r2
  800b80:	0090c3f4 	movhi	r2,17167
  800b84:	109d4fc4 	addi	r2,r2,30015
  800b88:	18840715 	stw	r2,4124(r3)
  adjMatrix[9][6] = 183.129;
  800b8c:	00bffff4 	movhi	r2,65535
  800b90:	10bdf104 	addi	r2,r2,-2108
  800b94:	e0fff804 	addi	r3,fp,-32
  800b98:	1887883a 	add	r3,r3,r2
  800b9c:	0090cdf4 	movhi	r2,17207
  800ba0:	10884184 	addi	r2,r2,8454
  800ba4:	18848615 	stw	r2,4632(r3)
  adjMatrix[10][8] = 41.055;
  800ba8:	00bffff4 	movhi	r2,65535
  800bac:	10bdf104 	addi	r2,r2,-2108
  800bb0:	e0fff804 	addi	r3,fp,-32
  800bb4:	1887883a 	add	r3,r3,r2
  800bb8:	00908934 	movhi	r2,16932
  800bbc:	108e1484 	addi	r2,r2,14418
  800bc0:	18850815 	stw	r2,5152(r3)
  adjMatrix[10][6] = 181.396;
  800bc4:	00bffff4 	movhi	r2,65535
  800bc8:	10bdf104 	addi	r2,r2,-2108
  800bcc:	e0fff804 	addi	r3,fp,-32
  800bd0:	1887883a 	add	r3,r3,r2
  800bd4:	0090cd74 	movhi	r2,17205
  800bd8:	10995804 	addi	r2,r2,25952
  800bdc:	18850615 	stw	r2,5144(r3)
  adjMatrix[11][1] = 62.337;
  800be0:	00bffff4 	movhi	r2,65535
  800be4:	10bdf104 	addi	r2,r2,-2108
  800be8:	e0fff804 	addi	r3,fp,-32
  800bec:	1887883a 	add	r3,r3,r2
  800bf0:	00909e74 	movhi	r2,17017
  800bf4:	109645c4 	addi	r2,r2,22807
  800bf8:	18858115 	stw	r2,5636(r3)
  adjMatrix[12][13] = 53.887;
  800bfc:	00bffff4 	movhi	r2,65535
  800c00:	10bdf104 	addi	r2,r2,-2108
  800c04:	e0fff804 	addi	r3,fp,-32
  800c08:	1887883a 	add	r3,r3,r2
  800c0c:	00909634 	movhi	r2,16984
  800c10:	10a31284 	addi	r2,r2,-29622
  800c14:	18860d15 	stw	r2,6196(r3)
  adjMatrix[12][2] = 19.803;
  800c18:	00bffff4 	movhi	r2,65535
  800c1c:	10bdf104 	addi	r2,r2,-2108
  800c20:	e0fff804 	addi	r3,fp,-32
  800c24:	1887883a 	add	r3,r3,r2
  800c28:	009067b4 	movhi	r2,16798
  800c2c:	109b22c4 	addi	r2,r2,27787
  800c30:	18860215 	stw	r2,6152(r3)


//
 float* float_in_ptr = (float*)alt_uncached_malloc(65536);
  800c34:	00bfffb4 	movhi	r2,65534
  800c38:	10bdd804 	addi	r2,r2,-2208
  800c3c:	e0fff804 	addi	r3,fp,-32
  800c40:	1887883a 	add	r3,r3,r2
  800c44:	00bfffc4 	movi	r2,-1
  800c48:	18800015 	stw	r2,0(r3)
  800c4c:	01000074 	movhi	r4,1
  800c50:	0823c840 	call	823c84 <alt_uncached_malloc>
  800c54:	e0bfd715 	stw	r2,-164(fp)
 float* temp_pointer = float_in_ptr;
  800c58:	e0bfd717 	ldw	r2,-164(fp)
  800c5c:	e0bff315 	stw	r2,-52(fp)
 for(int from = 0; from<128;from++){
  800c60:	e03ff215 	stw	zero,-56(fp)
  800c64:	e0bff217 	ldw	r2,-56(fp)
  800c68:	10802008 	cmpgei	r2,r2,128
  800c6c:	10001c1e 	bne	r2,zero,800ce0 <main+0x56c>
	 for (int column = 0; column <128 ; column++){
  800c70:	e03ff115 	stw	zero,-60(fp)
  800c74:	e0bff117 	ldw	r2,-60(fp)
  800c78:	10802008 	cmpgei	r2,r2,128
  800c7c:	1000141e 	bne	r2,zero,800cd0 <main+0x55c>
		 	 *temp_pointer = adjMatrix[column][from];
  800c80:	00bffff4 	movhi	r2,65535
  800c84:	10bdf104 	addi	r2,r2,-2108
  800c88:	e0fff804 	addi	r3,fp,-32
  800c8c:	1889883a 	add	r4,r3,r2
  800c90:	e0bff117 	ldw	r2,-60(fp)
  800c94:	100691fa 	slli	r3,r2,7
  800c98:	e0bff217 	ldw	r2,-56(fp)
  800c9c:	1885883a 	add	r2,r3,r2
  800ca0:	100490ba 	slli	r2,r2,2
  800ca4:	2085883a 	add	r2,r4,r2
  800ca8:	10c00017 	ldw	r3,0(r2)
  800cac:	e0bff317 	ldw	r2,-52(fp)
  800cb0:	10c00015 	stw	r3,0(r2)
		 	 temp_pointer++;
  800cb4:	e0bff317 	ldw	r2,-52(fp)
  800cb8:	10800104 	addi	r2,r2,4
  800cbc:	e0bff315 	stw	r2,-52(fp)
	 for (int column = 0; column <128 ; column++){
  800cc0:	e0bff117 	ldw	r2,-60(fp)
  800cc4:	10800044 	addi	r2,r2,1
  800cc8:	e0bff115 	stw	r2,-60(fp)
  800ccc:	003fe906 	br	800c74 <main+0x500>
 for(int from = 0; from<128;from++){
  800cd0:	e0bff217 	ldw	r2,-56(fp)
  800cd4:	10800044 	addi	r2,r2,1
  800cd8:	e0bff215 	stw	r2,-56(fp)
  800cdc:	003fe106 	br	800c64 <main+0x4f0>

		 }
 }


     unsigned int ctrl = DMA_IRQ_E_BIT | DMA_LEEN | DMA_WORD;
  800ce0:	00802504 	movi	r2,148
  800ce4:	e0bfd615 	stw	r2,-168(fp)
  	 DMA dma(DMA_0_BASE, ctrl);
  800ce8:	00bffff4 	movhi	r2,65535
  800cec:	10bdee04 	addi	r2,r2,-2120
  800cf0:	e0fff804 	addi	r3,fp,-32
  800cf4:	1889883a 	add	r4,r3,r2
  800cf8:	e1bfd617 	ldw	r6,-168(fp)
  800cfc:	01404134 	movhi	r5,260
  800d00:	00bfffb4 	movhi	r2,65534
  800d04:	10bdd804 	addi	r2,r2,-2208
  800d08:	e0fff804 	addi	r3,fp,-32
  800d0c:	1887883a 	add	r3,r3,r2
  800d10:	00bfffc4 	movi	r2,-1
  800d14:	18800015 	stw	r2,0(r3)
  800d18:	29442004 	addi	r5,r5,4224
  800d1c:	08002840 	call	800284 <_ZN3DMAC1Ejj>
  	 dma.irq_reg(DMA_0_IRQ_INTERRUPT_CONTROLLER_ID, DMA_0_IRQ);
  800d20:	00bffff4 	movhi	r2,65535
  800d24:	10bdee04 	addi	r2,r2,-2120
  800d28:	e0fff804 	addi	r3,fp,-32
  800d2c:	1885883a 	add	r2,r3,r2
  800d30:	01800184 	movi	r6,6
  800d34:	000b883a 	mov	r5,zero
  800d38:	1009883a 	mov	r4,r2
  800d3c:	08002e00 	call	8002e0 <_ZN3DMA7irq_regEjj>
  	 const unsigned int address = DIJKSTRA32_FLOAT_0_BASE;
  800d40:	00804034 	movhi	r2,256
  800d44:	e0bfd515 	stw	r2,-172(fp)
 	 dma.copy((void*)float_in_ptr, (void*)(address), 65536);
  800d48:	00bffff4 	movhi	r2,65535
  800d4c:	10bdee04 	addi	r2,r2,-2120
  800d50:	e0fff804 	addi	r3,fp,-32
  800d54:	1885883a 	add	r2,r3,r2
  800d58:	01c00074 	movhi	r7,1
  800d5c:	01804034 	movhi	r6,256
  800d60:	e17fd717 	ldw	r5,-164(fp)
  800d64:	1009883a 	mov	r4,r2
  800d68:	08003a40 	call	8003a4 <_ZN3DMA4copyEPvS0_i>

 	 printf("done DMA copying cache\n");
  800d6c:	010020b4 	movhi	r4,130
  800d70:	211b5204 	addi	r4,r4,27976
  800d74:	08184440 	call	818444 <puts>

 	for (int row = 0; row <14; row++){
  800d78:	e03ff015 	stw	zero,-64(fp)
  800d7c:	e0bff017 	ldw	r2,-64(fp)
  800d80:	10800388 	cmpgei	r2,r2,14
  800d84:	1000271e 	bne	r2,zero,800e24 <main+0x6b0>
 	  	  for (int column=0; column <14; column++){
  800d88:	e03fef15 	stw	zero,-68(fp)
  800d8c:	e0bfef17 	ldw	r2,-68(fp)
  800d90:	10800388 	cmpgei	r2,r2,14
  800d94:	1000171e 	bne	r2,zero,800df4 <main+0x680>
 	  		  printf("%f \t", read_dijkstra_cache(row,column));
  800d98:	e17fef17 	ldw	r5,-68(fp)
  800d9c:	e13ff017 	ldw	r4,-64(fp)
  800da0:	08006900 	call	800690 <_Z19read_dijkstra_cacheii>
  800da4:	1007883a 	mov	r3,r2
  800da8:	1809883a 	mov	r4,r3
  800dac:	08170000 	call	817000 <__extendsfdf2>
  800db0:	100d883a 	mov	r6,r2
  800db4:	180f883a 	mov	r7,r3
  800db8:	300b883a 	mov	r5,r6
  800dbc:	380d883a 	mov	r6,r7
  800dc0:	00bfffb4 	movhi	r2,65534
  800dc4:	10bdd804 	addi	r2,r2,-2208
  800dc8:	e0fff804 	addi	r3,fp,-32
  800dcc:	1887883a 	add	r3,r3,r2
  800dd0:	00bfffc4 	movi	r2,-1
  800dd4:	18800015 	stw	r2,0(r3)
  800dd8:	010020b4 	movhi	r4,130
  800ddc:	211b5804 	addi	r4,r4,28000
  800de0:	08183200 	call	818320 <printf>
 	  	  for (int column=0; column <14; column++){
  800de4:	e0bfef17 	ldw	r2,-68(fp)
  800de8:	10800044 	addi	r2,r2,1
  800dec:	e0bfef15 	stw	r2,-68(fp)
  800df0:	003fe606 	br	800d8c <main+0x618>
 	  	  }
 	  	  printf("\n");
  800df4:	00bfffb4 	movhi	r2,65534
  800df8:	10bdd804 	addi	r2,r2,-2208
  800dfc:	e0fff804 	addi	r3,fp,-32
  800e00:	1887883a 	add	r3,r3,r2
  800e04:	00bfffc4 	movi	r2,-1
  800e08:	18800015 	stw	r2,0(r3)
  800e0c:	01000284 	movi	r4,10
  800e10:	08183600 	call	818360 <putchar>
 	for (int row = 0; row <14; row++){
  800e14:	e0bff017 	ldw	r2,-64(fp)
  800e18:	10800044 	addi	r2,r2,1
  800e1c:	e0bff015 	stw	r2,-64(fp)
  800e20:	003fd606 	br	800d7c <main+0x608>
 	  }


	 printf("done reseting cache\n");
  800e24:	00bfffb4 	movhi	r2,65534
  800e28:	10bdd804 	addi	r2,r2,-2208
  800e2c:	e0fff804 	addi	r3,fp,-32
  800e30:	1887883a 	add	r3,r3,r2
  800e34:	00bfffc4 	movi	r2,-1
  800e38:	18800015 	stw	r2,0(r3)
  800e3c:	010020b4 	movhi	r4,130
  800e40:	211b5a04 	addi	r4,r4,28008
  800e44:	08184440 	call	818444 <puts>



	  printf("\nshortest distance: %f \n", run_dijkstra(1,5,14));
  800e48:	01800384 	movi	r6,14
  800e4c:	01400144 	movi	r5,5
  800e50:	01000044 	movi	r4,1
  800e54:	08007100 	call	800710 <_Z12run_dijkstraiii>
  800e58:	1007883a 	mov	r3,r2
  800e5c:	1809883a 	mov	r4,r3
  800e60:	08170000 	call	817000 <__extendsfdf2>
  800e64:	100d883a 	mov	r6,r2
  800e68:	180f883a 	mov	r7,r3
  800e6c:	300b883a 	mov	r5,r6
  800e70:	380d883a 	mov	r6,r7
  800e74:	010020b4 	movhi	r4,130
  800e78:	211b5f04 	addi	r4,r4,28028
  800e7c:	08183200 	call	818320 <printf>
	  for (int i=0; i <14; i++){
  800e80:	e03fee15 	stw	zero,-72(fp)
  800e84:	e0bfee17 	ldw	r2,-72(fp)
  800e88:	10800388 	cmpgei	r2,r2,14
  800e8c:	1000121e 	bne	r2,zero,800ed8 <main+0x764>
	 	 printf("%d: %d \n",i,read_path_vector(i));
  800e90:	e13fee17 	ldw	r4,-72(fp)
  800e94:	08006dc0 	call	8006dc <_Z16read_path_vectori>
  800e98:	1009883a 	mov	r4,r2
  800e9c:	00bfffb4 	movhi	r2,65534
  800ea0:	10bdd804 	addi	r2,r2,-2208
  800ea4:	e0fff804 	addi	r3,fp,-32
  800ea8:	1887883a 	add	r3,r3,r2
  800eac:	00bfffc4 	movi	r2,-1
  800eb0:	18800015 	stw	r2,0(r3)
  800eb4:	200d883a 	mov	r6,r4
  800eb8:	e17fee17 	ldw	r5,-72(fp)
  800ebc:	010020b4 	movhi	r4,130
  800ec0:	211b6604 	addi	r4,r4,28056
  800ec4:	08183200 	call	818320 <printf>
	  for (int i=0; i <14; i++){
  800ec8:	e0bfee17 	ldw	r2,-72(fp)
  800ecc:	10800044 	addi	r2,r2,1
  800ed0:	e0bfee15 	stw	r2,-72(fp)
  800ed4:	003feb06 	br	800e84 <main+0x710>
	  }


	 alt_64 proc_ticks = 0;
  800ed8:	e03fec15 	stw	zero,-80(fp)
  800edc:	e03fed15 	stw	zero,-76(fp)
	 alt_64 cache_ticks = 0;
  800ee0:	e03fea15 	stw	zero,-88(fp)
  800ee4:	e03feb15 	stw	zero,-84(fp)
	 alt_64 total_ticks = 0;
  800ee8:	e03fe815 	stw	zero,-96(fp)
  800eec:	e03fe915 	stw	zero,-92(fp)
	 alt_u64 time1 = 0;
  800ef0:	e03fd315 	stw	zero,-180(fp)
  800ef4:	e03fd415 	stw	zero,-176(fp)
	 alt_u64 time2 = 0;
  800ef8:	e03fd115 	stw	zero,-188(fp)
  800efc:	e03fd215 	stw	zero,-184(fp)
	 alt_u64 time3 = 0;
  800f00:	e03fcf15 	stw	zero,-196(fp)
  800f04:	e03fd015 	stw	zero,-192(fp)

    int iterations = 1000;
  800f08:	0080fa04 	movi	r2,1000
  800f0c:	e0bfce15 	stw	r2,-200(fp)
    // The code that you want to time goes here
    alt_timestamp_start();
  800f10:	00bfffb4 	movhi	r2,65534
  800f14:	10bdd804 	addi	r2,r2,-2208
  800f18:	e0fff804 	addi	r3,fp,-32
  800f1c:	1887883a 	add	r3,r3,r2
  800f20:	00bfffc4 	movi	r2,-1
  800f24:	18800015 	stw	r2,0(r3)
  800f28:	08256a40 	call	8256a4 <alt_timestamp_start>
    time1 = alt_timestamp(); //
  800f2c:	082573c0 	call	82573c <alt_timestamp>
  800f30:	1009883a 	mov	r4,r2
  800f34:	180b883a 	mov	r5,r3
  800f38:	e13fd315 	stw	r4,-180(fp)
  800f3c:	e17fd415 	stw	r5,-176(fp)
    for (int i=0; i<iterations; i++){
  800f40:	e03fe715 	stw	zero,-100(fp)
  800f44:	e0ffe717 	ldw	r3,-100(fp)
  800f48:	e0bfce17 	ldw	r2,-200(fp)
  800f4c:	1880680e 	bge	r3,r2,8010f0 <main+0x97c>
//
      time1 = alt_timestamp();
  800f50:	00bfffb4 	movhi	r2,65534
  800f54:	10bdd804 	addi	r2,r2,-2208
  800f58:	e0fff804 	addi	r3,fp,-32
  800f5c:	1887883a 	add	r3,r3,r2
  800f60:	00bfffc4 	movi	r2,-1
  800f64:	18800015 	stw	r2,0(r3)
  800f68:	082573c0 	call	82573c <alt_timestamp>
  800f6c:	1009883a 	mov	r4,r2
  800f70:	180b883a 	mov	r5,r3
  800f74:	e13fd315 	stw	r4,-180(fp)
  800f78:	e17fd415 	stw	r5,-176(fp)
      dma.copy((void*)float_in_ptr, (void*)(address), 1024);
  800f7c:	00bffff4 	movhi	r2,65535
  800f80:	10bdee04 	addi	r2,r2,-2120
  800f84:	e0fff804 	addi	r3,fp,-32
  800f88:	1885883a 	add	r2,r3,r2
  800f8c:	01c10004 	movi	r7,1024
  800f90:	01804034 	movhi	r6,256
  800f94:	e17fd717 	ldw	r5,-164(fp)
  800f98:	1009883a 	mov	r4,r2
  800f9c:	08003a40 	call	8003a4 <_ZN3DMA4copyEPvS0_i>
  	  time2 = alt_timestamp();
  800fa0:	082573c0 	call	82573c <alt_timestamp>
  800fa4:	1009883a 	mov	r4,r2
  800fa8:	180b883a 	mov	r5,r3
  800fac:	e13fd115 	stw	r4,-188(fp)
  800fb0:	e17fd215 	stw	r5,-184(fp)
  	  run_dijkstra(1,5,14);
  800fb4:	01800384 	movi	r6,14
  800fb8:	01400144 	movi	r5,5
  800fbc:	01000044 	movi	r4,1
  800fc0:	08007100 	call	800710 <_Z12run_dijkstraiii>
  	  time3 = alt_timestamp();
  800fc4:	082573c0 	call	82573c <alt_timestamp>
  800fc8:	1009883a 	mov	r4,r2
  800fcc:	180b883a 	mov	r5,r3
  800fd0:	e13fcf15 	stw	r4,-196(fp)
  800fd4:	e17fd015 	stw	r5,-192(fp)

  	  proc_ticks += (time3 - time2);
  800fd8:	e23fcf17 	ldw	r8,-196(fp)
  800fdc:	e27fd017 	ldw	r9,-192(fp)
  800fe0:	e0bfd117 	ldw	r2,-188(fp)
  800fe4:	e0ffd217 	ldw	r3,-184(fp)
  800fe8:	4089c83a 	sub	r4,r8,r2
  800fec:	410d803a 	cmpltu	r6,r8,r4
  800ff0:	48cbc83a 	sub	r5,r9,r3
  800ff4:	2985c83a 	sub	r2,r5,r6
  800ff8:	100b883a 	mov	r5,r2
  800ffc:	2011883a 	mov	r8,r4
  801000:	2813883a 	mov	r9,r5
  801004:	e0bfec17 	ldw	r2,-80(fp)
  801008:	e0ffed17 	ldw	r3,-76(fp)
  80100c:	4089883a 	add	r4,r8,r2
  801010:	220d803a 	cmpltu	r6,r4,r8
  801014:	48cb883a 	add	r5,r9,r3
  801018:	3145883a 	add	r2,r6,r5
  80101c:	100b883a 	mov	r5,r2
  801020:	2005883a 	mov	r2,r4
  801024:	2807883a 	mov	r3,r5
  801028:	e0bfec15 	stw	r2,-80(fp)
  80102c:	e0ffed15 	stw	r3,-76(fp)
	  cache_ticks += (time2 - time1);
  801030:	e23fd117 	ldw	r8,-188(fp)
  801034:	e27fd217 	ldw	r9,-184(fp)
  801038:	e0bfd317 	ldw	r2,-180(fp)
  80103c:	e0ffd417 	ldw	r3,-176(fp)
  801040:	4089c83a 	sub	r4,r8,r2
  801044:	410d803a 	cmpltu	r6,r8,r4
  801048:	48cbc83a 	sub	r5,r9,r3
  80104c:	2985c83a 	sub	r2,r5,r6
  801050:	100b883a 	mov	r5,r2
  801054:	2011883a 	mov	r8,r4
  801058:	2813883a 	mov	r9,r5
  80105c:	e0bfea17 	ldw	r2,-88(fp)
  801060:	e0ffeb17 	ldw	r3,-84(fp)
  801064:	4089883a 	add	r4,r8,r2
  801068:	220d803a 	cmpltu	r6,r4,r8
  80106c:	48cb883a 	add	r5,r9,r3
  801070:	3145883a 	add	r2,r6,r5
  801074:	100b883a 	mov	r5,r2
  801078:	2005883a 	mov	r2,r4
  80107c:	2807883a 	mov	r3,r5
  801080:	e0bfea15 	stw	r2,-88(fp)
  801084:	e0ffeb15 	stw	r3,-84(fp)
	  total_ticks += (time3 - time1);
  801088:	e23fcf17 	ldw	r8,-196(fp)
  80108c:	e27fd017 	ldw	r9,-192(fp)
  801090:	e0bfd317 	ldw	r2,-180(fp)
  801094:	e0ffd417 	ldw	r3,-176(fp)
  801098:	4089c83a 	sub	r4,r8,r2
  80109c:	410d803a 	cmpltu	r6,r8,r4
  8010a0:	48cbc83a 	sub	r5,r9,r3
  8010a4:	2985c83a 	sub	r2,r5,r6
  8010a8:	100b883a 	mov	r5,r2
  8010ac:	2011883a 	mov	r8,r4
  8010b0:	2813883a 	mov	r9,r5
  8010b4:	e0bfe817 	ldw	r2,-96(fp)
  8010b8:	e0ffe917 	ldw	r3,-92(fp)
  8010bc:	4089883a 	add	r4,r8,r2
  8010c0:	220d803a 	cmpltu	r6,r4,r8
  8010c4:	48cb883a 	add	r5,r9,r3
  8010c8:	3145883a 	add	r2,r6,r5
  8010cc:	100b883a 	mov	r5,r2
  8010d0:	2005883a 	mov	r2,r4
  8010d4:	2807883a 	mov	r3,r5
  8010d8:	e0bfe815 	stw	r2,-96(fp)
  8010dc:	e0ffe915 	stw	r3,-92(fp)
    for (int i=0; i<iterations; i++){
  8010e0:	e0bfe717 	ldw	r2,-100(fp)
  8010e4:	10800044 	addi	r2,r2,1
  8010e8:	e0bfe715 	stw	r2,-100(fp)
  8010ec:	003f9506 	br	800f44 <main+0x7d0>
    }
    int k = alt_timestamp_freq() * 1e-6 * iterations; // ticks per ms
  8010f0:	00bfffb4 	movhi	r2,65534
  8010f4:	10bdd804 	addi	r2,r2,-2208
  8010f8:	e0fff804 	addi	r3,fp,-32
  8010fc:	1887883a 	add	r3,r3,r2
  801100:	00bfffc4 	movi	r2,-1
  801104:	18800015 	stw	r2,0(r3)
  801108:	08258e80 	call	8258e8 <alt_timestamp_freq>
  80110c:	1009883a 	mov	r4,r2
  801110:	0816f700 	call	816f70 <__floatunsidf>
  801114:	1011883a 	mov	r8,r2
  801118:	1813883a 	mov	r9,r3
  80111c:	01a82db4 	movhi	r6,41142
  801120:	31bb6344 	addi	r6,r6,-4723
  801124:	01cfac74 	movhi	r7,16049
  801128:	39f1bdc4 	addi	r7,r7,-14601
  80112c:	4009883a 	mov	r4,r8
  801130:	480b883a 	mov	r5,r9
  801134:	081668c0 	call	81668c <__muldf3>
  801138:	1009883a 	mov	r4,r2
  80113c:	180b883a 	mov	r5,r3
  801140:	00bfffb4 	movhi	r2,65534
  801144:	10bdcd04 	addi	r2,r2,-2252
  801148:	1705883a 	add	r2,r2,fp
  80114c:	11000015 	stw	r4,0(r2)
  801150:	00bfffb4 	movhi	r2,65534
  801154:	10bdce04 	addi	r2,r2,-2248
  801158:	1705883a 	add	r2,r2,fp
  80115c:	11400015 	stw	r5,0(r2)
  801160:	e13fce17 	ldw	r4,-200(fp)
  801164:	0816eb80 	call	816eb8 <__floatsidf>
  801168:	1009883a 	mov	r4,r2
  80116c:	180b883a 	mov	r5,r3
  801170:	200d883a 	mov	r6,r4
  801174:	280f883a 	mov	r7,r5
  801178:	00bfffb4 	movhi	r2,65534
  80117c:	10bdcd04 	addi	r2,r2,-2252
  801180:	1705883a 	add	r2,r2,fp
  801184:	11000017 	ldw	r4,0(r2)
  801188:	00bfffb4 	movhi	r2,65534
  80118c:	10bdce04 	addi	r2,r2,-2248
  801190:	1705883a 	add	r2,r2,fp
  801194:	11400017 	ldw	r5,0(r2)
  801198:	081668c0 	call	81668c <__muldf3>
  80119c:	1009883a 	mov	r4,r2
  8011a0:	180b883a 	mov	r5,r3
  8011a4:	2005883a 	mov	r2,r4
  8011a8:	2807883a 	mov	r3,r5
  8011ac:	1009883a 	mov	r4,r2
  8011b0:	180b883a 	mov	r5,r3
  8011b4:	0816e380 	call	816e38 <__fixdfsi>
  8011b8:	e0bfcd15 	stw	r2,-204(fp)
    double proc_us = (double)proc_ticks / (double)k;
  8011bc:	e13fec17 	ldw	r4,-80(fp)
  8011c0:	e17fed17 	ldw	r5,-76(fp)
  8011c4:	08152200 	call	815220 <__floatdidf>
  8011c8:	013fffb4 	movhi	r4,65534
  8011cc:	213dcd04 	addi	r4,r4,-2252
  8011d0:	2709883a 	add	r4,r4,fp
  8011d4:	20800015 	stw	r2,0(r4)
  8011d8:	00bfffb4 	movhi	r2,65534
  8011dc:	10bdce04 	addi	r2,r2,-2248
  8011e0:	1705883a 	add	r2,r2,fp
  8011e4:	10c00015 	stw	r3,0(r2)
  8011e8:	e13fcd17 	ldw	r4,-204(fp)
  8011ec:	0816eb80 	call	816eb8 <__floatsidf>
  8011f0:	1009883a 	mov	r4,r2
  8011f4:	180b883a 	mov	r5,r3
  8011f8:	200d883a 	mov	r6,r4
  8011fc:	280f883a 	mov	r7,r5
  801200:	00bfffb4 	movhi	r2,65534
  801204:	10bdcd04 	addi	r2,r2,-2252
  801208:	1705883a 	add	r2,r2,fp
  80120c:	11000017 	ldw	r4,0(r2)
  801210:	00bfffb4 	movhi	r2,65534
  801214:	10bdce04 	addi	r2,r2,-2248
  801218:	1705883a 	add	r2,r2,fp
  80121c:	11400017 	ldw	r5,0(r2)
  801220:	0815d5c0 	call	815d5c <__divdf3>
  801224:	1009883a 	mov	r4,r2
  801228:	180b883a 	mov	r5,r3
  80122c:	e13fcb15 	stw	r4,-212(fp)
  801230:	e17fcc15 	stw	r5,-208(fp)
    double total_us = (double)total_ticks / (double)k;
  801234:	e13fe817 	ldw	r4,-96(fp)
  801238:	e17fe917 	ldw	r5,-92(fp)
  80123c:	08152200 	call	815220 <__floatdidf>
  801240:	013fffb4 	movhi	r4,65534
  801244:	213dcd04 	addi	r4,r4,-2252
  801248:	2709883a 	add	r4,r4,fp
  80124c:	20800015 	stw	r2,0(r4)
  801250:	00bfffb4 	movhi	r2,65534
  801254:	10bdce04 	addi	r2,r2,-2248
  801258:	1705883a 	add	r2,r2,fp
  80125c:	10c00015 	stw	r3,0(r2)
  801260:	e13fcd17 	ldw	r4,-204(fp)
  801264:	0816eb80 	call	816eb8 <__floatsidf>
  801268:	1009883a 	mov	r4,r2
  80126c:	180b883a 	mov	r5,r3
  801270:	200d883a 	mov	r6,r4
  801274:	280f883a 	mov	r7,r5
  801278:	00bfffb4 	movhi	r2,65534
  80127c:	10bdcd04 	addi	r2,r2,-2252
  801280:	1705883a 	add	r2,r2,fp
  801284:	11000017 	ldw	r4,0(r2)
  801288:	00bfffb4 	movhi	r2,65534
  80128c:	10bdce04 	addi	r2,r2,-2248
  801290:	1705883a 	add	r2,r2,fp
  801294:	11400017 	ldw	r5,0(r2)
  801298:	0815d5c0 	call	815d5c <__divdf3>
  80129c:	1009883a 	mov	r4,r2
  8012a0:	180b883a 	mov	r5,r3
  8012a4:	e13fc915 	stw	r4,-220(fp)
  8012a8:	e17fca15 	stw	r5,-216(fp)
    double cache_us = (double)cache_ticks / (double)k;
  8012ac:	e13fea17 	ldw	r4,-88(fp)
  8012b0:	e17feb17 	ldw	r5,-84(fp)
  8012b4:	08152200 	call	815220 <__floatdidf>
  8012b8:	013fffb4 	movhi	r4,65534
  8012bc:	213dcd04 	addi	r4,r4,-2252
  8012c0:	2709883a 	add	r4,r4,fp
  8012c4:	20800015 	stw	r2,0(r4)
  8012c8:	00bfffb4 	movhi	r2,65534
  8012cc:	10bdce04 	addi	r2,r2,-2248
  8012d0:	1705883a 	add	r2,r2,fp
  8012d4:	10c00015 	stw	r3,0(r2)
  8012d8:	e13fcd17 	ldw	r4,-204(fp)
  8012dc:	0816eb80 	call	816eb8 <__floatsidf>
  8012e0:	1009883a 	mov	r4,r2
  8012e4:	180b883a 	mov	r5,r3
  8012e8:	200d883a 	mov	r6,r4
  8012ec:	280f883a 	mov	r7,r5
  8012f0:	00bfffb4 	movhi	r2,65534
  8012f4:	10bdcd04 	addi	r2,r2,-2252
  8012f8:	1705883a 	add	r2,r2,fp
  8012fc:	11000017 	ldw	r4,0(r2)
  801300:	00bfffb4 	movhi	r2,65534
  801304:	10bdce04 	addi	r2,r2,-2248
  801308:	1705883a 	add	r2,r2,fp
  80130c:	11400017 	ldw	r5,0(r2)
  801310:	0815d5c0 	call	815d5c <__divdf3>
  801314:	1009883a 	mov	r4,r2
  801318:	180b883a 	mov	r5,r3
  80131c:	e13fc715 	stw	r4,-228(fp)
  801320:	e17fc815 	stw	r5,-224(fp)

    printf("Profiling Results: %i iteration(s), \nproc_ticks: %lld,\tproc_us: %f\tavg: %f\n",
  801324:	e0bfcb17 	ldw	r2,-212(fp)
  801328:	d8800215 	stw	r2,8(sp)
  80132c:	e0bfcc17 	ldw	r2,-208(fp)
  801330:	d8800315 	stw	r2,12(sp)
  801334:	e0bfcb17 	ldw	r2,-212(fp)
  801338:	d8800015 	stw	r2,0(sp)
  80133c:	e0bfcc17 	ldw	r2,-208(fp)
  801340:	d8800115 	stw	r2,4(sp)
  801344:	e1bfec17 	ldw	r6,-80(fp)
  801348:	e1ffed17 	ldw	r7,-76(fp)
  80134c:	e17fce17 	ldw	r5,-200(fp)
  801350:	010020b4 	movhi	r4,130
  801354:	211b6904 	addi	r4,r4,28068
  801358:	08183200 	call	818320 <printf>
  		  iterations, proc_ticks, proc_us, proc_us);
    printf("Profiling Results: %i iteration(s), \ncache_ticks: %lld,\tcache_us: %f\tavg: %f\n",
  80135c:	e0bfc717 	ldw	r2,-228(fp)
  801360:	d8800215 	stw	r2,8(sp)
  801364:	e0bfc817 	ldw	r2,-224(fp)
  801368:	d8800315 	stw	r2,12(sp)
  80136c:	e0bfc717 	ldw	r2,-228(fp)
  801370:	d8800015 	stw	r2,0(sp)
  801374:	e0bfc817 	ldw	r2,-224(fp)
  801378:	d8800115 	stw	r2,4(sp)
  80137c:	e1bfea17 	ldw	r6,-88(fp)
  801380:	e1ffeb17 	ldw	r7,-84(fp)
  801384:	e17fce17 	ldw	r5,-200(fp)
  801388:	010020b4 	movhi	r4,130
  80138c:	211b7c04 	addi	r4,r4,28144
  801390:	08183200 	call	818320 <printf>
      		  iterations, cache_ticks, cache_us, cache_us);
    printf("Profiling Results: %i iteration(s), \ntotal_ticks: %lld,\ttotal_us: %f\tavg: %f\n",
  801394:	e0bfc917 	ldw	r2,-220(fp)
  801398:	d8800215 	stw	r2,8(sp)
  80139c:	e0bfca17 	ldw	r2,-216(fp)
  8013a0:	d8800315 	stw	r2,12(sp)
  8013a4:	e0bfc917 	ldw	r2,-220(fp)
  8013a8:	d8800015 	stw	r2,0(sp)
  8013ac:	e0bfca17 	ldw	r2,-216(fp)
  8013b0:	d8800115 	stw	r2,4(sp)
  8013b4:	e1bfec17 	ldw	r6,-80(fp)
  8013b8:	e1ffed17 	ldw	r7,-76(fp)
  8013bc:	e17fce17 	ldw	r5,-200(fp)
  8013c0:	010020b4 	movhi	r4,130
  8013c4:	211b9004 	addi	r4,r4,28224
  8013c8:	08183200 	call	818320 <printf>
      		  iterations, proc_ticks, total_us, total_us);


  printf("done with 13 node matrix\n");
  8013cc:	010020b4 	movhi	r4,130
  8013d0:	211ba404 	addi	r4,r4,28304
  8013d4:	08184440 	call	818444 <puts>

  vector<vector<pair<int, float>>> adjList(128);
  8013d8:	e0bde9c4 	addi	r2,fp,-2137
  8013dc:	1009883a 	mov	r4,r2
  8013e0:	08060d80 	call	8060d8 <_ZNSaISt6vectorISt4pairIifESaIS1_EEEC1Ev>
  8013e4:	e17de9c4 	addi	r5,fp,-2137
  8013e8:	00bffff4 	movhi	r2,65535
  8013ec:	10bdeb04 	addi	r2,r2,-2132
  8013f0:	e0fff804 	addi	r3,fp,-32
  8013f4:	1889883a 	add	r4,r3,r2
  8013f8:	00bfffb4 	movhi	r2,65534
  8013fc:	10bdd804 	addi	r2,r2,-2208
  801400:	e0fff804 	addi	r3,fp,-32
  801404:	1887883a 	add	r3,r3,r2
  801408:	00800044 	movi	r2,1
  80140c:	18800015 	stw	r2,0(r3)
  801410:	280d883a 	mov	r6,r5
  801414:	01402004 	movi	r5,128
  801418:	08061400 	call	806140 <_ZNSt6vectorIS_ISt4pairIifESaIS1_EESaIS3_EEC1EjRKS4_>
  80141c:	e0bde9c4 	addi	r2,fp,-2137
  801420:	1009883a 	mov	r4,r2
  801424:	080610c0 	call	80610c <_ZNSaISt6vectorISt4pairIifESaIS1_EEED1Ev>
  // Initialise the adjacency list with the edges
  adjList[109] = {{1, 303.519}, {2, 156.256}, {3, 41.309}, {4, 184.269}};
  801428:	00bffff4 	movhi	r2,65535
  80142c:	10bdeb04 	addi	r2,r2,-2132
  801430:	e0fff804 	addi	r3,fp,-32
  801434:	1885883a 	add	r2,r3,r2
  801438:	01401b44 	movi	r5,109
  80143c:	1009883a 	mov	r4,r2
  801440:	080630c0 	call	80630c <_ZNSt6vectorIS_ISt4pairIifESaIS1_EESaIS3_EEixEj>
  801444:	1009883a 	mov	r4,r2
  801448:	00800044 	movi	r2,1
  80144c:	e0bdea15 	stw	r2,-2136(fp)
  801450:	0090e634 	movhi	r2,17304
  801454:	10b09bc4 	addi	r2,r2,-15761
  801458:	e0bdeb15 	stw	r2,-2132(fp)
  80145c:	00800084 	movi	r2,2
  801460:	e0bdec15 	stw	r2,-2128(fp)
  801464:	0090c734 	movhi	r2,17180
  801468:	10906244 	addi	r2,r2,16777
  80146c:	e0bded15 	stw	r2,-2124(fp)
  801470:	008000c4 	movi	r2,3
  801474:	e0bdee15 	stw	r2,-2120(fp)
  801478:	00908974 	movhi	r2,16933
  80147c:	108f1a84 	addi	r2,r2,15466
  801480:	e0bdef15 	stw	r2,-2116(fp)
  801484:	00800104 	movi	r2,4
  801488:	e0bdf015 	stw	r2,-2112(fp)
  80148c:	0090ce34 	movhi	r2,17208
  801490:	10913744 	addi	r2,r2,17629
  801494:	e0bdf115 	stw	r2,-2108(fp)
  801498:	e0bdea04 	addi	r2,fp,-2136
  80149c:	00ffffb4 	movhi	r3,65534
  8014a0:	18fcf304 	addi	r3,r3,-3124
  8014a4:	1f07883a 	add	r3,r3,fp
  8014a8:	18800015 	stw	r2,0(r3)
  8014ac:	00800104 	movi	r2,4
  8014b0:	00ffffb4 	movhi	r3,65534
  8014b4:	18fcf404 	addi	r3,r3,-3120
  8014b8:	1f07883a 	add	r3,r3,fp
  8014bc:	18800015 	stw	r2,0(r3)
  8014c0:	00bfffb4 	movhi	r2,65534
  8014c4:	10bcf304 	addi	r2,r2,-3124
  8014c8:	1705883a 	add	r2,r2,fp
  8014cc:	11400017 	ldw	r5,0(r2)
  8014d0:	00bfffb4 	movhi	r2,65534
  8014d4:	10bcf404 	addi	r2,r2,-3120
  8014d8:	1705883a 	add	r2,r2,fp
  8014dc:	11800017 	ldw	r6,0(r2)
  8014e0:	00bfffb4 	movhi	r2,65534
  8014e4:	10bdd804 	addi	r2,r2,-2208
  8014e8:	e0fff804 	addi	r3,fp,-32
  8014ec:	1887883a 	add	r3,r3,r2
  8014f0:	00800084 	movi	r2,2
  8014f4:	18800015 	stw	r2,0(r3)
  8014f8:	08063500 	call	806350 <_ZNSt6vectorISt4pairIifESaIS1_EEaSESt16initializer_listIS1_E>
  adjList[1] = {{21, 6.469}, {22, 158.274}, {109, 303.519}};
  8014fc:	00bffff4 	movhi	r2,65535
  801500:	10bdeb04 	addi	r2,r2,-2132
  801504:	e0fff804 	addi	r3,fp,-32
  801508:	1885883a 	add	r2,r3,r2
  80150c:	01400044 	movi	r5,1
  801510:	1009883a 	mov	r4,r2
  801514:	080630c0 	call	80630c <_ZNSt6vectorIS_ISt4pairIifESaIS1_EESaIS3_EEixEj>
  801518:	1007883a 	mov	r3,r2
  80151c:	00800544 	movi	r2,21
  801520:	e0bdf215 	stw	r2,-2104(fp)
  801524:	009033f4 	movhi	r2,16591
  801528:	10808304 	addi	r2,r2,524
  80152c:	e0bdf315 	stw	r2,-2100(fp)
  801530:	00800584 	movi	r2,22
  801534:	e0bdf415 	stw	r2,-2096(fp)
  801538:	0090c7b4 	movhi	r2,17182
  80153c:	10918944 	addi	r2,r2,17957
  801540:	e0bdf515 	stw	r2,-2092(fp)
  801544:	00801b44 	movi	r2,109
  801548:	e0bdf615 	stw	r2,-2088(fp)
  80154c:	0090e634 	movhi	r2,17304
  801550:	10b09bc4 	addi	r2,r2,-15761
  801554:	e0bdf715 	stw	r2,-2084(fp)
  801558:	e0bdf204 	addi	r2,fp,-2104
  80155c:	013fffb4 	movhi	r4,65534
  801560:	213cf504 	addi	r4,r4,-3116
  801564:	2709883a 	add	r4,r4,fp
  801568:	20800015 	stw	r2,0(r4)
  80156c:	008000c4 	movi	r2,3
  801570:	013fffb4 	movhi	r4,65534
  801574:	213cf604 	addi	r4,r4,-3112
  801578:	2709883a 	add	r4,r4,fp
  80157c:	20800015 	stw	r2,0(r4)
  801580:	00bfffb4 	movhi	r2,65534
  801584:	10bcf504 	addi	r2,r2,-3116
  801588:	1705883a 	add	r2,r2,fp
  80158c:	11400017 	ldw	r5,0(r2)
  801590:	00bfffb4 	movhi	r2,65534
  801594:	10bcf604 	addi	r2,r2,-3112
  801598:	1705883a 	add	r2,r2,fp
  80159c:	11800017 	ldw	r6,0(r2)
  8015a0:	1809883a 	mov	r4,r3
  8015a4:	08063500 	call	806350 <_ZNSt6vectorISt4pairIifESaIS1_EEaSESt16initializer_listIS1_E>
  adjList[2] = {{33, 8.134}, {30, 18.088}, {109, 156.256}};
  8015a8:	00bffff4 	movhi	r2,65535
  8015ac:	10bdeb04 	addi	r2,r2,-2132
  8015b0:	e0fff804 	addi	r3,fp,-32
  8015b4:	1885883a 	add	r2,r3,r2
  8015b8:	01400084 	movi	r5,2
  8015bc:	1009883a 	mov	r4,r2
  8015c0:	080630c0 	call	80630c <_ZNSt6vectorIS_ISt4pairIifESaIS1_EESaIS3_EEixEj>
  8015c4:	1007883a 	mov	r3,r2
  8015c8:	00800844 	movi	r2,33
  8015cc:	e0bdf815 	stw	r2,-2080(fp)
  8015d0:	009040b4 	movhi	r2,16642
  8015d4:	10893744 	addi	r2,r2,9437
  8015d8:	e0bdf915 	stw	r2,-2076(fp)
  8015dc:	00800784 	movi	r2,30
  8015e0:	e0bdfa15 	stw	r2,-2072(fp)
  8015e4:	00906474 	movhi	r2,16785
  8015e8:	10ad0e44 	addi	r2,r2,-19399
  8015ec:	e0bdfb15 	stw	r2,-2068(fp)
  8015f0:	00801b44 	movi	r2,109
  8015f4:	e0bdfc15 	stw	r2,-2064(fp)
  8015f8:	0090c734 	movhi	r2,17180
  8015fc:	10906244 	addi	r2,r2,16777
  801600:	e0bdfd15 	stw	r2,-2060(fp)
  801604:	e0bdf804 	addi	r2,fp,-2080
  801608:	013fffb4 	movhi	r4,65534
  80160c:	213cf704 	addi	r4,r4,-3108
  801610:	2709883a 	add	r4,r4,fp
  801614:	20800015 	stw	r2,0(r4)
  801618:	008000c4 	movi	r2,3
  80161c:	013fffb4 	movhi	r4,65534
  801620:	213cf804 	addi	r4,r4,-3104
  801624:	2709883a 	add	r4,r4,fp
  801628:	20800015 	stw	r2,0(r4)
  80162c:	00bfffb4 	movhi	r2,65534
  801630:	10bcf704 	addi	r2,r2,-3108
  801634:	1705883a 	add	r2,r2,fp
  801638:	11400017 	ldw	r5,0(r2)
  80163c:	00bfffb4 	movhi	r2,65534
  801640:	10bcf804 	addi	r2,r2,-3104
  801644:	1705883a 	add	r2,r2,fp
  801648:	11800017 	ldw	r6,0(r2)
  80164c:	1809883a 	mov	r4,r3
  801650:	08063500 	call	806350 <_ZNSt6vectorISt4pairIifESaIS1_EEaSESt16initializer_listIS1_E>
  adjList[3] = {{102, 12.853}, {108, 41.046}};
  801654:	00bffff4 	movhi	r2,65535
  801658:	10bdeb04 	addi	r2,r2,-2132
  80165c:	e0fff804 	addi	r3,fp,-32
  801660:	1885883a 	add	r2,r3,r2
  801664:	014000c4 	movi	r5,3
  801668:	1009883a 	mov	r4,r2
  80166c:	080630c0 	call	80630c <_ZNSt6vectorIS_ISt4pairIifESaIS1_EESaIS3_EEixEj>
  801670:	1007883a 	mov	r3,r2
  801674:	00801984 	movi	r2,102
  801678:	e0bdfe15 	stw	r2,-2056(fp)
  80167c:	009053b4 	movhi	r2,16718
  801680:	10a978c4 	addi	r2,r2,-23069
  801684:	e0bdff15 	stw	r2,-2052(fp)
  801688:	00801b04 	movi	r2,108
  80168c:	e0be0015 	stw	r2,-2048(fp)
  801690:	00908934 	movhi	r2,16932
  801694:	108bc6c4 	addi	r2,r2,12059
  801698:	e0be0115 	stw	r2,-2044(fp)
  80169c:	e0bdfe04 	addi	r2,fp,-2056
  8016a0:	013fffb4 	movhi	r4,65534
  8016a4:	213cf904 	addi	r4,r4,-3100
  8016a8:	2709883a 	add	r4,r4,fp
  8016ac:	20800015 	stw	r2,0(r4)
  8016b0:	00800084 	movi	r2,2
  8016b4:	013fffb4 	movhi	r4,65534
  8016b8:	213cfa04 	addi	r4,r4,-3096
  8016bc:	2709883a 	add	r4,r4,fp
  8016c0:	20800015 	stw	r2,0(r4)
  8016c4:	00bfffb4 	movhi	r2,65534
  8016c8:	10bcf904 	addi	r2,r2,-3100
  8016cc:	1705883a 	add	r2,r2,fp
  8016d0:	11400017 	ldw	r5,0(r2)
  8016d4:	00bfffb4 	movhi	r2,65534
  8016d8:	10bcfa04 	addi	r2,r2,-3096
  8016dc:	1705883a 	add	r2,r2,fp
  8016e0:	11800017 	ldw	r6,0(r2)
  8016e4:	1809883a 	mov	r4,r3
  8016e8:	08063500 	call	806350 <_ZNSt6vectorISt4pairIifESaIS1_EEaSESt16initializer_listIS1_E>
  adjList[4] = {{5, 33.532}, {109, 184.269}, {6, 53.887}};
  8016ec:	00bffff4 	movhi	r2,65535
  8016f0:	10bdeb04 	addi	r2,r2,-2132
  8016f4:	e0fff804 	addi	r3,fp,-32
  8016f8:	1885883a 	add	r2,r3,r2
  8016fc:	01400104 	movi	r5,4
  801700:	1009883a 	mov	r4,r2
  801704:	080630c0 	call	80630c <_ZNSt6vectorIS_ISt4pairIifESaIS1_EESaIS3_EEixEj>
  801708:	1007883a 	mov	r3,r2
  80170c:	00800144 	movi	r2,5
  801710:	e0be0215 	stw	r2,-2040(fp)
  801714:	009081b4 	movhi	r2,16902
  801718:	10883144 	addi	r2,r2,8389
  80171c:	e0be0315 	stw	r2,-2036(fp)
  801720:	00801b44 	movi	r2,109
  801724:	e0be0415 	stw	r2,-2032(fp)
  801728:	0090ce34 	movhi	r2,17208
  80172c:	10913744 	addi	r2,r2,17629
  801730:	e0be0515 	stw	r2,-2028(fp)
  801734:	00800184 	movi	r2,6
  801738:	e0be0615 	stw	r2,-2024(fp)
  80173c:	00909634 	movhi	r2,16984
  801740:	10a31284 	addi	r2,r2,-29622
  801744:	e0be0715 	stw	r2,-2020(fp)
  801748:	e0be0204 	addi	r2,fp,-2040
  80174c:	013fffb4 	movhi	r4,65534
  801750:	213cfb04 	addi	r4,r4,-3092
  801754:	2709883a 	add	r4,r4,fp
  801758:	20800015 	stw	r2,0(r4)
  80175c:	010000c4 	movi	r4,3
  801760:	00bfffb4 	movhi	r2,65534
  801764:	10bcfc04 	addi	r2,r2,-3088
  801768:	1705883a 	add	r2,r2,fp
  80176c:	11000015 	stw	r4,0(r2)
  801770:	00bfffb4 	movhi	r2,65534
  801774:	10bcfb04 	addi	r2,r2,-3092
  801778:	1705883a 	add	r2,r2,fp
  80177c:	11400017 	ldw	r5,0(r2)
  801780:	00bfffb4 	movhi	r2,65534
  801784:	10bcfc04 	addi	r2,r2,-3088
  801788:	1705883a 	add	r2,r2,fp
  80178c:	11800017 	ldw	r6,0(r2)
  801790:	1809883a 	mov	r4,r3
  801794:	08063500 	call	806350 <_ZNSt6vectorISt4pairIifESaIS1_EEaSESt16initializer_listIS1_E>
  adjList[5] = {{4, 33.532}, {50, 181.396}, {51, 183.129}};
  801798:	00bffff4 	movhi	r2,65535
  80179c:	10bdeb04 	addi	r2,r2,-2132
  8017a0:	e0fff804 	addi	r3,fp,-32
  8017a4:	1885883a 	add	r2,r3,r2
  8017a8:	01400144 	movi	r5,5
  8017ac:	1009883a 	mov	r4,r2
  8017b0:	080630c0 	call	80630c <_ZNSt6vectorIS_ISt4pairIifESaIS1_EESaIS3_EEixEj>
  8017b4:	1007883a 	mov	r3,r2
  8017b8:	00800104 	movi	r2,4
  8017bc:	e0be0815 	stw	r2,-2016(fp)
  8017c0:	009081b4 	movhi	r2,16902
  8017c4:	10883144 	addi	r2,r2,8389
  8017c8:	e0be0915 	stw	r2,-2012(fp)
  8017cc:	00800c84 	movi	r2,50
  8017d0:	e0be0a15 	stw	r2,-2008(fp)
  8017d4:	0090cd74 	movhi	r2,17205
  8017d8:	10995804 	addi	r2,r2,25952
  8017dc:	e0be0b15 	stw	r2,-2004(fp)
  8017e0:	00800cc4 	movi	r2,51
  8017e4:	e0be0c15 	stw	r2,-2000(fp)
  8017e8:	0090cdf4 	movhi	r2,17207
  8017ec:	10884184 	addi	r2,r2,8454
  8017f0:	e0be0d15 	stw	r2,-1996(fp)
  8017f4:	e0be0804 	addi	r2,fp,-2016
  8017f8:	013fffb4 	movhi	r4,65534
  8017fc:	213cfd04 	addi	r4,r4,-3084
  801800:	2709883a 	add	r4,r4,fp
  801804:	20800015 	stw	r2,0(r4)
  801808:	010000c4 	movi	r4,3
  80180c:	00bfffb4 	movhi	r2,65534
  801810:	10bcfe04 	addi	r2,r2,-3080
  801814:	1705883a 	add	r2,r2,fp
  801818:	11000015 	stw	r4,0(r2)
  80181c:	00bfffb4 	movhi	r2,65534
  801820:	10bcfd04 	addi	r2,r2,-3084
  801824:	1705883a 	add	r2,r2,fp
  801828:	11400017 	ldw	r5,0(r2)
  80182c:	00bfffb4 	movhi	r2,65534
  801830:	10bcfe04 	addi	r2,r2,-3080
  801834:	1705883a 	add	r2,r2,fp
  801838:	11800017 	ldw	r6,0(r2)
  80183c:	1809883a 	mov	r4,r3
  801840:	08063500 	call	806350 <_ZNSt6vectorISt4pairIifESaIS1_EEaSESt16initializer_listIS1_E>
  adjList[6] = {{10, 19.803}, {4, 53.887}};
  801844:	00bffff4 	movhi	r2,65535
  801848:	10bdeb04 	addi	r2,r2,-2132
  80184c:	e0fff804 	addi	r3,fp,-32
  801850:	1885883a 	add	r2,r3,r2
  801854:	01400184 	movi	r5,6
  801858:	1009883a 	mov	r4,r2
  80185c:	080630c0 	call	80630c <_ZNSt6vectorIS_ISt4pairIifESaIS1_EESaIS3_EEixEj>
  801860:	1007883a 	mov	r3,r2
  801864:	00800284 	movi	r2,10
  801868:	e0be0e15 	stw	r2,-1992(fp)
  80186c:	009067b4 	movhi	r2,16798
  801870:	109b22c4 	addi	r2,r2,27787
  801874:	e0be0f15 	stw	r2,-1988(fp)
  801878:	00800104 	movi	r2,4
  80187c:	e0be1015 	stw	r2,-1984(fp)
  801880:	00909634 	movhi	r2,16984
  801884:	10a31284 	addi	r2,r2,-29622
  801888:	e0be1115 	stw	r2,-1980(fp)
  80188c:	e0be0e04 	addi	r2,fp,-1992
  801890:	013fffb4 	movhi	r4,65534
  801894:	213cff04 	addi	r4,r4,-3076
  801898:	2709883a 	add	r4,r4,fp
  80189c:	20800015 	stw	r2,0(r4)
  8018a0:	00800084 	movi	r2,2
  8018a4:	013fffb4 	movhi	r4,65534
  8018a8:	213d0004 	addi	r4,r4,-3072
  8018ac:	2709883a 	add	r4,r4,fp
  8018b0:	20800015 	stw	r2,0(r4)
  8018b4:	00bfffb4 	movhi	r2,65534
  8018b8:	10bcff04 	addi	r2,r2,-3076
  8018bc:	1705883a 	add	r2,r2,fp
  8018c0:	11400017 	ldw	r5,0(r2)
  8018c4:	00bfffb4 	movhi	r2,65534
  8018c8:	10bd0004 	addi	r2,r2,-3072
  8018cc:	1705883a 	add	r2,r2,fp
  8018d0:	11800017 	ldw	r6,0(r2)
  8018d4:	1809883a 	mov	r4,r3
  8018d8:	08063500 	call	806350 <_ZNSt6vectorISt4pairIifESaIS1_EEaSESt16initializer_listIS1_E>
  adjList[7] = {{8, 11.932}, {9, 87.616}, {10, 299.832}};
  8018dc:	00bffff4 	movhi	r2,65535
  8018e0:	10bdeb04 	addi	r2,r2,-2132
  8018e4:	e0fff804 	addi	r3,fp,-32
  8018e8:	1885883a 	add	r2,r3,r2
  8018ec:	014001c4 	movi	r5,7
  8018f0:	1009883a 	mov	r4,r2
  8018f4:	080630c0 	call	80630c <_ZNSt6vectorIS_ISt4pairIifESaIS1_EESaIS3_EEixEj>
  8018f8:	1007883a 	mov	r3,r2
  8018fc:	00800204 	movi	r2,8
  801900:	e0be1215 	stw	r2,-1976(fp)
  801904:	00904ff4 	movhi	r2,16703
  801908:	10ba5e44 	addi	r2,r2,-5767
  80190c:	e0be1315 	stw	r2,-1972(fp)
  801910:	00800244 	movi	r2,9
  801914:	e0be1415 	stw	r2,-1968(fp)
  801918:	0090abf4 	movhi	r2,17071
  80191c:	108ed904 	addi	r2,r2,15204
  801920:	e0be1515 	stw	r2,-1964(fp)
  801924:	00800284 	movi	r2,10
  801928:	e0be1615 	stw	r2,-1960(fp)
  80192c:	0090e5b4 	movhi	r2,17302
  801930:	10ba9fc4 	addi	r2,r2,-5505
  801934:	e0be1715 	stw	r2,-1956(fp)
  801938:	e0be1204 	addi	r2,fp,-1976
  80193c:	013fffb4 	movhi	r4,65534
  801940:	213d0104 	addi	r4,r4,-3068
  801944:	2709883a 	add	r4,r4,fp
  801948:	20800015 	stw	r2,0(r4)
  80194c:	010000c4 	movi	r4,3
  801950:	00bfffb4 	movhi	r2,65534
  801954:	10bd0204 	addi	r2,r2,-3064
  801958:	1705883a 	add	r2,r2,fp
  80195c:	11000015 	stw	r4,0(r2)
  801960:	00bfffb4 	movhi	r2,65534
  801964:	10bd0104 	addi	r2,r2,-3068
  801968:	1705883a 	add	r2,r2,fp
  80196c:	11400017 	ldw	r5,0(r2)
  801970:	00bfffb4 	movhi	r2,65534
  801974:	10bd0204 	addi	r2,r2,-3064
  801978:	1705883a 	add	r2,r2,fp
  80197c:	11800017 	ldw	r6,0(r2)
  801980:	1809883a 	mov	r4,r3
  801984:	08063500 	call	806350 <_ZNSt6vectorISt4pairIifESaIS1_EEaSESt16initializer_listIS1_E>
  adjList[8] = {{7, 11.932}, {72, 45.248}};
  801988:	00bffff4 	movhi	r2,65535
  80198c:	10bdeb04 	addi	r2,r2,-2132
  801990:	e0fff804 	addi	r3,fp,-32
  801994:	1885883a 	add	r2,r3,r2
  801998:	01400204 	movi	r5,8
  80199c:	1009883a 	mov	r4,r2
  8019a0:	080630c0 	call	80630c <_ZNSt6vectorIS_ISt4pairIifESaIS1_EESaIS3_EEixEj>
  8019a4:	1007883a 	mov	r3,r2
  8019a8:	008001c4 	movi	r2,7
  8019ac:	e0be1815 	stw	r2,-1952(fp)
  8019b0:	00904ff4 	movhi	r2,16703
  8019b4:	10ba5e44 	addi	r2,r2,-5767
  8019b8:	e0be1915 	stw	r2,-1948(fp)
  8019bc:	00801204 	movi	r2,72
  8019c0:	e0be1a15 	stw	r2,-1944(fp)
  8019c4:	00908d74 	movhi	r2,16949
  8019c8:	10bf7d04 	addi	r2,r2,-524
  8019cc:	e0be1b15 	stw	r2,-1940(fp)
  8019d0:	e0be1804 	addi	r2,fp,-1952
  8019d4:	013fffb4 	movhi	r4,65534
  8019d8:	213d0304 	addi	r4,r4,-3060
  8019dc:	2709883a 	add	r4,r4,fp
  8019e0:	20800015 	stw	r2,0(r4)
  8019e4:	00800084 	movi	r2,2
  8019e8:	013fffb4 	movhi	r4,65534
  8019ec:	213d0404 	addi	r4,r4,-3056
  8019f0:	2709883a 	add	r4,r4,fp
  8019f4:	20800015 	stw	r2,0(r4)
  8019f8:	00bfffb4 	movhi	r2,65534
  8019fc:	10bd0304 	addi	r2,r2,-3060
  801a00:	1705883a 	add	r2,r2,fp
  801a04:	11400017 	ldw	r5,0(r2)
  801a08:	00bfffb4 	movhi	r2,65534
  801a0c:	10bd0404 	addi	r2,r2,-3056
  801a10:	1705883a 	add	r2,r2,fp
  801a14:	11800017 	ldw	r6,0(r2)
  801a18:	1809883a 	mov	r4,r3
  801a1c:	08063500 	call	806350 <_ZNSt6vectorISt4pairIifESaIS1_EEaSESt16initializer_listIS1_E>
  adjList[9] = {{12, 11.471}, {13, 99.879}};
  801a20:	00bffff4 	movhi	r2,65535
  801a24:	10bdeb04 	addi	r2,r2,-2132
  801a28:	e0fff804 	addi	r3,fp,-32
  801a2c:	1885883a 	add	r2,r3,r2
  801a30:	01400244 	movi	r5,9
  801a34:	1009883a 	mov	r4,r2
  801a38:	080630c0 	call	80630c <_ZNSt6vectorIS_ISt4pairIifESaIS1_EESaIS3_EEixEj>
  801a3c:	1007883a 	mov	r3,r2
  801a40:	00800304 	movi	r2,12
  801a44:	e0be1c15 	stw	r2,-1936(fp)
  801a48:	00904e34 	movhi	r2,16696
  801a4c:	10a24dc4 	addi	r2,r2,-30409
  801a50:	e0be1d15 	stw	r2,-1932(fp)
  801a54:	00800344 	movi	r2,13
  801a58:	e0be1e15 	stw	r2,-1928(fp)
  801a5c:	0090b234 	movhi	r2,17096
  801a60:	10b08304 	addi	r2,r2,-15860
  801a64:	e0be1f15 	stw	r2,-1924(fp)
  801a68:	e0be1c04 	addi	r2,fp,-1936
  801a6c:	013fffb4 	movhi	r4,65534
  801a70:	213d0504 	addi	r4,r4,-3052
  801a74:	2709883a 	add	r4,r4,fp
  801a78:	20800015 	stw	r2,0(r4)
  801a7c:	00800084 	movi	r2,2
  801a80:	013fffb4 	movhi	r4,65534
  801a84:	213d0604 	addi	r4,r4,-3048
  801a88:	2709883a 	add	r4,r4,fp
  801a8c:	20800015 	stw	r2,0(r4)
  801a90:	00bfffb4 	movhi	r2,65534
  801a94:	10bd0504 	addi	r2,r2,-3052
  801a98:	1705883a 	add	r2,r2,fp
  801a9c:	11400017 	ldw	r5,0(r2)
  801aa0:	00bfffb4 	movhi	r2,65534
  801aa4:	10bd0604 	addi	r2,r2,-3048
  801aa8:	1705883a 	add	r2,r2,fp
  801aac:	11800017 	ldw	r6,0(r2)
  801ab0:	1809883a 	mov	r4,r3
  801ab4:	08063500 	call	806350 <_ZNSt6vectorISt4pairIifESaIS1_EEaSESt16initializer_listIS1_E>
  adjList[10] = {{6, 19.803}, {40, 28.225}, {7, 299.832}};
  801ab8:	00bffff4 	movhi	r2,65535
  801abc:	10bdeb04 	addi	r2,r2,-2132
  801ac0:	e0fff804 	addi	r3,fp,-32
  801ac4:	1885883a 	add	r2,r3,r2
  801ac8:	01400284 	movi	r5,10
  801acc:	1009883a 	mov	r4,r2
  801ad0:	080630c0 	call	80630c <_ZNSt6vectorIS_ISt4pairIifESaIS1_EESaIS3_EEixEj>
  801ad4:	1007883a 	mov	r3,r2
  801ad8:	00800184 	movi	r2,6
  801adc:	e0be2015 	stw	r2,-1920(fp)
  801ae0:	009067b4 	movhi	r2,16798
  801ae4:	109b22c4 	addi	r2,r2,27787
  801ae8:	e0be2115 	stw	r2,-1916(fp)
  801aec:	00800a04 	movi	r2,40
  801af0:	e0be2215 	stw	r2,-1912(fp)
  801af4:	009078b4 	movhi	r2,16866
  801af8:	10b33344 	addi	r2,r2,-13107
  801afc:	e0be2315 	stw	r2,-1908(fp)
  801b00:	008001c4 	movi	r2,7
  801b04:	e0be2415 	stw	r2,-1904(fp)
  801b08:	0090e5b4 	movhi	r2,17302
  801b0c:	10ba9fc4 	addi	r2,r2,-5505
  801b10:	e0be2515 	stw	r2,-1900(fp)
  801b14:	e0be2004 	addi	r2,fp,-1920
  801b18:	013fffb4 	movhi	r4,65534
  801b1c:	213d0704 	addi	r4,r4,-3044
  801b20:	2709883a 	add	r4,r4,fp
  801b24:	20800015 	stw	r2,0(r4)
  801b28:	010000c4 	movi	r4,3
  801b2c:	00bfffb4 	movhi	r2,65534
  801b30:	10bd0804 	addi	r2,r2,-3040
  801b34:	1705883a 	add	r2,r2,fp
  801b38:	11000015 	stw	r4,0(r2)
  801b3c:	00bfffb4 	movhi	r2,65534
  801b40:	10bd0704 	addi	r2,r2,-3044
  801b44:	1705883a 	add	r2,r2,fp
  801b48:	11400017 	ldw	r5,0(r2)
  801b4c:	00bfffb4 	movhi	r2,65534
  801b50:	10bd0804 	addi	r2,r2,-3040
  801b54:	1705883a 	add	r2,r2,fp
  801b58:	11800017 	ldw	r6,0(r2)
  801b5c:	1809883a 	mov	r4,r3
  801b60:	08063500 	call	806350 <_ZNSt6vectorISt4pairIifESaIS1_EEaSESt16initializer_listIS1_E>
  adjList[11] = {{12, 99.828}, {13, 12.184}, {14, 50.876}};
  801b64:	00bffff4 	movhi	r2,65535
  801b68:	10bdeb04 	addi	r2,r2,-2132
  801b6c:	e0fff804 	addi	r3,fp,-32
  801b70:	1885883a 	add	r2,r3,r2
  801b74:	014002c4 	movi	r5,11
  801b78:	1009883a 	mov	r4,r2
  801b7c:	080630c0 	call	80630c <_ZNSt6vectorIS_ISt4pairIifESaIS1_EESaIS3_EEixEj>
  801b80:	1007883a 	mov	r3,r2
  801b84:	00800304 	movi	r2,12
  801b88:	e0be2615 	stw	r2,-1896(fp)
  801b8c:	0090b234 	movhi	r2,17096
  801b90:	10a9fc04 	addi	r2,r2,-22544
  801b94:	e0be2715 	stw	r2,-1892(fp)
  801b98:	00800344 	movi	r2,13
  801b9c:	e0be2815 	stw	r2,-1888(fp)
  801ba0:	009050f4 	movhi	r2,16707
  801ba4:	10bc6a84 	addi	r2,r2,-3670
  801ba8:	e0be2915 	stw	r2,-1884(fp)
  801bac:	00800384 	movi	r2,14
  801bb0:	e0be2a15 	stw	r2,-1880(fp)
  801bb4:	00909334 	movhi	r2,16972
  801bb8:	10a04184 	addi	r2,r2,-32506
  801bbc:	e0be2b15 	stw	r2,-1876(fp)
  801bc0:	e0be2604 	addi	r2,fp,-1896
  801bc4:	013fffb4 	movhi	r4,65534
  801bc8:	213d0904 	addi	r4,r4,-3036
  801bcc:	2709883a 	add	r4,r4,fp
  801bd0:	20800015 	stw	r2,0(r4)
  801bd4:	010000c4 	movi	r4,3
  801bd8:	00bfffb4 	movhi	r2,65534
  801bdc:	10bd0a04 	addi	r2,r2,-3032
  801be0:	1705883a 	add	r2,r2,fp
  801be4:	11000015 	stw	r4,0(r2)
  801be8:	00bfffb4 	movhi	r2,65534
  801bec:	10bd0904 	addi	r2,r2,-3036
  801bf0:	1705883a 	add	r2,r2,fp
  801bf4:	11400017 	ldw	r5,0(r2)
  801bf8:	00bfffb4 	movhi	r2,65534
  801bfc:	10bd0a04 	addi	r2,r2,-3032
  801c00:	1705883a 	add	r2,r2,fp
  801c04:	11800017 	ldw	r6,0(r2)
  801c08:	1809883a 	mov	r4,r3
  801c0c:	08063500 	call	806350 <_ZNSt6vectorISt4pairIifESaIS1_EEaSESt16initializer_listIS1_E>
  adjList[12] = {{9, 11.471}, {60, 52.567}, {8, 87.146}};
  801c10:	00bffff4 	movhi	r2,65535
  801c14:	10bdeb04 	addi	r2,r2,-2132
  801c18:	e0fff804 	addi	r3,fp,-32
  801c1c:	1885883a 	add	r2,r3,r2
  801c20:	01400304 	movi	r5,12
  801c24:	1009883a 	mov	r4,r2
  801c28:	080630c0 	call	80630c <_ZNSt6vectorIS_ISt4pairIifESaIS1_EESaIS3_EEixEj>
  801c2c:	1007883a 	mov	r3,r2
  801c30:	00800244 	movi	r2,9
  801c34:	e0be2c15 	stw	r2,-1872(fp)
  801c38:	00904e34 	movhi	r2,16696
  801c3c:	10a24dc4 	addi	r2,r2,-30409
  801c40:	e0be2d15 	stw	r2,-1868(fp)
  801c44:	00800f04 	movi	r2,60
  801c48:	e0be2e15 	stw	r2,-1864(fp)
  801c4c:	009094b4 	movhi	r2,16978
  801c50:	10912704 	addi	r2,r2,17564
  801c54:	e0be2f15 	stw	r2,-1860(fp)
  801c58:	00800204 	movi	r2,8
  801c5c:	e0be3015 	stw	r2,-1856(fp)
  801c60:	0090abb4 	movhi	r2,17070
  801c64:	1092b044 	addi	r2,r2,19137
  801c68:	e0be3115 	stw	r2,-1852(fp)
  801c6c:	e0be2c04 	addi	r2,fp,-1872
  801c70:	013fffb4 	movhi	r4,65534
  801c74:	213d0b04 	addi	r4,r4,-3028
  801c78:	2709883a 	add	r4,r4,fp
  801c7c:	20800015 	stw	r2,0(r4)
  801c80:	010000c4 	movi	r4,3
  801c84:	00bfffb4 	movhi	r2,65534
  801c88:	10bd0c04 	addi	r2,r2,-3024
  801c8c:	1705883a 	add	r2,r2,fp
  801c90:	11000015 	stw	r4,0(r2)
  801c94:	00bfffb4 	movhi	r2,65534
  801c98:	10bd0b04 	addi	r2,r2,-3028
  801c9c:	1705883a 	add	r2,r2,fp
  801ca0:	11400017 	ldw	r5,0(r2)
  801ca4:	00bfffb4 	movhi	r2,65534
  801ca8:	10bd0c04 	addi	r2,r2,-3024
  801cac:	1705883a 	add	r2,r2,fp
  801cb0:	11800017 	ldw	r6,0(r2)
  801cb4:	1809883a 	mov	r4,r3
  801cb8:	08063500 	call	806350 <_ZNSt6vectorISt4pairIifESaIS1_EEaSESt16initializer_listIS1_E>
  adjList[13] = {{11, 12.184}, {56, 21.38}};
  801cbc:	00bffff4 	movhi	r2,65535
  801cc0:	10bdeb04 	addi	r2,r2,-2132
  801cc4:	e0fff804 	addi	r3,fp,-32
  801cc8:	1885883a 	add	r2,r3,r2
  801ccc:	01400344 	movi	r5,13
  801cd0:	1009883a 	mov	r4,r2
  801cd4:	080630c0 	call	80630c <_ZNSt6vectorIS_ISt4pairIifESaIS1_EESaIS3_EEixEj>
  801cd8:	1007883a 	mov	r3,r2
  801cdc:	008002c4 	movi	r2,11
  801ce0:	e0be3215 	stw	r2,-1848(fp)
  801ce4:	009050f4 	movhi	r2,16707
  801ce8:	10bc6a84 	addi	r2,r2,-3670
  801cec:	e0be3315 	stw	r2,-1844(fp)
  801cf0:	00800e04 	movi	r2,56
  801cf4:	e0be3415 	stw	r2,-1840(fp)
  801cf8:	00906af4 	movhi	r2,16811
  801cfc:	10828f44 	addi	r2,r2,2621
  801d00:	e0be3515 	stw	r2,-1836(fp)
  801d04:	e0be3204 	addi	r2,fp,-1848
  801d08:	013fffb4 	movhi	r4,65534
  801d0c:	213d0d04 	addi	r4,r4,-3020
  801d10:	2709883a 	add	r4,r4,fp
  801d14:	20800015 	stw	r2,0(r4)
  801d18:	00800084 	movi	r2,2
  801d1c:	013fffb4 	movhi	r4,65534
  801d20:	213d0e04 	addi	r4,r4,-3016
  801d24:	2709883a 	add	r4,r4,fp
  801d28:	20800015 	stw	r2,0(r4)
  801d2c:	00bfffb4 	movhi	r2,65534
  801d30:	10bd0d04 	addi	r2,r2,-3020
  801d34:	1705883a 	add	r2,r2,fp
  801d38:	11400017 	ldw	r5,0(r2)
  801d3c:	00bfffb4 	movhi	r2,65534
  801d40:	10bd0e04 	addi	r2,r2,-3016
  801d44:	1705883a 	add	r2,r2,fp
  801d48:	11800017 	ldw	r6,0(r2)
  801d4c:	1809883a 	mov	r4,r3
  801d50:	08063500 	call	806350 <_ZNSt6vectorISt4pairIifESaIS1_EEaSESt16initializer_listIS1_E>
  adjList[14] = {{80, 61.58}, {81, 45.668}, {11, 50.876}, {71, 31.192}};
  801d54:	00bffff4 	movhi	r2,65535
  801d58:	10bdeb04 	addi	r2,r2,-2132
  801d5c:	e0fff804 	addi	r3,fp,-32
  801d60:	1885883a 	add	r2,r3,r2
  801d64:	01400384 	movi	r5,14
  801d68:	1009883a 	mov	r4,r2
  801d6c:	080630c0 	call	80630c <_ZNSt6vectorIS_ISt4pairIifESaIS1_EESaIS3_EEixEj>
  801d70:	1007883a 	mov	r3,r2
  801d74:	00801404 	movi	r2,80
  801d78:	e0be3615 	stw	r2,-1832(fp)
  801d7c:	00909db4 	movhi	r2,17014
  801d80:	10947b04 	addi	r2,r2,20972
  801d84:	e0be3715 	stw	r2,-1828(fp)
  801d88:	00801444 	movi	r2,81
  801d8c:	e0be3815 	stw	r2,-1824(fp)
  801d90:	00908df4 	movhi	r2,16951
  801d94:	10ab0204 	addi	r2,r2,-21496
  801d98:	e0be3915 	stw	r2,-1820(fp)
  801d9c:	008002c4 	movi	r2,11
  801da0:	e0be3a15 	stw	r2,-1816(fp)
  801da4:	00909334 	movhi	r2,16972
  801da8:	10a04184 	addi	r2,r2,-32506
  801dac:	e0be3b15 	stw	r2,-1812(fp)
  801db0:	008011c4 	movi	r2,71
  801db4:	e0be3c15 	stw	r2,-1808(fp)
  801db8:	00907eb4 	movhi	r2,16890
  801dbc:	10a24dc4 	addi	r2,r2,-30409
  801dc0:	e0be3d15 	stw	r2,-1804(fp)
  801dc4:	e0be3604 	addi	r2,fp,-1832
  801dc8:	013fffb4 	movhi	r4,65534
  801dcc:	213d0f04 	addi	r4,r4,-3012
  801dd0:	2709883a 	add	r4,r4,fp
  801dd4:	20800015 	stw	r2,0(r4)
  801dd8:	01400104 	movi	r5,4
  801ddc:	00bfffb4 	movhi	r2,65534
  801de0:	10bd1004 	addi	r2,r2,-3008
  801de4:	1705883a 	add	r2,r2,fp
  801de8:	11400015 	stw	r5,0(r2)
  801dec:	00bfffb4 	movhi	r2,65534
  801df0:	10bd0f04 	addi	r2,r2,-3012
  801df4:	1705883a 	add	r2,r2,fp
  801df8:	11400017 	ldw	r5,0(r2)
  801dfc:	00bfffb4 	movhi	r2,65534
  801e00:	10bd1004 	addi	r2,r2,-3008
  801e04:	1705883a 	add	r2,r2,fp
  801e08:	11800017 	ldw	r6,0(r2)
  801e0c:	1809883a 	mov	r4,r3
  801e10:	08063500 	call	806350 <_ZNSt6vectorISt4pairIifESaIS1_EEaSESt16initializer_listIS1_E>
  adjList[15] = {{16, 161.072}, {17, 57.548}};
  801e14:	00bffff4 	movhi	r2,65535
  801e18:	10bdeb04 	addi	r2,r2,-2132
  801e1c:	e0fff804 	addi	r3,fp,-32
  801e20:	1885883a 	add	r2,r3,r2
  801e24:	014003c4 	movi	r5,15
  801e28:	1009883a 	mov	r4,r2
  801e2c:	080630c0 	call	80630c <_ZNSt6vectorIS_ISt4pairIifESaIS1_EESaIS3_EEixEj>
  801e30:	1007883a 	mov	r3,r2
  801e34:	00800404 	movi	r2,16
  801e38:	e0be3e15 	stw	r2,-1800(fp)
  801e3c:	0090c874 	movhi	r2,17185
  801e40:	10849bc4 	addi	r2,r2,4719
  801e44:	e0be3f15 	stw	r2,-1796(fp)
  801e48:	00800444 	movi	r2,17
  801e4c:	e0be4015 	stw	r2,-1792(fp)
  801e50:	009099b4 	movhi	r2,16998
  801e54:	108c49c4 	addi	r2,r2,12583
  801e58:	e0be4115 	stw	r2,-1788(fp)
  801e5c:	e0be3e04 	addi	r2,fp,-1800
  801e60:	013fffb4 	movhi	r4,65534
  801e64:	213d1104 	addi	r4,r4,-3004
  801e68:	2709883a 	add	r4,r4,fp
  801e6c:	20800015 	stw	r2,0(r4)
  801e70:	00800084 	movi	r2,2
  801e74:	013fffb4 	movhi	r4,65534
  801e78:	213d1204 	addi	r4,r4,-3000
  801e7c:	2709883a 	add	r4,r4,fp
  801e80:	20800015 	stw	r2,0(r4)
  801e84:	00bfffb4 	movhi	r2,65534
  801e88:	10bd1104 	addi	r2,r2,-3004
  801e8c:	1705883a 	add	r2,r2,fp
  801e90:	11400017 	ldw	r5,0(r2)
  801e94:	00bfffb4 	movhi	r2,65534
  801e98:	10bd1204 	addi	r2,r2,-3000
  801e9c:	1705883a 	add	r2,r2,fp
  801ea0:	11800017 	ldw	r6,0(r2)
  801ea4:	1809883a 	mov	r4,r3
  801ea8:	08063500 	call	806350 <_ZNSt6vectorISt4pairIifESaIS1_EEaSESt16initializer_listIS1_E>
  adjList[16] = {{34, 55.096}, {72, 12.546}, {7, 44.789}};
  801eac:	00bffff4 	movhi	r2,65535
  801eb0:	10bdeb04 	addi	r2,r2,-2132
  801eb4:	e0fff804 	addi	r3,fp,-32
  801eb8:	1885883a 	add	r2,r3,r2
  801ebc:	01400404 	movi	r5,16
  801ec0:	1009883a 	mov	r4,r2
  801ec4:	080630c0 	call	80630c <_ZNSt6vectorIS_ISt4pairIifESaIS1_EESaIS3_EEixEj>
  801ec8:	1007883a 	mov	r3,r2
  801ecc:	00800884 	movi	r2,34
  801ed0:	e0be4215 	stw	r2,-1784(fp)
  801ed4:	00909734 	movhi	r2,16988
  801ed8:	10989384 	addi	r2,r2,25166
  801edc:	e0be4315 	stw	r2,-1780(fp)
  801ee0:	00801204 	movi	r2,72
  801ee4:	e0be4415 	stw	r2,-1776(fp)
  801ee8:	00905274 	movhi	r2,16713
  801eec:	10af1a84 	addi	r2,r2,-17302
  801ef0:	e0be4515 	stw	r2,-1772(fp)
  801ef4:	008001c4 	movi	r2,7
  801ef8:	e0be4615 	stw	r2,-1768(fp)
  801efc:	00908cf4 	movhi	r2,16947
  801f00:	1089fc04 	addi	r2,r2,10224
  801f04:	e0be4715 	stw	r2,-1764(fp)
  801f08:	e0be4204 	addi	r2,fp,-1784
  801f0c:	013fffb4 	movhi	r4,65534
  801f10:	213d1304 	addi	r4,r4,-2996
  801f14:	2709883a 	add	r4,r4,fp
  801f18:	20800015 	stw	r2,0(r4)
  801f1c:	010000c4 	movi	r4,3
  801f20:	00bfffb4 	movhi	r2,65534
  801f24:	10bd1404 	addi	r2,r2,-2992
  801f28:	1705883a 	add	r2,r2,fp
  801f2c:	11000015 	stw	r4,0(r2)
  801f30:	00bfffb4 	movhi	r2,65534
  801f34:	10bd1304 	addi	r2,r2,-2996
  801f38:	1705883a 	add	r2,r2,fp
  801f3c:	11400017 	ldw	r5,0(r2)
  801f40:	00bfffb4 	movhi	r2,65534
  801f44:	10bd1404 	addi	r2,r2,-2992
  801f48:	1705883a 	add	r2,r2,fp
  801f4c:	11800017 	ldw	r6,0(r2)
  801f50:	1809883a 	mov	r4,r3
  801f54:	08063500 	call	806350 <_ZNSt6vectorISt4pairIifESaIS1_EEaSESt16initializer_listIS1_E>
  adjList[17] = {{34, 160.516}, {15, 57.548}, {32, 92.211}};
  801f58:	00bffff4 	movhi	r2,65535
  801f5c:	10bdeb04 	addi	r2,r2,-2132
  801f60:	e0fff804 	addi	r3,fp,-32
  801f64:	1885883a 	add	r2,r3,r2
  801f68:	01400444 	movi	r5,17
  801f6c:	1009883a 	mov	r4,r2
  801f70:	080630c0 	call	80630c <_ZNSt6vectorIS_ISt4pairIifESaIS1_EESaIS3_EEixEj>
  801f74:	1007883a 	mov	r3,r2
  801f78:	00800884 	movi	r2,34
  801f7c:	e0be4815 	stw	r2,-1760(fp)
  801f80:	0090c874 	movhi	r2,17185
  801f84:	10a10644 	addi	r2,r2,-31719
  801f88:	e0be4915 	stw	r2,-1756(fp)
  801f8c:	008003c4 	movi	r2,15
  801f90:	e0be4a15 	stw	r2,-1752(fp)
  801f94:	009099b4 	movhi	r2,16998
  801f98:	108c49c4 	addi	r2,r2,12583
  801f9c:	e0be4b15 	stw	r2,-1748(fp)
  801fa0:	00800804 	movi	r2,32
  801fa4:	e0be4c15 	stw	r2,-1744(fp)
  801fa8:	0090ae34 	movhi	r2,17080
  801fac:	109b0204 	addi	r2,r2,27656
  801fb0:	e0be4d15 	stw	r2,-1740(fp)
  801fb4:	e0be4804 	addi	r2,fp,-1760
  801fb8:	013fffb4 	movhi	r4,65534
  801fbc:	213d1504 	addi	r4,r4,-2988
  801fc0:	2709883a 	add	r4,r4,fp
  801fc4:	20800015 	stw	r2,0(r4)
  801fc8:	010000c4 	movi	r4,3
  801fcc:	00bfffb4 	movhi	r2,65534
  801fd0:	10bd1604 	addi	r2,r2,-2984
  801fd4:	1705883a 	add	r2,r2,fp
  801fd8:	11000015 	stw	r4,0(r2)
  801fdc:	00bfffb4 	movhi	r2,65534
  801fe0:	10bd1504 	addi	r2,r2,-2988
  801fe4:	1705883a 	add	r2,r2,fp
  801fe8:	11400017 	ldw	r5,0(r2)
  801fec:	00bfffb4 	movhi	r2,65534
  801ff0:	10bd1604 	addi	r2,r2,-2984
  801ff4:	1705883a 	add	r2,r2,fp
  801ff8:	11800017 	ldw	r6,0(r2)
  801ffc:	1809883a 	mov	r4,r3
  802000:	08063500 	call	806350 <_ZNSt6vectorISt4pairIifESaIS1_EEaSESt16initializer_listIS1_E>
  adjList[18] = {{19, 9.452}, {20, 292.743}};
  802004:	00bffff4 	movhi	r2,65535
  802008:	10bdeb04 	addi	r2,r2,-2132
  80200c:	e0fff804 	addi	r3,fp,-32
  802010:	1885883a 	add	r2,r3,r2
  802014:	01400484 	movi	r5,18
  802018:	1009883a 	mov	r4,r2
  80201c:	080630c0 	call	80630c <_ZNSt6vectorIS_ISt4pairIifESaIS1_EESaIS3_EEixEj>
  802020:	1007883a 	mov	r3,r2
  802024:	008004c4 	movi	r2,19
  802028:	e0be4e15 	stw	r2,-1736(fp)
  80202c:	009045f4 	movhi	r2,16663
  802030:	108ed904 	addi	r2,r2,15204
  802034:	e0be4f15 	stw	r2,-1732(fp)
  802038:	00800504 	movi	r2,20
  80203c:	e0be5015 	stw	r2,-1728(fp)
  802040:	0090e4b4 	movhi	r2,17298
  802044:	1097c6c4 	addi	r2,r2,24347
  802048:	e0be5115 	stw	r2,-1724(fp)
  80204c:	e0be4e04 	addi	r2,fp,-1736
  802050:	013fffb4 	movhi	r4,65534
  802054:	213d1704 	addi	r4,r4,-2980
  802058:	2709883a 	add	r4,r4,fp
  80205c:	20800015 	stw	r2,0(r4)
  802060:	00800084 	movi	r2,2
  802064:	013fffb4 	movhi	r4,65534
  802068:	213d1804 	addi	r4,r4,-2976
  80206c:	2709883a 	add	r4,r4,fp
  802070:	20800015 	stw	r2,0(r4)
  802074:	00bfffb4 	movhi	r2,65534
  802078:	10bd1704 	addi	r2,r2,-2980
  80207c:	1705883a 	add	r2,r2,fp
  802080:	11400017 	ldw	r5,0(r2)
  802084:	00bfffb4 	movhi	r2,65534
  802088:	10bd1804 	addi	r2,r2,-2976
  80208c:	1705883a 	add	r2,r2,fp
  802090:	11800017 	ldw	r6,0(r2)
  802094:	1809883a 	mov	r4,r3
  802098:	08063500 	call	806350 <_ZNSt6vectorISt4pairIifESaIS1_EEaSESt16initializer_listIS1_E>
  adjList[19] = {{18, 9.452}, {21, 19.619}};
  80209c:	00bffff4 	movhi	r2,65535
  8020a0:	10bdeb04 	addi	r2,r2,-2132
  8020a4:	e0fff804 	addi	r3,fp,-32
  8020a8:	1885883a 	add	r2,r3,r2
  8020ac:	014004c4 	movi	r5,19
  8020b0:	1009883a 	mov	r4,r2
  8020b4:	080630c0 	call	80630c <_ZNSt6vectorIS_ISt4pairIifESaIS1_EESaIS3_EEixEj>
  8020b8:	1007883a 	mov	r3,r2
  8020bc:	00800484 	movi	r2,18
  8020c0:	e0be5215 	stw	r2,-1720(fp)
  8020c4:	009045f4 	movhi	r2,16663
  8020c8:	108ed904 	addi	r2,r2,15204
  8020cc:	e0be5315 	stw	r2,-1716(fp)
  8020d0:	00800544 	movi	r2,21
  8020d4:	e0be5415 	stw	r2,-1712(fp)
  8020d8:	00906774 	movhi	r2,16797
  8020dc:	10bced84 	addi	r2,r2,-3146
  8020e0:	e0be5515 	stw	r2,-1708(fp)
  8020e4:	e0be5204 	addi	r2,fp,-1720
  8020e8:	013fffb4 	movhi	r4,65534
  8020ec:	213d1904 	addi	r4,r4,-2972
  8020f0:	2709883a 	add	r4,r4,fp
  8020f4:	20800015 	stw	r2,0(r4)
  8020f8:	00800084 	movi	r2,2
  8020fc:	013fffb4 	movhi	r4,65534
  802100:	213d1a04 	addi	r4,r4,-2968
  802104:	2709883a 	add	r4,r4,fp
  802108:	20800015 	stw	r2,0(r4)
  80210c:	00bfffb4 	movhi	r2,65534
  802110:	10bd1904 	addi	r2,r2,-2972
  802114:	1705883a 	add	r2,r2,fp
  802118:	11400017 	ldw	r5,0(r2)
  80211c:	00bfffb4 	movhi	r2,65534
  802120:	10bd1a04 	addi	r2,r2,-2968
  802124:	1705883a 	add	r2,r2,fp
  802128:	11800017 	ldw	r6,0(r2)
  80212c:	1809883a 	mov	r4,r3
  802130:	08063500 	call	806350 <_ZNSt6vectorISt4pairIifESaIS1_EEaSESt16initializer_listIS1_E>
  adjList[20] = {{101, 13.449}, {18, 292.743}};
  802134:	00bffff4 	movhi	r2,65535
  802138:	10bdeb04 	addi	r2,r2,-2132
  80213c:	e0fff804 	addi	r3,fp,-32
  802140:	1885883a 	add	r2,r3,r2
  802144:	01400504 	movi	r5,20
  802148:	1009883a 	mov	r4,r2
  80214c:	080630c0 	call	80630c <_ZNSt6vectorIS_ISt4pairIifESaIS1_EESaIS3_EEixEj>
  802150:	1007883a 	mov	r3,r2
  802154:	00801944 	movi	r2,101
  802158:	e0be5615 	stw	r2,-1704(fp)
  80215c:	009055f4 	movhi	r2,16727
  802160:	108bc6c4 	addi	r2,r2,12059
  802164:	e0be5715 	stw	r2,-1700(fp)
  802168:	00800484 	movi	r2,18
  80216c:	e0be5815 	stw	r2,-1696(fp)
  802170:	0090e4b4 	movhi	r2,17298
  802174:	1097c6c4 	addi	r2,r2,24347
  802178:	e0be5915 	stw	r2,-1692(fp)
  80217c:	e0be5604 	addi	r2,fp,-1704
  802180:	013fffb4 	movhi	r4,65534
  802184:	213d1b04 	addi	r4,r4,-2964
  802188:	2709883a 	add	r4,r4,fp
  80218c:	20800015 	stw	r2,0(r4)
  802190:	00800084 	movi	r2,2
  802194:	013fffb4 	movhi	r4,65534
  802198:	213d1c04 	addi	r4,r4,-2960
  80219c:	2709883a 	add	r4,r4,fp
  8021a0:	20800015 	stw	r2,0(r4)
  8021a4:	00bfffb4 	movhi	r2,65534
  8021a8:	10bd1b04 	addi	r2,r2,-2964
  8021ac:	1705883a 	add	r2,r2,fp
  8021b0:	11400017 	ldw	r5,0(r2)
  8021b4:	00bfffb4 	movhi	r2,65534
  8021b8:	10bd1c04 	addi	r2,r2,-2960
  8021bc:	1705883a 	add	r2,r2,fp
  8021c0:	11800017 	ldw	r6,0(r2)
  8021c4:	1809883a 	mov	r4,r3
  8021c8:	08063500 	call	806350 <_ZNSt6vectorISt4pairIifESaIS1_EEaSESt16initializer_listIS1_E>
  adjList[21] = {{1, 6.469}, {19, 19.028}};
  8021cc:	00bffff4 	movhi	r2,65535
  8021d0:	10bdeb04 	addi	r2,r2,-2132
  8021d4:	e0fff804 	addi	r3,fp,-32
  8021d8:	1885883a 	add	r2,r3,r2
  8021dc:	01400544 	movi	r5,21
  8021e0:	1009883a 	mov	r4,r2
  8021e4:	080630c0 	call	80630c <_ZNSt6vectorIS_ISt4pairIifESaIS1_EESaIS3_EEixEj>
  8021e8:	1007883a 	mov	r3,r2
  8021ec:	00800044 	movi	r2,1
  8021f0:	e0be5a15 	stw	r2,-1688(fp)
  8021f4:	009033f4 	movhi	r2,16591
  8021f8:	10808304 	addi	r2,r2,524
  8021fc:	e0be5b15 	stw	r2,-1684(fp)
  802200:	008004c4 	movi	r2,19
  802204:	e0be5c15 	stw	r2,-1680(fp)
  802208:	00906634 	movhi	r2,16792
  80220c:	108e5604 	addi	r2,r2,14680
  802210:	e0be5d15 	stw	r2,-1676(fp)
  802214:	e0be5a04 	addi	r2,fp,-1688
  802218:	013fffb4 	movhi	r4,65534
  80221c:	213d1d04 	addi	r4,r4,-2956
  802220:	2709883a 	add	r4,r4,fp
  802224:	20800015 	stw	r2,0(r4)
  802228:	00800084 	movi	r2,2
  80222c:	013fffb4 	movhi	r4,65534
  802230:	213d1e04 	addi	r4,r4,-2952
  802234:	2709883a 	add	r4,r4,fp
  802238:	20800015 	stw	r2,0(r4)
  80223c:	00bfffb4 	movhi	r2,65534
  802240:	10bd1d04 	addi	r2,r2,-2956
  802244:	1705883a 	add	r2,r2,fp
  802248:	11400017 	ldw	r5,0(r2)
  80224c:	00bfffb4 	movhi	r2,65534
  802250:	10bd1e04 	addi	r2,r2,-2952
  802254:	1705883a 	add	r2,r2,fp
  802258:	11800017 	ldw	r6,0(r2)
  80225c:	1809883a 	mov	r4,r3
  802260:	08063500 	call	806350 <_ZNSt6vectorISt4pairIifESaIS1_EEaSESt16initializer_listIS1_E>
  adjList[22] = {{76, 31.392}, {87, 36.661}, {1, 158.274}};
  802264:	00bffff4 	movhi	r2,65535
  802268:	10bdeb04 	addi	r2,r2,-2132
  80226c:	e0fff804 	addi	r3,fp,-32
  802270:	1885883a 	add	r2,r3,r2
  802274:	01400584 	movi	r5,22
  802278:	1009883a 	mov	r4,r2
  80227c:	080630c0 	call	80630c <_ZNSt6vectorIS_ISt4pairIifESaIS1_EESaIS3_EEixEj>
  802280:	1007883a 	mov	r3,r2
  802284:	00801304 	movi	r2,76
  802288:	e0be5e15 	stw	r2,-1672(fp)
  80228c:	00907ef4 	movhi	r2,16891
  802290:	1088b444 	addi	r2,r2,8913
  802294:	e0be5f15 	stw	r2,-1668(fp)
  802298:	008015c4 	movi	r2,87
  80229c:	e0be6015 	stw	r2,-1664(fp)
  8022a0:	009084f4 	movhi	r2,16915
  8022a4:	10a93744 	addi	r2,r2,-23331
  8022a8:	e0be6115 	stw	r2,-1660(fp)
  8022ac:	00800044 	movi	r2,1
  8022b0:	e0be6215 	stw	r2,-1656(fp)
  8022b4:	0090c7b4 	movhi	r2,17182
  8022b8:	10918944 	addi	r2,r2,17957
  8022bc:	e0be6315 	stw	r2,-1652(fp)
  8022c0:	e0be5e04 	addi	r2,fp,-1672
  8022c4:	013fffb4 	movhi	r4,65534
  8022c8:	213d1f04 	addi	r4,r4,-2948
  8022cc:	2709883a 	add	r4,r4,fp
  8022d0:	20800015 	stw	r2,0(r4)
  8022d4:	010000c4 	movi	r4,3
  8022d8:	00bfffb4 	movhi	r2,65534
  8022dc:	10bd2004 	addi	r2,r2,-2944
  8022e0:	1705883a 	add	r2,r2,fp
  8022e4:	11000015 	stw	r4,0(r2)
  8022e8:	00bfffb4 	movhi	r2,65534
  8022ec:	10bd1f04 	addi	r2,r2,-2948
  8022f0:	1705883a 	add	r2,r2,fp
  8022f4:	11400017 	ldw	r5,0(r2)
  8022f8:	00bfffb4 	movhi	r2,65534
  8022fc:	10bd2004 	addi	r2,r2,-2944
  802300:	1705883a 	add	r2,r2,fp
  802304:	11800017 	ldw	r6,0(r2)
  802308:	1809883a 	mov	r4,r3
  80230c:	08063500 	call	806350 <_ZNSt6vectorISt4pairIifESaIS1_EEaSESt16initializer_listIS1_E>
  adjList[23] = {{24, 63.576}, {25, 30.539}};
  802310:	00bffff4 	movhi	r2,65535
  802314:	10bdeb04 	addi	r2,r2,-2132
  802318:	e0fff804 	addi	r3,fp,-32
  80231c:	1885883a 	add	r2,r3,r2
  802320:	014005c4 	movi	r5,23
  802324:	1009883a 	mov	r4,r2
  802328:	080630c0 	call	80630c <_ZNSt6vectorIS_ISt4pairIifESaIS1_EESaIS3_EEixEj>
  80232c:	1007883a 	mov	r3,r2
  802330:	00800604 	movi	r2,24
  802334:	e0be6415 	stw	r2,-1648(fp)
  802338:	00909fb4 	movhi	r2,17022
  80233c:	109374c4 	addi	r2,r2,19923
  802340:	e0be6515 	stw	r2,-1644(fp)
  802344:	00800644 	movi	r2,25
  802348:	e0be6615 	stw	r2,-1640(fp)
  80234c:	00907d34 	movhi	r2,16884
  802350:	1093f7c4 	addi	r2,r2,20447
  802354:	e0be6715 	stw	r2,-1636(fp)
  802358:	e0be6404 	addi	r2,fp,-1648
  80235c:	013fffb4 	movhi	r4,65534
  802360:	213d2104 	addi	r4,r4,-2940
  802364:	2709883a 	add	r4,r4,fp
  802368:	20800015 	stw	r2,0(r4)
  80236c:	00800084 	movi	r2,2
  802370:	013fffb4 	movhi	r4,65534
  802374:	213d2204 	addi	r4,r4,-2936
  802378:	2709883a 	add	r4,r4,fp
  80237c:	20800015 	stw	r2,0(r4)
  802380:	00bfffb4 	movhi	r2,65534
  802384:	10bd2104 	addi	r2,r2,-2940
  802388:	1705883a 	add	r2,r2,fp
  80238c:	11400017 	ldw	r5,0(r2)
  802390:	00bfffb4 	movhi	r2,65534
  802394:	10bd2204 	addi	r2,r2,-2936
  802398:	1705883a 	add	r2,r2,fp
  80239c:	11800017 	ldw	r6,0(r2)
  8023a0:	1809883a 	mov	r4,r3
  8023a4:	08063500 	call	806350 <_ZNSt6vectorISt4pairIifESaIS1_EEaSESt16initializer_listIS1_E>
  adjList[24] = {{26, 21.383}, {27, 62.293}, {23, 63.576}};
  8023a8:	00bffff4 	movhi	r2,65535
  8023ac:	10bdeb04 	addi	r2,r2,-2132
  8023b0:	e0fff804 	addi	r3,fp,-32
  8023b4:	1885883a 	add	r2,r3,r2
  8023b8:	01400604 	movi	r5,24
  8023bc:	1009883a 	mov	r4,r2
  8023c0:	080630c0 	call	80630c <_ZNSt6vectorIS_ISt4pairIifESaIS1_EESaIS3_EEixEj>
  8023c4:	1007883a 	mov	r3,r2
  8023c8:	00800684 	movi	r2,26
  8023cc:	e0be6815 	stw	r2,-1632(fp)
  8023d0:	00906af4 	movhi	r2,16811
  8023d4:	10841884 	addi	r2,r2,4194
  8023d8:	e0be6915 	stw	r2,-1628(fp)
  8023dc:	008006c4 	movi	r2,27
  8023e0:	e0be6a15 	stw	r2,-1624(fp)
  8023e4:	00909e74 	movhi	r2,17017
  8023e8:	108b0204 	addi	r2,r2,11272
  8023ec:	e0be6b15 	stw	r2,-1620(fp)
  8023f0:	008005c4 	movi	r2,23
  8023f4:	e0be6c15 	stw	r2,-1616(fp)
  8023f8:	00909fb4 	movhi	r2,17022
  8023fc:	109374c4 	addi	r2,r2,19923
  802400:	e0be6d15 	stw	r2,-1612(fp)
  802404:	e0be6804 	addi	r2,fp,-1632
  802408:	013fffb4 	movhi	r4,65534
  80240c:	213d2304 	addi	r4,r4,-2932
  802410:	2709883a 	add	r4,r4,fp
  802414:	20800015 	stw	r2,0(r4)
  802418:	010000c4 	movi	r4,3
  80241c:	00bfffb4 	movhi	r2,65534
  802420:	10bd2404 	addi	r2,r2,-2928
  802424:	1705883a 	add	r2,r2,fp
  802428:	11000015 	stw	r4,0(r2)
  80242c:	00bfffb4 	movhi	r2,65534
  802430:	10bd2304 	addi	r2,r2,-2932
  802434:	1705883a 	add	r2,r2,fp
  802438:	11400017 	ldw	r5,0(r2)
  80243c:	00bfffb4 	movhi	r2,65534
  802440:	10bd2404 	addi	r2,r2,-2928
  802444:	1705883a 	add	r2,r2,fp
  802448:	11800017 	ldw	r6,0(r2)
  80244c:	1809883a 	mov	r4,r3
  802450:	08063500 	call	806350 <_ZNSt6vectorISt4pairIifESaIS1_EEaSESt16initializer_listIS1_E>
  adjList[25] = {{95, 46.425}, {23, 30.539}};
  802454:	00bffff4 	movhi	r2,65535
  802458:	10bdeb04 	addi	r2,r2,-2132
  80245c:	e0fff804 	addi	r3,fp,-32
  802460:	1885883a 	add	r2,r3,r2
  802464:	01400644 	movi	r5,25
  802468:	1009883a 	mov	r4,r2
  80246c:	080630c0 	call	80630c <_ZNSt6vectorIS_ISt4pairIifESaIS1_EESaIS3_EEixEj>
  802470:	1007883a 	mov	r3,r2
  802474:	008017c4 	movi	r2,95
  802478:	e0be6e15 	stw	r2,-1608(fp)
  80247c:	00908eb4 	movhi	r2,16954
  802480:	10acccc4 	addi	r2,r2,-19661
  802484:	e0be6f15 	stw	r2,-1604(fp)
  802488:	008005c4 	movi	r2,23
  80248c:	e0be7015 	stw	r2,-1600(fp)
  802490:	00907d34 	movhi	r2,16884
  802494:	1093f7c4 	addi	r2,r2,20447
  802498:	e0be7115 	stw	r2,-1596(fp)
  80249c:	e0be6e04 	addi	r2,fp,-1608
  8024a0:	013fffb4 	movhi	r4,65534
  8024a4:	213d2504 	addi	r4,r4,-2924
  8024a8:	2709883a 	add	r4,r4,fp
  8024ac:	20800015 	stw	r2,0(r4)
  8024b0:	00800084 	movi	r2,2
  8024b4:	013fffb4 	movhi	r4,65534
  8024b8:	213d2604 	addi	r4,r4,-2920
  8024bc:	2709883a 	add	r4,r4,fp
  8024c0:	20800015 	stw	r2,0(r4)
  8024c4:	00bfffb4 	movhi	r2,65534
  8024c8:	10bd2504 	addi	r2,r2,-2924
  8024cc:	1705883a 	add	r2,r2,fp
  8024d0:	11400017 	ldw	r5,0(r2)
  8024d4:	00bfffb4 	movhi	r2,65534
  8024d8:	10bd2604 	addi	r2,r2,-2920
  8024dc:	1705883a 	add	r2,r2,fp
  8024e0:	11800017 	ldw	r6,0(r2)
  8024e4:	1809883a 	mov	r4,r3
  8024e8:	08063500 	call	806350 <_ZNSt6vectorISt4pairIifESaIS1_EEaSESt16initializer_listIS1_E>
  adjList[26] = {{49, 61.768}, {68, 85.51}};
  8024ec:	00bffff4 	movhi	r2,65535
  8024f0:	10bdeb04 	addi	r2,r2,-2132
  8024f4:	e0fff804 	addi	r3,fp,-32
  8024f8:	1885883a 	add	r2,r3,r2
  8024fc:	01400684 	movi	r5,26
  802500:	1009883a 	mov	r4,r2
  802504:	080630c0 	call	80630c <_ZNSt6vectorIS_ISt4pairIifESaIS1_EESaIS3_EEixEj>
  802508:	1007883a 	mov	r3,r2
  80250c:	00800c44 	movi	r2,49
  802510:	e0be7215 	stw	r2,-1592(fp)
  802514:	00909df4 	movhi	r2,17015
  802518:	10849bc4 	addi	r2,r2,4719
  80251c:	e0be7315 	stw	r2,-1588(fp)
  802520:	00801104 	movi	r2,68
  802524:	e0be7415 	stw	r2,-1584(fp)
  802528:	0090aaf4 	movhi	r2,17067
  80252c:	108147c4 	addi	r2,r2,1311
  802530:	e0be7515 	stw	r2,-1580(fp)
  802534:	e0be7204 	addi	r2,fp,-1592
  802538:	013fffb4 	movhi	r4,65534
  80253c:	213d2704 	addi	r4,r4,-2916
  802540:	2709883a 	add	r4,r4,fp
  802544:	20800015 	stw	r2,0(r4)
  802548:	00800084 	movi	r2,2
  80254c:	013fffb4 	movhi	r4,65534
  802550:	213d2804 	addi	r4,r4,-2912
  802554:	2709883a 	add	r4,r4,fp
  802558:	20800015 	stw	r2,0(r4)
  80255c:	00bfffb4 	movhi	r2,65534
  802560:	10bd2704 	addi	r2,r2,-2916
  802564:	1705883a 	add	r2,r2,fp
  802568:	11400017 	ldw	r5,0(r2)
  80256c:	00bfffb4 	movhi	r2,65534
  802570:	10bd2804 	addi	r2,r2,-2912
  802574:	1705883a 	add	r2,r2,fp
  802578:	11800017 	ldw	r6,0(r2)
  80257c:	1809883a 	mov	r4,r3
  802580:	08063500 	call	806350 <_ZNSt6vectorISt4pairIifESaIS1_EEaSESt16initializer_listIS1_E>
  adjList[27] = {{24, 62.293}};
  802584:	00bffff4 	movhi	r2,65535
  802588:	10bdeb04 	addi	r2,r2,-2132
  80258c:	e0fff804 	addi	r3,fp,-32
  802590:	1885883a 	add	r2,r3,r2
  802594:	014006c4 	movi	r5,27
  802598:	1009883a 	mov	r4,r2
  80259c:	080630c0 	call	80630c <_ZNSt6vectorIS_ISt4pairIifESaIS1_EESaIS3_EEixEj>
  8025a0:	1007883a 	mov	r3,r2
  8025a4:	00800604 	movi	r2,24
  8025a8:	e0be7615 	stw	r2,-1576(fp)
  8025ac:	00909e74 	movhi	r2,17017
  8025b0:	108b0204 	addi	r2,r2,11272
  8025b4:	e0be7715 	stw	r2,-1572(fp)
  8025b8:	e0be7604 	addi	r2,fp,-1576
  8025bc:	013fffb4 	movhi	r4,65534
  8025c0:	213d2904 	addi	r4,r4,-2908
  8025c4:	2709883a 	add	r4,r4,fp
  8025c8:	20800015 	stw	r2,0(r4)
  8025cc:	01400044 	movi	r5,1
  8025d0:	00bfffb4 	movhi	r2,65534
  8025d4:	10bd2a04 	addi	r2,r2,-2904
  8025d8:	1705883a 	add	r2,r2,fp
  8025dc:	11400015 	stw	r5,0(r2)
  8025e0:	00bfffb4 	movhi	r2,65534
  8025e4:	10bd2904 	addi	r2,r2,-2908
  8025e8:	1705883a 	add	r2,r2,fp
  8025ec:	11400017 	ldw	r5,0(r2)
  8025f0:	00bfffb4 	movhi	r2,65534
  8025f4:	10bd2a04 	addi	r2,r2,-2904
  8025f8:	1705883a 	add	r2,r2,fp
  8025fc:	11800017 	ldw	r6,0(r2)
  802600:	1809883a 	mov	r4,r3
  802604:	08063500 	call	806350 <_ZNSt6vectorISt4pairIifESaIS1_EEaSESt16initializer_listIS1_E>
  adjList[28] = {{29, 41.125}, {30, 35.057}, {31, 72.929}};
  802608:	00bffff4 	movhi	r2,65535
  80260c:	10bdeb04 	addi	r2,r2,-2132
  802610:	e0fff804 	addi	r3,fp,-32
  802614:	1885883a 	add	r2,r3,r2
  802618:	01400704 	movi	r5,28
  80261c:	1009883a 	mov	r4,r2
  802620:	080630c0 	call	80630c <_ZNSt6vectorIS_ISt4pairIifESaIS1_EESaIS3_EEixEj>
  802624:	1007883a 	mov	r3,r2
  802628:	00800744 	movi	r2,29
  80262c:	e0be7815 	stw	r2,-1568(fp)
  802630:	00908974 	movhi	r2,16933
  802634:	10a00004 	addi	r2,r2,-32768
  802638:	e0be7915 	stw	r2,-1564(fp)
  80263c:	00800784 	movi	r2,30
  802640:	e0be7a15 	stw	r2,-1560(fp)
  802644:	00908334 	movhi	r2,16908
  802648:	108e9784 	addi	r2,r2,14942
  80264c:	e0be7b15 	stw	r2,-1556(fp)
  802650:	008007c4 	movi	r2,31
  802654:	e0be7c15 	stw	r2,-1552(fp)
  802658:	0090a4b4 	movhi	r2,17042
  80265c:	10b6e984 	addi	r2,r2,-9306
  802660:	e0be7d15 	stw	r2,-1548(fp)
  802664:	e0be7804 	addi	r2,fp,-1568
  802668:	013fffb4 	movhi	r4,65534
  80266c:	213d2b04 	addi	r4,r4,-2900
  802670:	2709883a 	add	r4,r4,fp
  802674:	20800015 	stw	r2,0(r4)
  802678:	010000c4 	movi	r4,3
  80267c:	00bfffb4 	movhi	r2,65534
  802680:	10bd2c04 	addi	r2,r2,-2896
  802684:	1705883a 	add	r2,r2,fp
  802688:	11000015 	stw	r4,0(r2)
  80268c:	00bfffb4 	movhi	r2,65534
  802690:	10bd2b04 	addi	r2,r2,-2900
  802694:	1705883a 	add	r2,r2,fp
  802698:	11400017 	ldw	r5,0(r2)
  80269c:	00bfffb4 	movhi	r2,65534
  8026a0:	10bd2c04 	addi	r2,r2,-2896
  8026a4:	1705883a 	add	r2,r2,fp
  8026a8:	11800017 	ldw	r6,0(r2)
  8026ac:	1809883a 	mov	r4,r3
  8026b0:	08063500 	call	806350 <_ZNSt6vectorISt4pairIifESaIS1_EEaSESt16initializer_listIS1_E>
  adjList[29] = {{28, 41.125}, {39, 28.433}, {31, 53.581}};
  8026b4:	00bffff4 	movhi	r2,65535
  8026b8:	10bdeb04 	addi	r2,r2,-2132
  8026bc:	e0fff804 	addi	r3,fp,-32
  8026c0:	1885883a 	add	r2,r3,r2
  8026c4:	01400744 	movi	r5,29
  8026c8:	1009883a 	mov	r4,r2
  8026cc:	080630c0 	call	80630c <_ZNSt6vectorIS_ISt4pairIifESaIS1_EESaIS3_EEixEj>
  8026d0:	1007883a 	mov	r3,r2
  8026d4:	00800704 	movi	r2,28
  8026d8:	e0be7e15 	stw	r2,-1544(fp)
  8026dc:	00908974 	movhi	r2,16933
  8026e0:	10a00004 	addi	r2,r2,-32768
  8026e4:	e0be7f15 	stw	r2,-1540(fp)
  8026e8:	008009c4 	movi	r2,39
  8026ec:	e0be8015 	stw	r2,-1536(fp)
  8026f0:	009078f4 	movhi	r2,16867
  8026f4:	109db244 	addi	r2,r2,30409
  8026f8:	e0be8115 	stw	r2,-1532(fp)
  8026fc:	008007c4 	movi	r2,31
  802700:	e0be8215 	stw	r2,-1528(fp)
  802704:	009095b4 	movhi	r2,16982
  802708:	1094bc84 	addi	r2,r2,21234
  80270c:	e0be8315 	stw	r2,-1524(fp)
  802710:	e0be7e04 	addi	r2,fp,-1544
  802714:	013fffb4 	movhi	r4,65534
  802718:	213d2d04 	addi	r4,r4,-2892
  80271c:	2709883a 	add	r4,r4,fp
  802720:	20800015 	stw	r2,0(r4)
  802724:	010000c4 	movi	r4,3
  802728:	00bfffb4 	movhi	r2,65534
  80272c:	10bd2e04 	addi	r2,r2,-2888
  802730:	1705883a 	add	r2,r2,fp
  802734:	11000015 	stw	r4,0(r2)
  802738:	00bfffb4 	movhi	r2,65534
  80273c:	10bd2d04 	addi	r2,r2,-2892
  802740:	1705883a 	add	r2,r2,fp
  802744:	11400017 	ldw	r5,0(r2)
  802748:	00bfffb4 	movhi	r2,65534
  80274c:	10bd2e04 	addi	r2,r2,-2888
  802750:	1705883a 	add	r2,r2,fp
  802754:	11800017 	ldw	r6,0(r2)
  802758:	1809883a 	mov	r4,r3
  80275c:	08063500 	call	806350 <_ZNSt6vectorISt4pairIifESaIS1_EEaSESt16initializer_listIS1_E>
  adjList[30] = {{28, 35.057}, {33, 18.83}};
  802760:	00bffff4 	movhi	r2,65535
  802764:	10bdeb04 	addi	r2,r2,-2132
  802768:	e0fff804 	addi	r3,fp,-32
  80276c:	1885883a 	add	r2,r3,r2
  802770:	01400784 	movi	r5,30
  802774:	1009883a 	mov	r4,r2
  802778:	080630c0 	call	80630c <_ZNSt6vectorIS_ISt4pairIifESaIS1_EESaIS3_EEixEj>
  80277c:	1007883a 	mov	r3,r2
  802780:	00800704 	movi	r2,28
  802784:	e0be8415 	stw	r2,-1520(fp)
  802788:	00908334 	movhi	r2,16908
  80278c:	108e9784 	addi	r2,r2,14942
  802790:	e0be8515 	stw	r2,-1516(fp)
  802794:	00800844 	movi	r2,33
  802798:	e0be8615 	stw	r2,-1512(fp)
  80279c:	009065f4 	movhi	r2,16791
  8027a0:	10a8f5c4 	addi	r2,r2,-23593
  8027a4:	e0be8715 	stw	r2,-1508(fp)
  8027a8:	e0be8404 	addi	r2,fp,-1520
  8027ac:	013fffb4 	movhi	r4,65534
  8027b0:	213d2f04 	addi	r4,r4,-2884
  8027b4:	2709883a 	add	r4,r4,fp
  8027b8:	20800015 	stw	r2,0(r4)
  8027bc:	00800084 	movi	r2,2
  8027c0:	013fffb4 	movhi	r4,65534
  8027c4:	213d3004 	addi	r4,r4,-2880
  8027c8:	2709883a 	add	r4,r4,fp
  8027cc:	20800015 	stw	r2,0(r4)
  8027d0:	00bfffb4 	movhi	r2,65534
  8027d4:	10bd2f04 	addi	r2,r2,-2884
  8027d8:	1705883a 	add	r2,r2,fp
  8027dc:	11400017 	ldw	r5,0(r2)
  8027e0:	00bfffb4 	movhi	r2,65534
  8027e4:	10bd3004 	addi	r2,r2,-2880
  8027e8:	1705883a 	add	r2,r2,fp
  8027ec:	11800017 	ldw	r6,0(r2)
  8027f0:	1809883a 	mov	r4,r3
  8027f4:	08063500 	call	806350 <_ZNSt6vectorISt4pairIifESaIS1_EEaSESt16initializer_listIS1_E>
  adjList[31] = {{29, 53.581}, {28, 72.929}, {40, 62.337}};
  8027f8:	00bffff4 	movhi	r2,65535
  8027fc:	10bdeb04 	addi	r2,r2,-2132
  802800:	e0fff804 	addi	r3,fp,-32
  802804:	1885883a 	add	r2,r3,r2
  802808:	014007c4 	movi	r5,31
  80280c:	1009883a 	mov	r4,r2
  802810:	080630c0 	call	80630c <_ZNSt6vectorIS_ISt4pairIifESaIS1_EESaIS3_EEixEj>
  802814:	1007883a 	mov	r3,r2
  802818:	00800744 	movi	r2,29
  80281c:	e0be8815 	stw	r2,-1504(fp)
  802820:	009095b4 	movhi	r2,16982
  802824:	1094bc84 	addi	r2,r2,21234
  802828:	e0be8915 	stw	r2,-1500(fp)
  80282c:	00800704 	movi	r2,28
  802830:	e0be8a15 	stw	r2,-1496(fp)
  802834:	0090a4b4 	movhi	r2,17042
  802838:	10b6e984 	addi	r2,r2,-9306
  80283c:	e0be8b15 	stw	r2,-1492(fp)
  802840:	00800a04 	movi	r2,40
  802844:	e0be8c15 	stw	r2,-1488(fp)
  802848:	00909e74 	movhi	r2,17017
  80284c:	109645c4 	addi	r2,r2,22807
  802850:	e0be8d15 	stw	r2,-1484(fp)
  802854:	e0be8804 	addi	r2,fp,-1504
  802858:	013fffb4 	movhi	r4,65534
  80285c:	213d3104 	addi	r4,r4,-2876
  802860:	2709883a 	add	r4,r4,fp
  802864:	20800015 	stw	r2,0(r4)
  802868:	010000c4 	movi	r4,3
  80286c:	00bfffb4 	movhi	r2,65534
  802870:	10bd3204 	addi	r2,r2,-2872
  802874:	1705883a 	add	r2,r2,fp
  802878:	11000015 	stw	r4,0(r2)
  80287c:	00bfffb4 	movhi	r2,65534
  802880:	10bd3104 	addi	r2,r2,-2876
  802884:	1705883a 	add	r2,r2,fp
  802888:	11400017 	ldw	r5,0(r2)
  80288c:	00bfffb4 	movhi	r2,65534
  802890:	10bd3204 	addi	r2,r2,-2872
  802894:	1705883a 	add	r2,r2,fp
  802898:	11800017 	ldw	r6,0(r2)
  80289c:	1809883a 	mov	r4,r3
  8028a0:	08063500 	call	806350 <_ZNSt6vectorISt4pairIifESaIS1_EEaSESt16initializer_listIS1_E>
  adjList[32] = {{33, 83.249}, {17, 92.211}, {34, 197.262}};
  8028a4:	00bffff4 	movhi	r2,65535
  8028a8:	10bdeb04 	addi	r2,r2,-2132
  8028ac:	e0fff804 	addi	r3,fp,-32
  8028b0:	1885883a 	add	r2,r3,r2
  8028b4:	01400804 	movi	r5,32
  8028b8:	1009883a 	mov	r4,r2
  8028bc:	080630c0 	call	80630c <_ZNSt6vectorIS_ISt4pairIifESaIS1_EESaIS3_EEixEj>
  8028c0:	1007883a 	mov	r3,r2
  8028c4:	00800844 	movi	r2,33
  8028c8:	e0be8e15 	stw	r2,-1480(fp)
  8028cc:	0090a9b4 	movhi	r2,17062
  8028d0:	109fdf44 	addi	r2,r2,32637
  8028d4:	e0be8f15 	stw	r2,-1476(fp)
  8028d8:	00800444 	movi	r2,17
  8028dc:	e0be9015 	stw	r2,-1472(fp)
  8028e0:	0090ae34 	movhi	r2,17080
  8028e4:	109b0204 	addi	r2,r2,27656
  8028e8:	e0be9115 	stw	r2,-1468(fp)
  8028ec:	00800884 	movi	r2,34
  8028f0:	e0be9215 	stw	r2,-1464(fp)
  8028f4:	0090d174 	movhi	r2,17221
  8028f8:	1090c484 	addi	r2,r2,17170
  8028fc:	e0be9315 	stw	r2,-1460(fp)
  802900:	e0be8e04 	addi	r2,fp,-1480
  802904:	013fffb4 	movhi	r4,65534
  802908:	213d3304 	addi	r4,r4,-2868
  80290c:	2709883a 	add	r4,r4,fp
  802910:	20800015 	stw	r2,0(r4)
  802914:	010000c4 	movi	r4,3
  802918:	00bfffb4 	movhi	r2,65534
  80291c:	10bd3404 	addi	r2,r2,-2864
  802920:	1705883a 	add	r2,r2,fp
  802924:	11000015 	stw	r4,0(r2)
  802928:	00bfffb4 	movhi	r2,65534
  80292c:	10bd3304 	addi	r2,r2,-2868
  802930:	1705883a 	add	r2,r2,fp
  802934:	11400017 	ldw	r5,0(r2)
  802938:	00bfffb4 	movhi	r2,65534
  80293c:	10bd3404 	addi	r2,r2,-2864
  802940:	1705883a 	add	r2,r2,fp
  802944:	11800017 	ldw	r6,0(r2)
  802948:	1809883a 	mov	r4,r3
  80294c:	08063500 	call	806350 <_ZNSt6vectorISt4pairIifESaIS1_EEaSESt16initializer_listIS1_E>
  adjList[33] = {{2, 8.134}, {32, 83.249}};
  802950:	00bffff4 	movhi	r2,65535
  802954:	10bdeb04 	addi	r2,r2,-2132
  802958:	e0fff804 	addi	r3,fp,-32
  80295c:	1885883a 	add	r2,r3,r2
  802960:	01400844 	movi	r5,33
  802964:	1009883a 	mov	r4,r2
  802968:	080630c0 	call	80630c <_ZNSt6vectorIS_ISt4pairIifESaIS1_EESaIS3_EEixEj>
  80296c:	1007883a 	mov	r3,r2
  802970:	00800084 	movi	r2,2
  802974:	e0be9415 	stw	r2,-1456(fp)
  802978:	009040b4 	movhi	r2,16642
  80297c:	10893744 	addi	r2,r2,9437
  802980:	e0be9515 	stw	r2,-1452(fp)
  802984:	00800804 	movi	r2,32
  802988:	e0be9615 	stw	r2,-1448(fp)
  80298c:	0090a9b4 	movhi	r2,17062
  802990:	109fdf44 	addi	r2,r2,32637
  802994:	e0be9715 	stw	r2,-1444(fp)
  802998:	e0be9404 	addi	r2,fp,-1456
  80299c:	013fffb4 	movhi	r4,65534
  8029a0:	213d3504 	addi	r4,r4,-2860
  8029a4:	2709883a 	add	r4,r4,fp
  8029a8:	20800015 	stw	r2,0(r4)
  8029ac:	00800084 	movi	r2,2
  8029b0:	013fffb4 	movhi	r4,65534
  8029b4:	213d3604 	addi	r4,r4,-2856
  8029b8:	2709883a 	add	r4,r4,fp
  8029bc:	20800015 	stw	r2,0(r4)
  8029c0:	00bfffb4 	movhi	r2,65534
  8029c4:	10bd3504 	addi	r2,r2,-2860
  8029c8:	1705883a 	add	r2,r2,fp
  8029cc:	11400017 	ldw	r5,0(r2)
  8029d0:	00bfffb4 	movhi	r2,65534
  8029d4:	10bd3604 	addi	r2,r2,-2856
  8029d8:	1705883a 	add	r2,r2,fp
  8029dc:	11800017 	ldw	r6,0(r2)
  8029e0:	1809883a 	mov	r4,r3
  8029e4:	08063500 	call	806350 <_ZNSt6vectorISt4pairIifESaIS1_EEaSESt16initializer_listIS1_E>
  adjList[34] = {{16, 55.096}, {32, 197.262}, {17, 160.516}};
  8029e8:	00bffff4 	movhi	r2,65535
  8029ec:	10bdeb04 	addi	r2,r2,-2132
  8029f0:	e0fff804 	addi	r3,fp,-32
  8029f4:	1885883a 	add	r2,r3,r2
  8029f8:	01400884 	movi	r5,34
  8029fc:	1009883a 	mov	r4,r2
  802a00:	080630c0 	call	80630c <_ZNSt6vectorIS_ISt4pairIifESaIS1_EESaIS3_EEixEj>
  802a04:	1007883a 	mov	r3,r2
  802a08:	00800404 	movi	r2,16
  802a0c:	e0be9815 	stw	r2,-1440(fp)
  802a10:	00909734 	movhi	r2,16988
  802a14:	10989384 	addi	r2,r2,25166
  802a18:	e0be9915 	stw	r2,-1436(fp)
  802a1c:	00800804 	movi	r2,32
  802a20:	e0be9a15 	stw	r2,-1432(fp)
  802a24:	0090d174 	movhi	r2,17221
  802a28:	1090c484 	addi	r2,r2,17170
  802a2c:	e0be9b15 	stw	r2,-1428(fp)
  802a30:	00800444 	movi	r2,17
  802a34:	e0be9c15 	stw	r2,-1424(fp)
  802a38:	0090c874 	movhi	r2,17185
  802a3c:	10a10644 	addi	r2,r2,-31719
  802a40:	e0be9d15 	stw	r2,-1420(fp)
  802a44:	e0be9804 	addi	r2,fp,-1440
  802a48:	013fffb4 	movhi	r4,65534
  802a4c:	213d3704 	addi	r4,r4,-2852
  802a50:	2709883a 	add	r4,r4,fp
  802a54:	20800015 	stw	r2,0(r4)
  802a58:	010000c4 	movi	r4,3
  802a5c:	00bfffb4 	movhi	r2,65534
  802a60:	10bd3804 	addi	r2,r2,-2848
  802a64:	1705883a 	add	r2,r2,fp
  802a68:	11000015 	stw	r4,0(r2)
  802a6c:	00bfffb4 	movhi	r2,65534
  802a70:	10bd3704 	addi	r2,r2,-2852
  802a74:	1705883a 	add	r2,r2,fp
  802a78:	11400017 	ldw	r5,0(r2)
  802a7c:	00bfffb4 	movhi	r2,65534
  802a80:	10bd3804 	addi	r2,r2,-2848
  802a84:	1705883a 	add	r2,r2,fp
  802a88:	11800017 	ldw	r6,0(r2)
  802a8c:	1809883a 	mov	r4,r3
  802a90:	08063500 	call	806350 <_ZNSt6vectorISt4pairIifESaIS1_EEaSESt16initializer_listIS1_E>
  adjList[35] = {{36, 52.921}, {37, 65.778}, {38, 49.173}};
  802a94:	00bffff4 	movhi	r2,65535
  802a98:	10bdeb04 	addi	r2,r2,-2132
  802a9c:	e0fff804 	addi	r3,fp,-32
  802aa0:	1885883a 	add	r2,r3,r2
  802aa4:	014008c4 	movi	r5,35
  802aa8:	1009883a 	mov	r4,r2
  802aac:	080630c0 	call	80630c <_ZNSt6vectorIS_ISt4pairIifESaIS1_EESaIS3_EEixEj>
  802ab0:	1007883a 	mov	r3,r2
  802ab4:	00800904 	movi	r2,36
  802ab8:	e0be9e15 	stw	r2,-1416(fp)
  802abc:	00909534 	movhi	r2,16980
  802ac0:	10abc6c4 	addi	r2,r2,-20709
  802ac4:	e0be9f15 	stw	r2,-1412(fp)
  802ac8:	00800944 	movi	r2,37
  802acc:	e0bea015 	stw	r2,-1408(fp)
  802ad0:	0090a134 	movhi	r2,17028
  802ad4:	10a39584 	addi	r2,r2,-29098
  802ad8:	e0bea115 	stw	r2,-1404(fp)
  802adc:	00800984 	movi	r2,38
  802ae0:	e0bea215 	stw	r2,-1400(fp)
  802ae4:	00909174 	movhi	r2,16965
  802ae8:	10ac49c4 	addi	r2,r2,-20185
  802aec:	e0bea315 	stw	r2,-1396(fp)
  802af0:	e0be9e04 	addi	r2,fp,-1416
  802af4:	013fffb4 	movhi	r4,65534
  802af8:	213d3904 	addi	r4,r4,-2844
  802afc:	2709883a 	add	r4,r4,fp
  802b00:	20800015 	stw	r2,0(r4)
  802b04:	010000c4 	movi	r4,3
  802b08:	00bfffb4 	movhi	r2,65534
  802b0c:	10bd3a04 	addi	r2,r2,-2840
  802b10:	1705883a 	add	r2,r2,fp
  802b14:	11000015 	stw	r4,0(r2)
  802b18:	00bfffb4 	movhi	r2,65534
  802b1c:	10bd3904 	addi	r2,r2,-2844
  802b20:	1705883a 	add	r2,r2,fp
  802b24:	11400017 	ldw	r5,0(r2)
  802b28:	00bfffb4 	movhi	r2,65534
  802b2c:	10bd3a04 	addi	r2,r2,-2840
  802b30:	1705883a 	add	r2,r2,fp
  802b34:	11800017 	ldw	r6,0(r2)
  802b38:	1809883a 	mov	r4,r3
  802b3c:	08063500 	call	806350 <_ZNSt6vectorISt4pairIifESaIS1_EEaSESt16initializer_listIS1_E>
  adjList[36] = {{78, 9.761}, {107, 106.961}, {35, 52.921}};
  802b40:	00bffff4 	movhi	r2,65535
  802b44:	10bdeb04 	addi	r2,r2,-2132
  802b48:	e0fff804 	addi	r3,fp,-32
  802b4c:	1885883a 	add	r2,r3,r2
  802b50:	01400904 	movi	r5,36
  802b54:	1009883a 	mov	r4,r2
  802b58:	080630c0 	call	80630c <_ZNSt6vectorIS_ISt4pairIifESaIS1_EESaIS3_EEixEj>
  802b5c:	1007883a 	mov	r3,r2
  802b60:	00801384 	movi	r2,78
  802b64:	e0bea415 	stw	r2,-1392(fp)
  802b68:	00904734 	movhi	r2,16668
  802b6c:	108b4384 	addi	r2,r2,11534
  802b70:	e0bea515 	stw	r2,-1388(fp)
  802b74:	00801ac4 	movi	r2,107
  802b78:	e0bea615 	stw	r2,-1384(fp)
  802b7c:	0090b5b4 	movhi	r2,17110
  802b80:	10bb0204 	addi	r2,r2,-5112
  802b84:	e0bea715 	stw	r2,-1380(fp)
  802b88:	008008c4 	movi	r2,35
  802b8c:	e0bea815 	stw	r2,-1376(fp)
  802b90:	00909534 	movhi	r2,16980
  802b94:	10abc6c4 	addi	r2,r2,-20709
  802b98:	e0bea915 	stw	r2,-1372(fp)
  802b9c:	e0bea404 	addi	r2,fp,-1392
  802ba0:	013fffb4 	movhi	r4,65534
  802ba4:	213d3b04 	addi	r4,r4,-2836
  802ba8:	2709883a 	add	r4,r4,fp
  802bac:	20800015 	stw	r2,0(r4)
  802bb0:	010000c4 	movi	r4,3
  802bb4:	00bfffb4 	movhi	r2,65534
  802bb8:	10bd3c04 	addi	r2,r2,-2832
  802bbc:	1705883a 	add	r2,r2,fp
  802bc0:	11000015 	stw	r4,0(r2)
  802bc4:	00bfffb4 	movhi	r2,65534
  802bc8:	10bd3b04 	addi	r2,r2,-2836
  802bcc:	1705883a 	add	r2,r2,fp
  802bd0:	11400017 	ldw	r5,0(r2)
  802bd4:	00bfffb4 	movhi	r2,65534
  802bd8:	10bd3c04 	addi	r2,r2,-2832
  802bdc:	1705883a 	add	r2,r2,fp
  802be0:	11800017 	ldw	r6,0(r2)
  802be4:	1809883a 	mov	r4,r3
  802be8:	08063500 	call	806350 <_ZNSt6vectorISt4pairIifESaIS1_EEaSESt16initializer_listIS1_E>
  adjList[37] = {{92, 73.342}, {35, 65.778}};
  802bec:	00bffff4 	movhi	r2,65535
  802bf0:	10bdeb04 	addi	r2,r2,-2132
  802bf4:	e0fff804 	addi	r3,fp,-32
  802bf8:	1885883a 	add	r2,r3,r2
  802bfc:	01400944 	movi	r5,37
  802c00:	1009883a 	mov	r4,r2
  802c04:	080630c0 	call	80630c <_ZNSt6vectorIS_ISt4pairIifESaIS1_EESaIS3_EEixEj>
  802c08:	1007883a 	mov	r3,r2
  802c0c:	00801704 	movi	r2,92
  802c10:	e0beaa15 	stw	r2,-1368(fp)
  802c14:	0090a4f4 	movhi	r2,17043
  802c18:	10abc6c4 	addi	r2,r2,-20709
  802c1c:	e0beab15 	stw	r2,-1364(fp)
  802c20:	008008c4 	movi	r2,35
  802c24:	e0beac15 	stw	r2,-1360(fp)
  802c28:	0090a134 	movhi	r2,17028
  802c2c:	10a39584 	addi	r2,r2,-29098
  802c30:	e0bead15 	stw	r2,-1356(fp)
  802c34:	e0beaa04 	addi	r2,fp,-1368
  802c38:	013fffb4 	movhi	r4,65534
  802c3c:	213d3d04 	addi	r4,r4,-2828
  802c40:	2709883a 	add	r4,r4,fp
  802c44:	20800015 	stw	r2,0(r4)
  802c48:	00800084 	movi	r2,2
  802c4c:	013fffb4 	movhi	r4,65534
  802c50:	213d3e04 	addi	r4,r4,-2824
  802c54:	2709883a 	add	r4,r4,fp
  802c58:	20800015 	stw	r2,0(r4)
  802c5c:	00bfffb4 	movhi	r2,65534
  802c60:	10bd3d04 	addi	r2,r2,-2828
  802c64:	1705883a 	add	r2,r2,fp
  802c68:	11400017 	ldw	r5,0(r2)
  802c6c:	00bfffb4 	movhi	r2,65534
  802c70:	10bd3e04 	addi	r2,r2,-2824
  802c74:	1705883a 	add	r2,r2,fp
  802c78:	11800017 	ldw	r6,0(r2)
  802c7c:	1809883a 	mov	r4,r3
  802c80:	08063500 	call	806350 <_ZNSt6vectorISt4pairIifESaIS1_EEaSESt16initializer_listIS1_E>
  adjList[38] = {{91, 68.171}, {35, 49.173}};
  802c84:	00bffff4 	movhi	r2,65535
  802c88:	10bdeb04 	addi	r2,r2,-2132
  802c8c:	e0fff804 	addi	r3,fp,-32
  802c90:	1885883a 	add	r2,r3,r2
  802c94:	01400984 	movi	r5,38
  802c98:	1009883a 	mov	r4,r2
  802c9c:	080630c0 	call	80630c <_ZNSt6vectorIS_ISt4pairIifESaIS1_EESaIS3_EEixEj>
  802ca0:	1007883a 	mov	r3,r2
  802ca4:	008016c4 	movi	r2,91
  802ca8:	e0beae15 	stw	r2,-1352(fp)
  802cac:	0090a234 	movhi	r2,17032
  802cb0:	1095e344 	addi	r2,r2,22413
  802cb4:	e0beaf15 	stw	r2,-1348(fp)
  802cb8:	008008c4 	movi	r2,35
  802cbc:	e0beb015 	stw	r2,-1344(fp)
  802cc0:	00909174 	movhi	r2,16965
  802cc4:	10ac49c4 	addi	r2,r2,-20185
  802cc8:	e0beb115 	stw	r2,-1340(fp)
  802ccc:	e0beae04 	addi	r2,fp,-1352
  802cd0:	013fffb4 	movhi	r4,65534
  802cd4:	213d3f04 	addi	r4,r4,-2820
  802cd8:	2709883a 	add	r4,r4,fp
  802cdc:	20800015 	stw	r2,0(r4)
  802ce0:	00800084 	movi	r2,2
  802ce4:	013fffb4 	movhi	r4,65534
  802ce8:	213d4004 	addi	r4,r4,-2816
  802cec:	2709883a 	add	r4,r4,fp
  802cf0:	20800015 	stw	r2,0(r4)
  802cf4:	00bfffb4 	movhi	r2,65534
  802cf8:	10bd3f04 	addi	r2,r2,-2820
  802cfc:	1705883a 	add	r2,r2,fp
  802d00:	11400017 	ldw	r5,0(r2)
  802d04:	00bfffb4 	movhi	r2,65534
  802d08:	10bd4004 	addi	r2,r2,-2816
  802d0c:	1705883a 	add	r2,r2,fp
  802d10:	11800017 	ldw	r6,0(r2)
  802d14:	1809883a 	mov	r4,r3
  802d18:	08063500 	call	806350 <_ZNSt6vectorISt4pairIifESaIS1_EEaSESt16initializer_listIS1_E>
  adjList[39] = {{29, 28.433}};
  802d1c:	00bffff4 	movhi	r2,65535
  802d20:	10bdeb04 	addi	r2,r2,-2132
  802d24:	e0fff804 	addi	r3,fp,-32
  802d28:	1885883a 	add	r2,r3,r2
  802d2c:	014009c4 	movi	r5,39
  802d30:	1009883a 	mov	r4,r2
  802d34:	080630c0 	call	80630c <_ZNSt6vectorIS_ISt4pairIifESaIS1_EESaIS3_EEixEj>
  802d38:	1007883a 	mov	r3,r2
  802d3c:	00800744 	movi	r2,29
  802d40:	e0beb215 	stw	r2,-1336(fp)
  802d44:	009078f4 	movhi	r2,16867
  802d48:	109db244 	addi	r2,r2,30409
  802d4c:	e0beb315 	stw	r2,-1332(fp)
  802d50:	e0beb204 	addi	r2,fp,-1336
  802d54:	013fffb4 	movhi	r4,65534
  802d58:	213d4104 	addi	r4,r4,-2812
  802d5c:	2709883a 	add	r4,r4,fp
  802d60:	20800015 	stw	r2,0(r4)
  802d64:	01400044 	movi	r5,1
  802d68:	00bfffb4 	movhi	r2,65534
  802d6c:	10bd4204 	addi	r2,r2,-2808
  802d70:	1705883a 	add	r2,r2,fp
  802d74:	11400015 	stw	r5,0(r2)
  802d78:	00bfffb4 	movhi	r2,65534
  802d7c:	10bd4104 	addi	r2,r2,-2812
  802d80:	1705883a 	add	r2,r2,fp
  802d84:	11400017 	ldw	r5,0(r2)
  802d88:	00bfffb4 	movhi	r2,65534
  802d8c:	10bd4204 	addi	r2,r2,-2808
  802d90:	1705883a 	add	r2,r2,fp
  802d94:	11800017 	ldw	r6,0(r2)
  802d98:	1809883a 	mov	r4,r3
  802d9c:	08063500 	call	806350 <_ZNSt6vectorISt4pairIifESaIS1_EEaSESt16initializer_listIS1_E>
  adjList[40] = {{31, 62.337}, {6, 33.73}};
  802da0:	00bffff4 	movhi	r2,65535
  802da4:	10bdeb04 	addi	r2,r2,-2132
  802da8:	e0fff804 	addi	r3,fp,-32
  802dac:	1885883a 	add	r2,r3,r2
  802db0:	01400a04 	movi	r5,40
  802db4:	1009883a 	mov	r4,r2
  802db8:	080630c0 	call	80630c <_ZNSt6vectorIS_ISt4pairIifESaIS1_EESaIS3_EEixEj>
  802dbc:	1007883a 	mov	r3,r2
  802dc0:	008007c4 	movi	r2,31
  802dc4:	e0beb415 	stw	r2,-1328(fp)
  802dc8:	00909e74 	movhi	r2,17017
  802dcc:	109645c4 	addi	r2,r2,22807
  802dd0:	e0beb515 	stw	r2,-1324(fp)
  802dd4:	00800184 	movi	r2,6
  802dd8:	e0beb615 	stw	r2,-1320(fp)
  802ddc:	009081f4 	movhi	r2,16903
  802de0:	10bae144 	addi	r2,r2,-5243
  802de4:	e0beb715 	stw	r2,-1316(fp)
  802de8:	e0beb404 	addi	r2,fp,-1328
  802dec:	013fffb4 	movhi	r4,65534
  802df0:	213d4304 	addi	r4,r4,-2804
  802df4:	2709883a 	add	r4,r4,fp
  802df8:	20800015 	stw	r2,0(r4)
  802dfc:	00800084 	movi	r2,2
  802e00:	013fffb4 	movhi	r4,65534
  802e04:	213d4404 	addi	r4,r4,-2800
  802e08:	2709883a 	add	r4,r4,fp
  802e0c:	20800015 	stw	r2,0(r4)
  802e10:	00bfffb4 	movhi	r2,65534
  802e14:	10bd4304 	addi	r2,r2,-2804
  802e18:	1705883a 	add	r2,r2,fp
  802e1c:	11400017 	ldw	r5,0(r2)
  802e20:	00bfffb4 	movhi	r2,65534
  802e24:	10bd4404 	addi	r2,r2,-2800
  802e28:	1705883a 	add	r2,r2,fp
  802e2c:	11800017 	ldw	r6,0(r2)
  802e30:	1809883a 	mov	r4,r3
  802e34:	08063500 	call	806350 <_ZNSt6vectorISt4pairIifESaIS1_EEaSESt16initializer_listIS1_E>
  adjList[41] = {{42, 10.796}, {43, 154.774}, {44, 122.668}};
  802e38:	00bffff4 	movhi	r2,65535
  802e3c:	10bdeb04 	addi	r2,r2,-2132
  802e40:	e0fff804 	addi	r3,fp,-32
  802e44:	1885883a 	add	r2,r3,r2
  802e48:	01400a44 	movi	r5,41
  802e4c:	1009883a 	mov	r4,r2
  802e50:	080630c0 	call	80630c <_ZNSt6vectorIS_ISt4pairIifESaIS1_EESaIS3_EEixEj>
  802e54:	1007883a 	mov	r3,r2
  802e58:	00800a84 	movi	r2,42
  802e5c:	e0beb815 	stw	r2,-1312(fp)
  802e60:	00904b74 	movhi	r2,16685
  802e64:	10af1a84 	addi	r2,r2,-17302
  802e68:	e0beb915 	stw	r2,-1308(fp)
  802e6c:	00800ac4 	movi	r2,43
  802e70:	e0beba15 	stw	r2,-1304(fp)
  802e74:	0090c6f4 	movhi	r2,17179
  802e78:	10b18944 	addi	r2,r2,-14811
  802e7c:	e0bebb15 	stw	r2,-1300(fp)
  802e80:	00800b04 	movi	r2,44
  802e84:	e0bebc15 	stw	r2,-1296(fp)
  802e88:	0090bd74 	movhi	r2,17141
  802e8c:	10958104 	addi	r2,r2,22020
  802e90:	e0bebd15 	stw	r2,-1292(fp)
  802e94:	e0beb804 	addi	r2,fp,-1312
  802e98:	013fffb4 	movhi	r4,65534
  802e9c:	213d4504 	addi	r4,r4,-2796
  802ea0:	2709883a 	add	r4,r4,fp
  802ea4:	20800015 	stw	r2,0(r4)
  802ea8:	010000c4 	movi	r4,3
  802eac:	00bfffb4 	movhi	r2,65534
  802eb0:	10bd4604 	addi	r2,r2,-2792
  802eb4:	1705883a 	add	r2,r2,fp
  802eb8:	11000015 	stw	r4,0(r2)
  802ebc:	00bfffb4 	movhi	r2,65534
  802ec0:	10bd4504 	addi	r2,r2,-2796
  802ec4:	1705883a 	add	r2,r2,fp
  802ec8:	11400017 	ldw	r5,0(r2)
  802ecc:	00bfffb4 	movhi	r2,65534
  802ed0:	10bd4604 	addi	r2,r2,-2792
  802ed4:	1705883a 	add	r2,r2,fp
  802ed8:	11800017 	ldw	r6,0(r2)
  802edc:	1809883a 	mov	r4,r3
  802ee0:	08063500 	call	806350 <_ZNSt6vectorISt4pairIifESaIS1_EEaSESt16initializer_listIS1_E>
  adjList[42] = {{50, 41.055}, {41, 10.796}, {55, 143.458}};
  802ee4:	00bffff4 	movhi	r2,65535
  802ee8:	10bdeb04 	addi	r2,r2,-2132
  802eec:	e0fff804 	addi	r3,fp,-32
  802ef0:	1885883a 	add	r2,r3,r2
  802ef4:	01400a84 	movi	r5,42
  802ef8:	1009883a 	mov	r4,r2
  802efc:	080630c0 	call	80630c <_ZNSt6vectorIS_ISt4pairIifESaIS1_EESaIS3_EEixEj>
  802f00:	1007883a 	mov	r3,r2
  802f04:	00800c84 	movi	r2,50
  802f08:	e0bebe15 	stw	r2,-1288(fp)
  802f0c:	00908934 	movhi	r2,16932
  802f10:	108e1484 	addi	r2,r2,14418
  802f14:	e0bebf15 	stw	r2,-1284(fp)
  802f18:	00800a44 	movi	r2,41
  802f1c:	e0bec015 	stw	r2,-1280(fp)
  802f20:	00904b74 	movhi	r2,16685
  802f24:	10af1a84 	addi	r2,r2,-17302
  802f28:	e0bec115 	stw	r2,-1276(fp)
  802f2c:	00800dc4 	movi	r2,55
  802f30:	e0bec215 	stw	r2,-1272(fp)
  802f34:	0090c3f4 	movhi	r2,17167
  802f38:	109d4fc4 	addi	r2,r2,30015
  802f3c:	e0bec315 	stw	r2,-1268(fp)
  802f40:	e0bebe04 	addi	r2,fp,-1288
  802f44:	013fffb4 	movhi	r4,65534
  802f48:	213d4704 	addi	r4,r4,-2788
  802f4c:	2709883a 	add	r4,r4,fp
  802f50:	20800015 	stw	r2,0(r4)
  802f54:	010000c4 	movi	r4,3
  802f58:	00bfffb4 	movhi	r2,65534
  802f5c:	10bd4804 	addi	r2,r2,-2784
  802f60:	1705883a 	add	r2,r2,fp
  802f64:	11000015 	stw	r4,0(r2)
  802f68:	00bfffb4 	movhi	r2,65534
  802f6c:	10bd4704 	addi	r2,r2,-2788
  802f70:	1705883a 	add	r2,r2,fp
  802f74:	11400017 	ldw	r5,0(r2)
  802f78:	00bfffb4 	movhi	r2,65534
  802f7c:	10bd4804 	addi	r2,r2,-2784
  802f80:	1705883a 	add	r2,r2,fp
  802f84:	11800017 	ldw	r6,0(r2)
  802f88:	1809883a 	mov	r4,r3
  802f8c:	08063500 	call	806350 <_ZNSt6vectorISt4pairIifESaIS1_EEaSESt16initializer_listIS1_E>
  adjList[43] = {{41, 154.774}};
  802f90:	00bffff4 	movhi	r2,65535
  802f94:	10bdeb04 	addi	r2,r2,-2132
  802f98:	e0fff804 	addi	r3,fp,-32
  802f9c:	1885883a 	add	r2,r3,r2
  802fa0:	01400ac4 	movi	r5,43
  802fa4:	1009883a 	mov	r4,r2
  802fa8:	080630c0 	call	80630c <_ZNSt6vectorIS_ISt4pairIifESaIS1_EESaIS3_EEixEj>
  802fac:	1007883a 	mov	r3,r2
  802fb0:	00800a44 	movi	r2,41
  802fb4:	e0bec415 	stw	r2,-1264(fp)
  802fb8:	0090c6f4 	movhi	r2,17179
  802fbc:	10b18944 	addi	r2,r2,-14811
  802fc0:	e0bec515 	stw	r2,-1260(fp)
  802fc4:	e0bec404 	addi	r2,fp,-1264
  802fc8:	013fffb4 	movhi	r4,65534
  802fcc:	213d4904 	addi	r4,r4,-2780
  802fd0:	2709883a 	add	r4,r4,fp
  802fd4:	20800015 	stw	r2,0(r4)
  802fd8:	01400044 	movi	r5,1
  802fdc:	00bfffb4 	movhi	r2,65534
  802fe0:	10bd4a04 	addi	r2,r2,-2776
  802fe4:	1705883a 	add	r2,r2,fp
  802fe8:	11400015 	stw	r5,0(r2)
  802fec:	00bfffb4 	movhi	r2,65534
  802ff0:	10bd4904 	addi	r2,r2,-2780
  802ff4:	1705883a 	add	r2,r2,fp
  802ff8:	11400017 	ldw	r5,0(r2)
  802ffc:	00bfffb4 	movhi	r2,65534
  803000:	10bd4a04 	addi	r2,r2,-2776
  803004:	1705883a 	add	r2,r2,fp
  803008:	11800017 	ldw	r6,0(r2)
  80300c:	1809883a 	mov	r4,r3
  803010:	08063500 	call	806350 <_ZNSt6vectorISt4pairIifESaIS1_EEaSESt16initializer_listIS1_E>
  adjList[44] = {{41, 122.668}};
  803014:	00bffff4 	movhi	r2,65535
  803018:	10bdeb04 	addi	r2,r2,-2132
  80301c:	e0fff804 	addi	r3,fp,-32
  803020:	1885883a 	add	r2,r3,r2
  803024:	01400b04 	movi	r5,44
  803028:	1009883a 	mov	r4,r2
  80302c:	080630c0 	call	80630c <_ZNSt6vectorIS_ISt4pairIifESaIS1_EESaIS3_EEixEj>
  803030:	1007883a 	mov	r3,r2
  803034:	00800a44 	movi	r2,41
  803038:	e0bec615 	stw	r2,-1256(fp)
  80303c:	0090bd74 	movhi	r2,17141
  803040:	10958104 	addi	r2,r2,22020
  803044:	e0bec715 	stw	r2,-1252(fp)
  803048:	e0bec604 	addi	r2,fp,-1256
  80304c:	013fffb4 	movhi	r4,65534
  803050:	213d4b04 	addi	r4,r4,-2772
  803054:	2709883a 	add	r4,r4,fp
  803058:	20800015 	stw	r2,0(r4)
  80305c:	01400044 	movi	r5,1
  803060:	00bfffb4 	movhi	r2,65534
  803064:	10bd4c04 	addi	r2,r2,-2768
  803068:	1705883a 	add	r2,r2,fp
  80306c:	11400015 	stw	r5,0(r2)
  803070:	00bfffb4 	movhi	r2,65534
  803074:	10bd4b04 	addi	r2,r2,-2772
  803078:	1705883a 	add	r2,r2,fp
  80307c:	11400017 	ldw	r5,0(r2)
  803080:	00bfffb4 	movhi	r2,65534
  803084:	10bd4c04 	addi	r2,r2,-2768
  803088:	1705883a 	add	r2,r2,fp
  80308c:	11800017 	ldw	r6,0(r2)
  803090:	1809883a 	mov	r4,r3
  803094:	08063500 	call	806350 <_ZNSt6vectorISt4pairIifESaIS1_EEaSESt16initializer_listIS1_E>
  adjList[45] = {{46, 64.446}, {47, 45.849}};
  803098:	00bffff4 	movhi	r2,65535
  80309c:	10bdeb04 	addi	r2,r2,-2132
  8030a0:	e0fff804 	addi	r3,fp,-32
  8030a4:	1885883a 	add	r2,r3,r2
  8030a8:	01400b44 	movi	r5,45
  8030ac:	1009883a 	mov	r4,r2
  8030b0:	080630c0 	call	80630c <_ZNSt6vectorIS_ISt4pairIifESaIS1_EESaIS3_EEixEj>
  8030b4:	1007883a 	mov	r3,r2
  8030b8:	00800b84 	movi	r2,46
  8030bc:	e0bec815 	stw	r2,-1248(fp)
  8030c0:	0090a074 	movhi	r2,17025
  8030c4:	10b91684 	addi	r2,r2,-7078
  8030c8:	e0bec915 	stw	r2,-1244(fp)
  8030cc:	00800bc4 	movi	r2,47
  8030d0:	e0beca15 	stw	r2,-1240(fp)
  8030d4:	00908df4 	movhi	r2,16951
  8030d8:	10995804 	addi	r2,r2,25952
  8030dc:	e0becb15 	stw	r2,-1236(fp)
  8030e0:	e0bec804 	addi	r2,fp,-1248
  8030e4:	013fffb4 	movhi	r4,65534
  8030e8:	213d4d04 	addi	r4,r4,-2764
  8030ec:	2709883a 	add	r4,r4,fp
  8030f0:	20800015 	stw	r2,0(r4)
  8030f4:	00800084 	movi	r2,2
  8030f8:	013fffb4 	movhi	r4,65534
  8030fc:	213d4e04 	addi	r4,r4,-2760
  803100:	2709883a 	add	r4,r4,fp
  803104:	20800015 	stw	r2,0(r4)
  803108:	00bfffb4 	movhi	r2,65534
  80310c:	10bd4d04 	addi	r2,r2,-2764
  803110:	1705883a 	add	r2,r2,fp
  803114:	11400017 	ldw	r5,0(r2)
  803118:	00bfffb4 	movhi	r2,65534
  80311c:	10bd4e04 	addi	r2,r2,-2760
  803120:	1705883a 	add	r2,r2,fp
  803124:	11800017 	ldw	r6,0(r2)
  803128:	1809883a 	mov	r4,r3
  80312c:	08063500 	call	806350 <_ZNSt6vectorISt4pairIifESaIS1_EEaSESt16initializer_listIS1_E>
  adjList[46] = {{90, 66.782}, {74, 187.738}};
  803130:	00bffff4 	movhi	r2,65535
  803134:	10bdeb04 	addi	r2,r2,-2132
  803138:	e0fff804 	addi	r3,fp,-32
  80313c:	1885883a 	add	r2,r3,r2
  803140:	01400b84 	movi	r5,46
  803144:	1009883a 	mov	r4,r2
  803148:	080630c0 	call	80630c <_ZNSt6vectorIS_ISt4pairIifESaIS1_EESaIS3_EEixEj>
  80314c:	1007883a 	mov	r3,r2
  803150:	00801684 	movi	r2,90
  803154:	e0becc15 	stw	r2,-1232(fp)
  803158:	0090a1b4 	movhi	r2,17030
  80315c:	10a41884 	addi	r2,r2,-28574
  803160:	e0becd15 	stw	r2,-1228(fp)
  803164:	00801284 	movi	r2,74
  803168:	e0bece15 	stw	r2,-1224(fp)
  80316c:	0090cf34 	movhi	r2,17212
  803170:	10af3b84 	addi	r2,r2,-17170
  803174:	e0becf15 	stw	r2,-1220(fp)
  803178:	e0becc04 	addi	r2,fp,-1232
  80317c:	013fffb4 	movhi	r4,65534
  803180:	213d4f04 	addi	r4,r4,-2756
  803184:	2709883a 	add	r4,r4,fp
  803188:	20800015 	stw	r2,0(r4)
  80318c:	00800084 	movi	r2,2
  803190:	013fffb4 	movhi	r4,65534
  803194:	213d5004 	addi	r4,r4,-2752
  803198:	2709883a 	add	r4,r4,fp
  80319c:	20800015 	stw	r2,0(r4)
  8031a0:	00bfffb4 	movhi	r2,65534
  8031a4:	10bd4f04 	addi	r2,r2,-2756
  8031a8:	1705883a 	add	r2,r2,fp
  8031ac:	11400017 	ldw	r5,0(r2)
  8031b0:	00bfffb4 	movhi	r2,65534
  8031b4:	10bd5004 	addi	r2,r2,-2752
  8031b8:	1705883a 	add	r2,r2,fp
  8031bc:	11800017 	ldw	r6,0(r2)
  8031c0:	1809883a 	mov	r4,r3
  8031c4:	08063500 	call	806350 <_ZNSt6vectorISt4pairIifESaIS1_EEaSESt16initializer_listIS1_E>
  adjList[47] = {{45, 45.849}, {79, 49.829}};
  8031c8:	00bffff4 	movhi	r2,65535
  8031cc:	10bdeb04 	addi	r2,r2,-2132
  8031d0:	e0fff804 	addi	r3,fp,-32
  8031d4:	1885883a 	add	r2,r3,r2
  8031d8:	01400bc4 	movi	r5,47
  8031dc:	1009883a 	mov	r4,r2
  8031e0:	080630c0 	call	80630c <_ZNSt6vectorIS_ISt4pairIifESaIS1_EESaIS3_EEixEj>
  8031e4:	1007883a 	mov	r3,r2
  8031e8:	00800b44 	movi	r2,45
  8031ec:	e0bed015 	stw	r2,-1216(fp)
  8031f0:	00908df4 	movhi	r2,16951
  8031f4:	10995804 	addi	r2,r2,25952
  8031f8:	e0bed115 	stw	r2,-1212(fp)
  8031fc:	008013c4 	movi	r2,79
  803200:	e0bed215 	stw	r2,-1208(fp)
  803204:	009091f4 	movhi	r2,16967
  803208:	10943944 	addi	r2,r2,20709
  80320c:	e0bed315 	stw	r2,-1204(fp)
  803210:	e0bed004 	addi	r2,fp,-1216
  803214:	013fffb4 	movhi	r4,65534
  803218:	213d5104 	addi	r4,r4,-2748
  80321c:	2709883a 	add	r4,r4,fp
  803220:	20800015 	stw	r2,0(r4)
  803224:	00800084 	movi	r2,2
  803228:	013fffb4 	movhi	r4,65534
  80322c:	213d5204 	addi	r4,r4,-2744
  803230:	2709883a 	add	r4,r4,fp
  803234:	20800015 	stw	r2,0(r4)
  803238:	00bfffb4 	movhi	r2,65534
  80323c:	10bd5104 	addi	r2,r2,-2748
  803240:	1705883a 	add	r2,r2,fp
  803244:	11400017 	ldw	r5,0(r2)
  803248:	00bfffb4 	movhi	r2,65534
  80324c:	10bd5204 	addi	r2,r2,-2744
  803250:	1705883a 	add	r2,r2,fp
  803254:	11800017 	ldw	r6,0(r2)
  803258:	1809883a 	mov	r4,r3
  80325c:	08063500 	call	806350 <_ZNSt6vectorISt4pairIifESaIS1_EEaSESt16initializer_listIS1_E>
  adjList[48] = {{49, 48.283}};
  803260:	00bffff4 	movhi	r2,65535
  803264:	10bdeb04 	addi	r2,r2,-2132
  803268:	e0fff804 	addi	r3,fp,-32
  80326c:	1885883a 	add	r2,r3,r2
  803270:	01400c04 	movi	r5,48
  803274:	1009883a 	mov	r4,r2
  803278:	080630c0 	call	80630c <_ZNSt6vectorIS_ISt4pairIifESaIS1_EESaIS3_EEixEj>
  80327c:	1007883a 	mov	r3,r2
  803280:	00800c44 	movi	r2,49
  803284:	e0bed415 	stw	r2,-1200(fp)
  803288:	00909074 	movhi	r2,16961
  80328c:	108872c4 	addi	r2,r2,8651
  803290:	e0bed515 	stw	r2,-1196(fp)
  803294:	e0bed404 	addi	r2,fp,-1200
  803298:	013fffb4 	movhi	r4,65534
  80329c:	213d5304 	addi	r4,r4,-2740
  8032a0:	2709883a 	add	r4,r4,fp
  8032a4:	20800015 	stw	r2,0(r4)
  8032a8:	01400044 	movi	r5,1
  8032ac:	00bfffb4 	movhi	r2,65534
  8032b0:	10bd5404 	addi	r2,r2,-2736
  8032b4:	1705883a 	add	r2,r2,fp
  8032b8:	11400015 	stw	r5,0(r2)
  8032bc:	00bfffb4 	movhi	r2,65534
  8032c0:	10bd5304 	addi	r2,r2,-2740
  8032c4:	1705883a 	add	r2,r2,fp
  8032c8:	11400017 	ldw	r5,0(r2)
  8032cc:	00bfffb4 	movhi	r2,65534
  8032d0:	10bd5404 	addi	r2,r2,-2736
  8032d4:	1705883a 	add	r2,r2,fp
  8032d8:	11800017 	ldw	r6,0(r2)
  8032dc:	1809883a 	mov	r4,r3
  8032e0:	08063500 	call	806350 <_ZNSt6vectorISt4pairIifESaIS1_EEaSESt16initializer_listIS1_E>
  adjList[49] = {{26, 61.768}, {23, 24.546}, {48, 48.283}};
  8032e4:	00bffff4 	movhi	r2,65535
  8032e8:	10bdeb04 	addi	r2,r2,-2132
  8032ec:	e0fff804 	addi	r3,fp,-32
  8032f0:	1885883a 	add	r2,r3,r2
  8032f4:	01400c44 	movi	r5,49
  8032f8:	1009883a 	mov	r4,r2
  8032fc:	080630c0 	call	80630c <_ZNSt6vectorIS_ISt4pairIifESaIS1_EESaIS3_EEixEj>
  803300:	1007883a 	mov	r3,r2
  803304:	00800684 	movi	r2,26
  803308:	e0bed615 	stw	r2,-1192(fp)
  80330c:	00909df4 	movhi	r2,17015
  803310:	10849bc4 	addi	r2,r2,4719
  803314:	e0bed715 	stw	r2,-1188(fp)
  803318:	008005c4 	movi	r2,23
  80331c:	e0bed815 	stw	r2,-1184(fp)
  803320:	00907134 	movhi	r2,16836
  803324:	10978d44 	addi	r2,r2,24117
  803328:	e0bed915 	stw	r2,-1180(fp)
  80332c:	00800c04 	movi	r2,48
  803330:	e0beda15 	stw	r2,-1176(fp)
  803334:	00909074 	movhi	r2,16961
  803338:	108872c4 	addi	r2,r2,8651
  80333c:	e0bedb15 	stw	r2,-1172(fp)
  803340:	e0bed604 	addi	r2,fp,-1192
  803344:	013fffb4 	movhi	r4,65534
  803348:	213d5504 	addi	r4,r4,-2732
  80334c:	2709883a 	add	r4,r4,fp
  803350:	20800015 	stw	r2,0(r4)
  803354:	010000c4 	movi	r4,3
  803358:	00bfffb4 	movhi	r2,65534
  80335c:	10bd5604 	addi	r2,r2,-2728
  803360:	1705883a 	add	r2,r2,fp
  803364:	11000015 	stw	r4,0(r2)
  803368:	00bfffb4 	movhi	r2,65534
  80336c:	10bd5504 	addi	r2,r2,-2732
  803370:	1705883a 	add	r2,r2,fp
  803374:	11400017 	ldw	r5,0(r2)
  803378:	00bfffb4 	movhi	r2,65534
  80337c:	10bd5604 	addi	r2,r2,-2728
  803380:	1705883a 	add	r2,r2,fp
  803384:	11800017 	ldw	r6,0(r2)
  803388:	1809883a 	mov	r4,r3
  80338c:	08063500 	call	806350 <_ZNSt6vectorISt4pairIifESaIS1_EEaSESt16initializer_listIS1_E>
  adjList[50] = {{42, 41.055}, {5, 181.396}, {78, 266.825}};
  803390:	00bffff4 	movhi	r2,65535
  803394:	10bdeb04 	addi	r2,r2,-2132
  803398:	e0fff804 	addi	r3,fp,-32
  80339c:	1885883a 	add	r2,r3,r2
  8033a0:	01400c84 	movi	r5,50
  8033a4:	1009883a 	mov	r4,r2
  8033a8:	080630c0 	call	80630c <_ZNSt6vectorIS_ISt4pairIifESaIS1_EESaIS3_EEixEj>
  8033ac:	1007883a 	mov	r3,r2
  8033b0:	00800a84 	movi	r2,42
  8033b4:	e0bedc15 	stw	r2,-1168(fp)
  8033b8:	00908934 	movhi	r2,16932
  8033bc:	108e1484 	addi	r2,r2,14418
  8033c0:	e0bedd15 	stw	r2,-1164(fp)
  8033c4:	00800144 	movi	r2,5
  8033c8:	e0bede15 	stw	r2,-1160(fp)
  8033cc:	0090cd74 	movhi	r2,17205
  8033d0:	10995804 	addi	r2,r2,25952
  8033d4:	e0bedf15 	stw	r2,-1156(fp)
  8033d8:	00801384 	movi	r2,78
  8033dc:	e0bee015 	stw	r2,-1152(fp)
  8033e0:	0090e174 	movhi	r2,17285
  8033e4:	109a6684 	addi	r2,r2,27034
  8033e8:	e0bee115 	stw	r2,-1148(fp)
  8033ec:	e0bedc04 	addi	r2,fp,-1168
  8033f0:	013fffb4 	movhi	r4,65534
  8033f4:	213d5704 	addi	r4,r4,-2724
  8033f8:	2709883a 	add	r4,r4,fp
  8033fc:	20800015 	stw	r2,0(r4)
  803400:	010000c4 	movi	r4,3
  803404:	00bfffb4 	movhi	r2,65534
  803408:	10bd5804 	addi	r2,r2,-2720
  80340c:	1705883a 	add	r2,r2,fp
  803410:	11000015 	stw	r4,0(r2)
  803414:	00bfffb4 	movhi	r2,65534
  803418:	10bd5704 	addi	r2,r2,-2724
  80341c:	1705883a 	add	r2,r2,fp
  803420:	11400017 	ldw	r5,0(r2)
  803424:	00bfffb4 	movhi	r2,65534
  803428:	10bd5804 	addi	r2,r2,-2720
  80342c:	1705883a 	add	r2,r2,fp
  803430:	11800017 	ldw	r6,0(r2)
  803434:	1809883a 	mov	r4,r3
  803438:	08063500 	call	806350 <_ZNSt6vectorISt4pairIifESaIS1_EEaSESt16initializer_listIS1_E>
  adjList[51] = {{5, 183.129}, {52, 282.168}, {75, 42.826}};
  80343c:	00bffff4 	movhi	r2,65535
  803440:	10bdeb04 	addi	r2,r2,-2132
  803444:	e0fff804 	addi	r3,fp,-32
  803448:	1885883a 	add	r2,r3,r2
  80344c:	01400cc4 	movi	r5,51
  803450:	1009883a 	mov	r4,r2
  803454:	080630c0 	call	80630c <_ZNSt6vectorIS_ISt4pairIifESaIS1_EESaIS3_EEixEj>
  803458:	1007883a 	mov	r3,r2
  80345c:	00800144 	movi	r2,5
  803460:	e0bee215 	stw	r2,-1144(fp)
  803464:	0090cdf4 	movhi	r2,17207
  803468:	10884184 	addi	r2,r2,8454
  80346c:	e0bee315 	stw	r2,-1140(fp)
  803470:	00800d04 	movi	r2,52
  803474:	e0bee415 	stw	r2,-1136(fp)
  803478:	0090e374 	movhi	r2,17293
  80347c:	10856044 	addi	r2,r2,5505
  803480:	e0bee515 	stw	r2,-1132(fp)
  803484:	008012c4 	movi	r2,75
  803488:	e0bee615 	stw	r2,-1128(fp)
  80348c:	00908af4 	movhi	r2,16939
  803490:	109374c4 	addi	r2,r2,19923
  803494:	e0bee715 	stw	r2,-1124(fp)
  803498:	e0bee204 	addi	r2,fp,-1144
  80349c:	013fffb4 	movhi	r4,65534
  8034a0:	213d5904 	addi	r4,r4,-2716
  8034a4:	2709883a 	add	r4,r4,fp
  8034a8:	20800015 	stw	r2,0(r4)
  8034ac:	010000c4 	movi	r4,3
  8034b0:	00bfffb4 	movhi	r2,65534
  8034b4:	10bd5a04 	addi	r2,r2,-2712
  8034b8:	1705883a 	add	r2,r2,fp
  8034bc:	11000015 	stw	r4,0(r2)
  8034c0:	00bfffb4 	movhi	r2,65534
  8034c4:	10bd5904 	addi	r2,r2,-2716
  8034c8:	1705883a 	add	r2,r2,fp
  8034cc:	11400017 	ldw	r5,0(r2)
  8034d0:	00bfffb4 	movhi	r2,65534
  8034d4:	10bd5a04 	addi	r2,r2,-2712
  8034d8:	1705883a 	add	r2,r2,fp
  8034dc:	11800017 	ldw	r6,0(r2)
  8034e0:	1809883a 	mov	r4,r3
  8034e4:	08063500 	call	806350 <_ZNSt6vectorISt4pairIifESaIS1_EEaSESt16initializer_listIS1_E>
  adjList[52] = {{53, 43.977}, {54, 50.728}, {51, 282.168}};
  8034e8:	00bffff4 	movhi	r2,65535
  8034ec:	10bdeb04 	addi	r2,r2,-2132
  8034f0:	e0fff804 	addi	r3,fp,-32
  8034f4:	1885883a 	add	r2,r3,r2
  8034f8:	01400d04 	movi	r5,52
  8034fc:	1009883a 	mov	r4,r2
  803500:	080630c0 	call	80630c <_ZNSt6vectorIS_ISt4pairIifESaIS1_EESaIS3_EEixEj>
  803504:	1007883a 	mov	r3,r2
  803508:	00800d44 	movi	r2,53
  80350c:	e0bee815 	stw	r2,-1120(fp)
  803510:	00908c34 	movhi	r2,16944
  803514:	10ba1cc4 	addi	r2,r2,-6029
  803518:	e0bee915 	stw	r2,-1116(fp)
  80351c:	00800d84 	movi	r2,54
  803520:	e0beea15 	stw	r2,-1112(fp)
  803524:	009092f4 	movhi	r2,16971
  803528:	10ba5e44 	addi	r2,r2,-5767
  80352c:	e0beeb15 	stw	r2,-1108(fp)
  803530:	00800cc4 	movi	r2,51
  803534:	e0beec15 	stw	r2,-1104(fp)
  803538:	0090e374 	movhi	r2,17293
  80353c:	10856044 	addi	r2,r2,5505
  803540:	e0beed15 	stw	r2,-1100(fp)
  803544:	e0bee804 	addi	r2,fp,-1120
  803548:	013fffb4 	movhi	r4,65534
  80354c:	213d5b04 	addi	r4,r4,-2708
  803550:	2709883a 	add	r4,r4,fp
  803554:	20800015 	stw	r2,0(r4)
  803558:	010000c4 	movi	r4,3
  80355c:	00bfffb4 	movhi	r2,65534
  803560:	10bd5c04 	addi	r2,r2,-2704
  803564:	1705883a 	add	r2,r2,fp
  803568:	11000015 	stw	r4,0(r2)
  80356c:	00bfffb4 	movhi	r2,65534
  803570:	10bd5b04 	addi	r2,r2,-2708
  803574:	1705883a 	add	r2,r2,fp
  803578:	11400017 	ldw	r5,0(r2)
  80357c:	00bfffb4 	movhi	r2,65534
  803580:	10bd5c04 	addi	r2,r2,-2704
  803584:	1705883a 	add	r2,r2,fp
  803588:	11800017 	ldw	r6,0(r2)
  80358c:	1809883a 	mov	r4,r3
  803590:	08063500 	call	806350 <_ZNSt6vectorISt4pairIifESaIS1_EEaSESt16initializer_listIS1_E>
  adjList[53] = {{52, 43.977}, {86, 103.918}, {65, 84.102}};
  803594:	00bffff4 	movhi	r2,65535
  803598:	10bdeb04 	addi	r2,r2,-2132
  80359c:	e0fff804 	addi	r3,fp,-32
  8035a0:	1885883a 	add	r2,r3,r2
  8035a4:	01400d44 	movi	r5,53
  8035a8:	1009883a 	mov	r4,r2
  8035ac:	080630c0 	call	80630c <_ZNSt6vectorIS_ISt4pairIifESaIS1_EESaIS3_EEixEj>
  8035b0:	1007883a 	mov	r3,r2
  8035b4:	00800d04 	movi	r2,52
  8035b8:	e0beee15 	stw	r2,-1096(fp)
  8035bc:	00908c34 	movhi	r2,16944
  8035c0:	10ba1cc4 	addi	r2,r2,-6029
  8035c4:	e0beef15 	stw	r2,-1092(fp)
  8035c8:	00801584 	movi	r2,86
  8035cc:	e0bef015 	stw	r2,-1088(fp)
  8035d0:	0090b434 	movhi	r2,17104
  8035d4:	10b58104 	addi	r2,r2,-10748
  8035d8:	e0bef115 	stw	r2,-1084(fp)
  8035dc:	00801044 	movi	r2,65
  8035e0:	e0bef215 	stw	r2,-1080(fp)
  8035e4:	0090aa34 	movhi	r2,17064
  8035e8:	108d0e44 	addi	r2,r2,13369
  8035ec:	e0bef315 	stw	r2,-1076(fp)
  8035f0:	e0beee04 	addi	r2,fp,-1096
  8035f4:	013fffb4 	movhi	r4,65534
  8035f8:	213d5d04 	addi	r4,r4,-2700
  8035fc:	2709883a 	add	r4,r4,fp
  803600:	20800015 	stw	r2,0(r4)
  803604:	010000c4 	movi	r4,3
  803608:	00bfffb4 	movhi	r2,65534
  80360c:	10bd5e04 	addi	r2,r2,-2696
  803610:	1705883a 	add	r2,r2,fp
  803614:	11000015 	stw	r4,0(r2)
  803618:	00bfffb4 	movhi	r2,65534
  80361c:	10bd5d04 	addi	r2,r2,-2700
  803620:	1705883a 	add	r2,r2,fp
  803624:	11400017 	ldw	r5,0(r2)
  803628:	00bfffb4 	movhi	r2,65534
  80362c:	10bd5e04 	addi	r2,r2,-2696
  803630:	1705883a 	add	r2,r2,fp
  803634:	11800017 	ldw	r6,0(r2)
  803638:	1809883a 	mov	r4,r3
  80363c:	08063500 	call	806350 <_ZNSt6vectorISt4pairIifESaIS1_EEaSESt16initializer_listIS1_E>
  adjList[54] = {{52, 50.728}, {85, 26.736}, {88, 145.457}};
  803640:	00bffff4 	movhi	r2,65535
  803644:	10bdeb04 	addi	r2,r2,-2132
  803648:	e0fff804 	addi	r3,fp,-32
  80364c:	1885883a 	add	r2,r3,r2
  803650:	01400d84 	movi	r5,54
  803654:	1009883a 	mov	r4,r2
  803658:	080630c0 	call	80630c <_ZNSt6vectorIS_ISt4pairIifESaIS1_EESaIS3_EEixEj>
  80365c:	1007883a 	mov	r3,r2
  803660:	00800d04 	movi	r2,52
  803664:	e0bef415 	stw	r2,-1072(fp)
  803668:	009092f4 	movhi	r2,16971
  80366c:	10ba5e44 	addi	r2,r2,-5767
  803670:	e0bef515 	stw	r2,-1068(fp)
  803674:	00801544 	movi	r2,85
  803678:	e0bef615 	stw	r2,-1064(fp)
  80367c:	009075b4 	movhi	r2,16854
  803680:	10b8d504 	addi	r2,r2,-7340
  803684:	e0bef715 	stw	r2,-1060(fp)
  803688:	00801604 	movi	r2,88
  80368c:	e0bef815 	stw	r2,-1056(fp)
  803690:	0090c474 	movhi	r2,17169
  803694:	109d3f84 	addi	r2,r2,29950
  803698:	e0bef915 	stw	r2,-1052(fp)
  80369c:	e0bef404 	addi	r2,fp,-1072
  8036a0:	013fffb4 	movhi	r4,65534
  8036a4:	213d5f04 	addi	r4,r4,-2692
  8036a8:	2709883a 	add	r4,r4,fp
  8036ac:	20800015 	stw	r2,0(r4)
  8036b0:	010000c4 	movi	r4,3
  8036b4:	00bfffb4 	movhi	r2,65534
  8036b8:	10bd6004 	addi	r2,r2,-2688
  8036bc:	1705883a 	add	r2,r2,fp
  8036c0:	11000015 	stw	r4,0(r2)
  8036c4:	00bfffb4 	movhi	r2,65534
  8036c8:	10bd5f04 	addi	r2,r2,-2692
  8036cc:	1705883a 	add	r2,r2,fp
  8036d0:	11400017 	ldw	r5,0(r2)
  8036d4:	00bfffb4 	movhi	r2,65534
  8036d8:	10bd6004 	addi	r2,r2,-2688
  8036dc:	1705883a 	add	r2,r2,fp
  8036e0:	11800017 	ldw	r6,0(r2)
  8036e4:	1809883a 	mov	r4,r3
  8036e8:	08063500 	call	806350 <_ZNSt6vectorISt4pairIifESaIS1_EEaSESt16initializer_listIS1_E>
  adjList[55] = {{42, 143.458}};
  8036ec:	00bffff4 	movhi	r2,65535
  8036f0:	10bdeb04 	addi	r2,r2,-2132
  8036f4:	e0fff804 	addi	r3,fp,-32
  8036f8:	1885883a 	add	r2,r3,r2
  8036fc:	01400dc4 	movi	r5,55
  803700:	1009883a 	mov	r4,r2
  803704:	080630c0 	call	80630c <_ZNSt6vectorIS_ISt4pairIifESaIS1_EESaIS3_EEixEj>
  803708:	1007883a 	mov	r3,r2
  80370c:	00800a84 	movi	r2,42
  803710:	e0befa15 	stw	r2,-1048(fp)
  803714:	0090c3f4 	movhi	r2,17167
  803718:	109d4fc4 	addi	r2,r2,30015
  80371c:	e0befb15 	stw	r2,-1044(fp)
  803720:	e0befa04 	addi	r2,fp,-1048
  803724:	013fffb4 	movhi	r4,65534
  803728:	213d6104 	addi	r4,r4,-2684
  80372c:	2709883a 	add	r4,r4,fp
  803730:	20800015 	stw	r2,0(r4)
  803734:	01400044 	movi	r5,1
  803738:	00bfffb4 	movhi	r2,65534
  80373c:	10bd6204 	addi	r2,r2,-2680
  803740:	1705883a 	add	r2,r2,fp
  803744:	11400015 	stw	r5,0(r2)
  803748:	00bfffb4 	movhi	r2,65534
  80374c:	10bd6104 	addi	r2,r2,-2684
  803750:	1705883a 	add	r2,r2,fp
  803754:	11400017 	ldw	r5,0(r2)
  803758:	00bfffb4 	movhi	r2,65534
  80375c:	10bd6204 	addi	r2,r2,-2680
  803760:	1705883a 	add	r2,r2,fp
  803764:	11800017 	ldw	r6,0(r2)
  803768:	1809883a 	mov	r4,r3
  80376c:	08063500 	call	806350 <_ZNSt6vectorISt4pairIifESaIS1_EEaSESt16initializer_listIS1_E>
  adjList[56] = {{57, 82.659}, {58, 55.22}, {59, 12.015}};
  803770:	00bffff4 	movhi	r2,65535
  803774:	10bdeb04 	addi	r2,r2,-2132
  803778:	e0fff804 	addi	r3,fp,-32
  80377c:	1885883a 	add	r2,r3,r2
  803780:	01400e04 	movi	r5,56
  803784:	1009883a 	mov	r4,r2
  803788:	080630c0 	call	80630c <_ZNSt6vectorIS_ISt4pairIifESaIS1_EESaIS3_EEixEj>
  80378c:	1007883a 	mov	r3,r2
  803790:	00800e44 	movi	r2,57
  803794:	e0befc15 	stw	r2,-1040(fp)
  803798:	0090a974 	movhi	r2,17061
  80379c:	10945a04 	addi	r2,r2,20840
  8037a0:	e0befd15 	stw	r2,-1036(fp)
  8037a4:	00800e84 	movi	r2,58
  8037a8:	e0befe15 	stw	r2,-1032(fp)
  8037ac:	00909774 	movhi	r2,16989
  8037b0:	10b85204 	addi	r2,r2,-7864
  8037b4:	e0beff15 	stw	r2,-1028(fp)
  8037b8:	00800ec4 	movi	r2,59
  8037bc:	e0bf0015 	stw	r2,-1024(fp)
  8037c0:	00905034 	movhi	r2,16704
  8037c4:	108f5c44 	addi	r2,r2,15729
  8037c8:	e0bf0115 	stw	r2,-1020(fp)
  8037cc:	e0befc04 	addi	r2,fp,-1040
  8037d0:	013fffb4 	movhi	r4,65534
  8037d4:	213d6304 	addi	r4,r4,-2676
  8037d8:	2709883a 	add	r4,r4,fp
  8037dc:	20800015 	stw	r2,0(r4)
  8037e0:	010000c4 	movi	r4,3
  8037e4:	00bfffb4 	movhi	r2,65534
  8037e8:	10bd6404 	addi	r2,r2,-2672
  8037ec:	1705883a 	add	r2,r2,fp
  8037f0:	11000015 	stw	r4,0(r2)
  8037f4:	00bfffb4 	movhi	r2,65534
  8037f8:	10bd6304 	addi	r2,r2,-2676
  8037fc:	1705883a 	add	r2,r2,fp
  803800:	11400017 	ldw	r5,0(r2)
  803804:	00bfffb4 	movhi	r2,65534
  803808:	10bd6404 	addi	r2,r2,-2672
  80380c:	1705883a 	add	r2,r2,fp
  803810:	11800017 	ldw	r6,0(r2)
  803814:	1809883a 	mov	r4,r3
  803818:	08063500 	call	806350 <_ZNSt6vectorISt4pairIifESaIS1_EEaSESt16initializer_listIS1_E>
  adjList[57] = {{66, 11.912}, {67, 187.945}};
  80381c:	00bffff4 	movhi	r2,65535
  803820:	10bdeb04 	addi	r2,r2,-2132
  803824:	e0fff804 	addi	r3,fp,-32
  803828:	1885883a 	add	r2,r3,r2
  80382c:	01400e44 	movi	r5,57
  803830:	1009883a 	mov	r4,r2
  803834:	080630c0 	call	80630c <_ZNSt6vectorIS_ISt4pairIifESaIS1_EESaIS3_EEixEj>
  803838:	1007883a 	mov	r3,r2
  80383c:	00801084 	movi	r2,66
  803840:	e0bf0215 	stw	r2,-1016(fp)
  803844:	00904ff4 	movhi	r2,16703
  803848:	10a5e344 	addi	r2,r2,-26739
  80384c:	e0bf0315 	stw	r2,-1012(fp)
  803850:	008010c4 	movi	r2,67
  803854:	e0bf0415 	stw	r2,-1008(fp)
  803858:	0090cf34 	movhi	r2,17212
  80385c:	10bc7b04 	addi	r2,r2,-3604
  803860:	e0bf0515 	stw	r2,-1004(fp)
  803864:	e0bf0204 	addi	r2,fp,-1016
  803868:	013fffb4 	movhi	r4,65534
  80386c:	213d6504 	addi	r4,r4,-2668
  803870:	2709883a 	add	r4,r4,fp
  803874:	20800015 	stw	r2,0(r4)
  803878:	00800084 	movi	r2,2
  80387c:	013fffb4 	movhi	r4,65534
  803880:	213d6604 	addi	r4,r4,-2664
  803884:	2709883a 	add	r4,r4,fp
  803888:	20800015 	stw	r2,0(r4)
  80388c:	00bfffb4 	movhi	r2,65534
  803890:	10bd6504 	addi	r2,r2,-2668
  803894:	1705883a 	add	r2,r2,fp
  803898:	11400017 	ldw	r5,0(r2)
  80389c:	00bfffb4 	movhi	r2,65534
  8038a0:	10bd6604 	addi	r2,r2,-2664
  8038a4:	1705883a 	add	r2,r2,fp
  8038a8:	11800017 	ldw	r6,0(r2)
  8038ac:	1809883a 	mov	r4,r3
  8038b0:	08063500 	call	806350 <_ZNSt6vectorISt4pairIifESaIS1_EEaSESt16initializer_listIS1_E>
  adjList[58] = {{56, 55.22}};
  8038b4:	00bffff4 	movhi	r2,65535
  8038b8:	10bdeb04 	addi	r2,r2,-2132
  8038bc:	e0fff804 	addi	r3,fp,-32
  8038c0:	1885883a 	add	r2,r3,r2
  8038c4:	01400e84 	movi	r5,58
  8038c8:	1009883a 	mov	r4,r2
  8038cc:	080630c0 	call	80630c <_ZNSt6vectorIS_ISt4pairIifESaIS1_EESaIS3_EEixEj>
  8038d0:	1007883a 	mov	r3,r2
  8038d4:	00800e04 	movi	r2,56
  8038d8:	e0bf0615 	stw	r2,-1000(fp)
  8038dc:	00909774 	movhi	r2,16989
  8038e0:	10b85204 	addi	r2,r2,-7864
  8038e4:	e0bf0715 	stw	r2,-996(fp)
  8038e8:	e0bf0604 	addi	r2,fp,-1000
  8038ec:	013fffb4 	movhi	r4,65534
  8038f0:	213d6704 	addi	r4,r4,-2660
  8038f4:	2709883a 	add	r4,r4,fp
  8038f8:	20800015 	stw	r2,0(r4)
  8038fc:	01400044 	movi	r5,1
  803900:	00bfffb4 	movhi	r2,65534
  803904:	10bd6804 	addi	r2,r2,-2656
  803908:	1705883a 	add	r2,r2,fp
  80390c:	11400015 	stw	r5,0(r2)
  803910:	00bfffb4 	movhi	r2,65534
  803914:	10bd6704 	addi	r2,r2,-2660
  803918:	1705883a 	add	r2,r2,fp
  80391c:	11400017 	ldw	r5,0(r2)
  803920:	00bfffb4 	movhi	r2,65534
  803924:	10bd6804 	addi	r2,r2,-2656
  803928:	1705883a 	add	r2,r2,fp
  80392c:	11800017 	ldw	r6,0(r2)
  803930:	1809883a 	mov	r4,r3
  803934:	08063500 	call	806350 <_ZNSt6vectorISt4pairIifESaIS1_EEaSESt16initializer_listIS1_E>
  adjList[59] = {{56, 12.015}, {11, 21.481}};
  803938:	00bffff4 	movhi	r2,65535
  80393c:	10bdeb04 	addi	r2,r2,-2132
  803940:	e0fff804 	addi	r3,fp,-32
  803944:	1885883a 	add	r2,r3,r2
  803948:	01400ec4 	movi	r5,59
  80394c:	1009883a 	mov	r4,r2
  803950:	080630c0 	call	80630c <_ZNSt6vectorIS_ISt4pairIifESaIS1_EESaIS3_EEixEj>
  803954:	1007883a 	mov	r3,r2
  803958:	00800e04 	movi	r2,56
  80395c:	e0bf0815 	stw	r2,-992(fp)
  803960:	00905034 	movhi	r2,16704
  803964:	108f5c44 	addi	r2,r2,15729
  803968:	e0bf0915 	stw	r2,-988(fp)
  80396c:	008002c4 	movi	r2,11
  803970:	e0bf0a15 	stw	r2,-984(fp)
  803974:	00906b34 	movhi	r2,16812
  803978:	10b645c4 	addi	r2,r2,-9961
  80397c:	e0bf0b15 	stw	r2,-980(fp)
  803980:	e0bf0804 	addi	r2,fp,-992
  803984:	013fffb4 	movhi	r4,65534
  803988:	213d6904 	addi	r4,r4,-2652
  80398c:	2709883a 	add	r4,r4,fp
  803990:	20800015 	stw	r2,0(r4)
  803994:	00800084 	movi	r2,2
  803998:	013fffb4 	movhi	r4,65534
  80399c:	213d6a04 	addi	r4,r4,-2648
  8039a0:	2709883a 	add	r4,r4,fp
  8039a4:	20800015 	stw	r2,0(r4)
  8039a8:	00bfffb4 	movhi	r2,65534
  8039ac:	10bd6904 	addi	r2,r2,-2652
  8039b0:	1705883a 	add	r2,r2,fp
  8039b4:	11400017 	ldw	r5,0(r2)
  8039b8:	00bfffb4 	movhi	r2,65534
  8039bc:	10bd6a04 	addi	r2,r2,-2648
  8039c0:	1705883a 	add	r2,r2,fp
  8039c4:	11800017 	ldw	r6,0(r2)
  8039c8:	1809883a 	mov	r4,r3
  8039cc:	08063500 	call	806350 <_ZNSt6vectorISt4pairIifESaIS1_EEaSESt16initializer_listIS1_E>
  adjList[60] = {{12, 52.567}, {61, 25.604}, {62, 45.22}};
  8039d0:	00bffff4 	movhi	r2,65535
  8039d4:	10bdeb04 	addi	r2,r2,-2132
  8039d8:	e0fff804 	addi	r3,fp,-32
  8039dc:	1885883a 	add	r2,r3,r2
  8039e0:	01400f04 	movi	r5,60
  8039e4:	1009883a 	mov	r4,r2
  8039e8:	080630c0 	call	80630c <_ZNSt6vectorIS_ISt4pairIifESaIS1_EESaIS3_EEixEj>
  8039ec:	1007883a 	mov	r3,r2
  8039f0:	00800304 	movi	r2,12
  8039f4:	e0bf0c15 	stw	r2,-976(fp)
  8039f8:	009094b4 	movhi	r2,16978
  8039fc:	10912704 	addi	r2,r2,17564
  803a00:	e0bf0d15 	stw	r2,-972(fp)
  803a04:	00800f44 	movi	r2,61
  803a08:	e0bf0e15 	stw	r2,-968(fp)
  803a0c:	00907374 	movhi	r2,16845
  803a10:	10b53f84 	addi	r2,r2,-11010
  803a14:	e0bf0f15 	stw	r2,-964(fp)
  803a18:	00800f84 	movi	r2,62
  803a1c:	e0bf1015 	stw	r2,-960(fp)
  803a20:	00908d74 	movhi	r2,16949
  803a24:	10b85204 	addi	r2,r2,-7864
  803a28:	e0bf1115 	stw	r2,-956(fp)
  803a2c:	e0bf0c04 	addi	r2,fp,-976
  803a30:	013fffb4 	movhi	r4,65534
  803a34:	213d6b04 	addi	r4,r4,-2644
  803a38:	2709883a 	add	r4,r4,fp
  803a3c:	20800015 	stw	r2,0(r4)
  803a40:	010000c4 	movi	r4,3
  803a44:	00bfffb4 	movhi	r2,65534
  803a48:	10bd6c04 	addi	r2,r2,-2640
  803a4c:	1705883a 	add	r2,r2,fp
  803a50:	11000015 	stw	r4,0(r2)
  803a54:	00bfffb4 	movhi	r2,65534
  803a58:	10bd6b04 	addi	r2,r2,-2644
  803a5c:	1705883a 	add	r2,r2,fp
  803a60:	11400017 	ldw	r5,0(r2)
  803a64:	00bfffb4 	movhi	r2,65534
  803a68:	10bd6c04 	addi	r2,r2,-2640
  803a6c:	1705883a 	add	r2,r2,fp
  803a70:	11800017 	ldw	r6,0(r2)
  803a74:	1809883a 	mov	r4,r3
  803a78:	08063500 	call	806350 <_ZNSt6vectorISt4pairIifESaIS1_EEaSESt16initializer_listIS1_E>
  adjList[61] = {{60, 25.604}, {71, 100.741}};
  803a7c:	00bffff4 	movhi	r2,65535
  803a80:	10bdeb04 	addi	r2,r2,-2132
  803a84:	e0fff804 	addi	r3,fp,-32
  803a88:	1885883a 	add	r2,r3,r2
  803a8c:	01400f44 	movi	r5,61
  803a90:	1009883a 	mov	r4,r2
  803a94:	080630c0 	call	80630c <_ZNSt6vectorIS_ISt4pairIifESaIS1_EESaIS3_EEixEj>
  803a98:	1007883a 	mov	r3,r2
  803a9c:	00800f04 	movi	r2,60
  803aa0:	e0bf1215 	stw	r2,-952(fp)
  803aa4:	00907374 	movhi	r2,16845
  803aa8:	10b53f84 	addi	r2,r2,-11010
  803aac:	e0bf1315 	stw	r2,-948(fp)
  803ab0:	008011c4 	movi	r2,71
  803ab4:	e0bf1415 	stw	r2,-944(fp)
  803ab8:	0090b274 	movhi	r2,17097
  803abc:	109ed904 	addi	r2,r2,31588
  803ac0:	e0bf1515 	stw	r2,-940(fp)
  803ac4:	e0bf1204 	addi	r2,fp,-952
  803ac8:	013fffb4 	movhi	r4,65534
  803acc:	213d6d04 	addi	r4,r4,-2636
  803ad0:	2709883a 	add	r4,r4,fp
  803ad4:	20800015 	stw	r2,0(r4)
  803ad8:	00800084 	movi	r2,2
  803adc:	013fffb4 	movhi	r4,65534
  803ae0:	213d6e04 	addi	r4,r4,-2632
  803ae4:	2709883a 	add	r4,r4,fp
  803ae8:	20800015 	stw	r2,0(r4)
  803aec:	00bfffb4 	movhi	r2,65534
  803af0:	10bd6d04 	addi	r2,r2,-2636
  803af4:	1705883a 	add	r2,r2,fp
  803af8:	11400017 	ldw	r5,0(r2)
  803afc:	00bfffb4 	movhi	r2,65534
  803b00:	10bd6e04 	addi	r2,r2,-2632
  803b04:	1705883a 	add	r2,r2,fp
  803b08:	11800017 	ldw	r6,0(r2)
  803b0c:	1809883a 	mov	r4,r3
  803b10:	08063500 	call	806350 <_ZNSt6vectorISt4pairIifESaIS1_EEaSESt16initializer_listIS1_E>
  adjList[62] = {{60, 45.22}, {63, 162.404}};
  803b14:	00bffff4 	movhi	r2,65535
  803b18:	10bdeb04 	addi	r2,r2,-2132
  803b1c:	e0fff804 	addi	r3,fp,-32
  803b20:	1885883a 	add	r2,r3,r2
  803b24:	01400f84 	movi	r5,62
  803b28:	1009883a 	mov	r4,r2
  803b2c:	080630c0 	call	80630c <_ZNSt6vectorIS_ISt4pairIifESaIS1_EESaIS3_EEixEj>
  803b30:	1007883a 	mov	r3,r2
  803b34:	00800f04 	movi	r2,60
  803b38:	e0bf1615 	stw	r2,-936(fp)
  803b3c:	00908d74 	movhi	r2,16949
  803b40:	10b85204 	addi	r2,r2,-7864
  803b44:	e0bf1715 	stw	r2,-932(fp)
  803b48:	00800fc4 	movi	r2,63
  803b4c:	e0bf1815 	stw	r2,-928(fp)
  803b50:	0090c8b4 	movhi	r2,17186
  803b54:	1099db44 	addi	r2,r2,26477
  803b58:	e0bf1915 	stw	r2,-924(fp)
  803b5c:	e0bf1604 	addi	r2,fp,-936
  803b60:	013fffb4 	movhi	r4,65534
  803b64:	213d6f04 	addi	r4,r4,-2628
  803b68:	2709883a 	add	r4,r4,fp
  803b6c:	20800015 	stw	r2,0(r4)
  803b70:	00800084 	movi	r2,2
  803b74:	013fffb4 	movhi	r4,65534
  803b78:	213d7004 	addi	r4,r4,-2624
  803b7c:	2709883a 	add	r4,r4,fp
  803b80:	20800015 	stw	r2,0(r4)
  803b84:	00bfffb4 	movhi	r2,65534
  803b88:	10bd6f04 	addi	r2,r2,-2628
  803b8c:	1705883a 	add	r2,r2,fp
  803b90:	11400017 	ldw	r5,0(r2)
  803b94:	00bfffb4 	movhi	r2,65534
  803b98:	10bd7004 	addi	r2,r2,-2624
  803b9c:	1705883a 	add	r2,r2,fp
  803ba0:	11800017 	ldw	r6,0(r2)
  803ba4:	1809883a 	mov	r4,r3
  803ba8:	08063500 	call	806350 <_ZNSt6vectorISt4pairIifESaIS1_EEaSESt16initializer_listIS1_E>
  adjList[63] = {{62, 162.404}};
  803bac:	00bffff4 	movhi	r2,65535
  803bb0:	10bdeb04 	addi	r2,r2,-2132
  803bb4:	e0fff804 	addi	r3,fp,-32
  803bb8:	1885883a 	add	r2,r3,r2
  803bbc:	01400fc4 	movi	r5,63
  803bc0:	1009883a 	mov	r4,r2
  803bc4:	080630c0 	call	80630c <_ZNSt6vectorIS_ISt4pairIifESaIS1_EESaIS3_EEixEj>
  803bc8:	1007883a 	mov	r3,r2
  803bcc:	00800f84 	movi	r2,62
  803bd0:	e0bf1a15 	stw	r2,-920(fp)
  803bd4:	0090c8b4 	movhi	r2,17186
  803bd8:	1099db44 	addi	r2,r2,26477
  803bdc:	e0bf1b15 	stw	r2,-916(fp)
  803be0:	e0bf1a04 	addi	r2,fp,-920
  803be4:	013fffb4 	movhi	r4,65534
  803be8:	213d7104 	addi	r4,r4,-2620
  803bec:	2709883a 	add	r4,r4,fp
  803bf0:	20800015 	stw	r2,0(r4)
  803bf4:	01400044 	movi	r5,1
  803bf8:	00bfffb4 	movhi	r2,65534
  803bfc:	10bd7204 	addi	r2,r2,-2616
  803c00:	1705883a 	add	r2,r2,fp
  803c04:	11400015 	stw	r5,0(r2)
  803c08:	00bfffb4 	movhi	r2,65534
  803c0c:	10bd7104 	addi	r2,r2,-2620
  803c10:	1705883a 	add	r2,r2,fp
  803c14:	11400017 	ldw	r5,0(r2)
  803c18:	00bfffb4 	movhi	r2,65534
  803c1c:	10bd7204 	addi	r2,r2,-2616
  803c20:	1705883a 	add	r2,r2,fp
  803c24:	11800017 	ldw	r6,0(r2)
  803c28:	1809883a 	mov	r4,r3
  803c2c:	08063500 	call	806350 <_ZNSt6vectorISt4pairIifESaIS1_EEaSESt16initializer_listIS1_E>
  adjList[64] = {{65, 25.312}};
  803c30:	00bffff4 	movhi	r2,65535
  803c34:	10bdeb04 	addi	r2,r2,-2132
  803c38:	e0fff804 	addi	r3,fp,-32
  803c3c:	1885883a 	add	r2,r3,r2
  803c40:	01401004 	movi	r5,64
  803c44:	1009883a 	mov	r4,r2
  803c48:	080630c0 	call	80630c <_ZNSt6vectorIS_ISt4pairIifESaIS1_EESaIS3_EEixEj>
  803c4c:	1007883a 	mov	r3,r2
  803c50:	00801044 	movi	r2,65
  803c54:	e0bf1c15 	stw	r2,-912(fp)
  803c58:	009072b4 	movhi	r2,16842
  803c5c:	109fbe84 	addi	r2,r2,32506
  803c60:	e0bf1d15 	stw	r2,-908(fp)
  803c64:	e0bf1c04 	addi	r2,fp,-912
  803c68:	013fffb4 	movhi	r4,65534
  803c6c:	213d7304 	addi	r4,r4,-2612
  803c70:	2709883a 	add	r4,r4,fp
  803c74:	20800015 	stw	r2,0(r4)
  803c78:	01400044 	movi	r5,1
  803c7c:	00bfffb4 	movhi	r2,65534
  803c80:	10bd7404 	addi	r2,r2,-2608
  803c84:	1705883a 	add	r2,r2,fp
  803c88:	11400015 	stw	r5,0(r2)
  803c8c:	00bfffb4 	movhi	r2,65534
  803c90:	10bd7304 	addi	r2,r2,-2612
  803c94:	1705883a 	add	r2,r2,fp
  803c98:	11400017 	ldw	r5,0(r2)
  803c9c:	00bfffb4 	movhi	r2,65534
  803ca0:	10bd7404 	addi	r2,r2,-2608
  803ca4:	1705883a 	add	r2,r2,fp
  803ca8:	11800017 	ldw	r6,0(r2)
  803cac:	1809883a 	mov	r4,r3
  803cb0:	08063500 	call	806350 <_ZNSt6vectorISt4pairIifESaIS1_EEaSESt16initializer_listIS1_E>
  adjList[65] = {{64, 25.312}, {75, 109.154}, {53, 84.102}};
  803cb4:	00bffff4 	movhi	r2,65535
  803cb8:	10bdeb04 	addi	r2,r2,-2132
  803cbc:	e0fff804 	addi	r3,fp,-32
  803cc0:	1885883a 	add	r2,r3,r2
  803cc4:	01401044 	movi	r5,65
  803cc8:	1009883a 	mov	r4,r2
  803ccc:	080630c0 	call	80630c <_ZNSt6vectorIS_ISt4pairIifESaIS1_EESaIS3_EEixEj>
  803cd0:	1007883a 	mov	r3,r2
  803cd4:	00801004 	movi	r2,64
  803cd8:	e0bf1e15 	stw	r2,-904(fp)
  803cdc:	009072b4 	movhi	r2,16842
  803ce0:	109fbe84 	addi	r2,r2,32506
  803ce4:	e0bf1f15 	stw	r2,-900(fp)
  803ce8:	008012c4 	movi	r2,75
  803cec:	e0bf2015 	stw	r2,-896(fp)
  803cf0:	0090b6b4 	movhi	r2,17114
  803cf4:	1093b644 	addi	r2,r2,20185
  803cf8:	e0bf2115 	stw	r2,-892(fp)
  803cfc:	00800d44 	movi	r2,53
  803d00:	e0bf2215 	stw	r2,-888(fp)
  803d04:	0090aa34 	movhi	r2,17064
  803d08:	108d0e44 	addi	r2,r2,13369
  803d0c:	e0bf2315 	stw	r2,-884(fp)
  803d10:	e0bf1e04 	addi	r2,fp,-904
  803d14:	013fffb4 	movhi	r4,65534
  803d18:	213d7504 	addi	r4,r4,-2604
  803d1c:	2709883a 	add	r4,r4,fp
  803d20:	20800015 	stw	r2,0(r4)
  803d24:	010000c4 	movi	r4,3
  803d28:	00bfffb4 	movhi	r2,65534
  803d2c:	10bd7604 	addi	r2,r2,-2600
  803d30:	1705883a 	add	r2,r2,fp
  803d34:	11000015 	stw	r4,0(r2)
  803d38:	00bfffb4 	movhi	r2,65534
  803d3c:	10bd7504 	addi	r2,r2,-2604
  803d40:	1705883a 	add	r2,r2,fp
  803d44:	11400017 	ldw	r5,0(r2)
  803d48:	00bfffb4 	movhi	r2,65534
  803d4c:	10bd7604 	addi	r2,r2,-2600
  803d50:	1705883a 	add	r2,r2,fp
  803d54:	11800017 	ldw	r6,0(r2)
  803d58:	1809883a 	mov	r4,r3
  803d5c:	08063500 	call	806350 <_ZNSt6vectorISt4pairIifESaIS1_EEaSESt16initializer_listIS1_E>
  adjList[66] = {{74, 67.296}, {59, 82.785}, {57, 11.912}};
  803d60:	00bffff4 	movhi	r2,65535
  803d64:	10bdeb04 	addi	r2,r2,-2132
  803d68:	e0fff804 	addi	r3,fp,-32
  803d6c:	1885883a 	add	r2,r3,r2
  803d70:	01401084 	movi	r5,66
  803d74:	1009883a 	mov	r4,r2
  803d78:	080630c0 	call	80630c <_ZNSt6vectorIS_ISt4pairIifESaIS1_EESaIS3_EEixEj>
  803d7c:	1007883a 	mov	r3,r2
  803d80:	00801284 	movi	r2,74
  803d84:	e0bf2415 	stw	r2,-880(fp)
  803d88:	0090a1f4 	movhi	r2,17031
  803d8c:	10a5e344 	addi	r2,r2,-26739
  803d90:	e0bf2515 	stw	r2,-876(fp)
  803d94:	00800ec4 	movi	r2,59
  803d98:	e0bf2615 	stw	r2,-872(fp)
  803d9c:	0090a9b4 	movhi	r2,17062
  803da0:	10a47b04 	addi	r2,r2,-28180
  803da4:	e0bf2715 	stw	r2,-868(fp)
  803da8:	00800e44 	movi	r2,57
  803dac:	e0bf2815 	stw	r2,-864(fp)
  803db0:	00904ff4 	movhi	r2,16703
  803db4:	10a5e344 	addi	r2,r2,-26739
  803db8:	e0bf2915 	stw	r2,-860(fp)
  803dbc:	e0bf2404 	addi	r2,fp,-880
  803dc0:	013fffb4 	movhi	r4,65534
  803dc4:	213d7704 	addi	r4,r4,-2596
  803dc8:	2709883a 	add	r4,r4,fp
  803dcc:	20800015 	stw	r2,0(r4)
  803dd0:	010000c4 	movi	r4,3
  803dd4:	00bfffb4 	movhi	r2,65534
  803dd8:	10bd7804 	addi	r2,r2,-2592
  803ddc:	1705883a 	add	r2,r2,fp
  803de0:	11000015 	stw	r4,0(r2)
  803de4:	00bfffb4 	movhi	r2,65534
  803de8:	10bd7704 	addi	r2,r2,-2596
  803dec:	1705883a 	add	r2,r2,fp
  803df0:	11400017 	ldw	r5,0(r2)
  803df4:	00bfffb4 	movhi	r2,65534
  803df8:	10bd7804 	addi	r2,r2,-2592
  803dfc:	1705883a 	add	r2,r2,fp
  803e00:	11800017 	ldw	r6,0(r2)
  803e04:	1809883a 	mov	r4,r3
  803e08:	08063500 	call	806350 <_ZNSt6vectorISt4pairIifESaIS1_EEaSESt16initializer_listIS1_E>
  adjList[67] = {{96, 9.517}, {97, 87.655}};
  803e0c:	00bffff4 	movhi	r2,65535
  803e10:	10bdeb04 	addi	r2,r2,-2132
  803e14:	e0fff804 	addi	r3,fp,-32
  803e18:	1885883a 	add	r2,r3,r2
  803e1c:	014010c4 	movi	r5,67
  803e20:	1009883a 	mov	r4,r2
  803e24:	080630c0 	call	80630c <_ZNSt6vectorIS_ISt4pairIifESaIS1_EESaIS3_EEixEj>
  803e28:	1007883a 	mov	r3,r2
  803e2c:	00801804 	movi	r2,96
  803e30:	e0bf2a15 	stw	r2,-856(fp)
  803e34:	00904634 	movhi	r2,16664
  803e38:	10916884 	addi	r2,r2,17826
  803e3c:	e0bf2b15 	stw	r2,-852(fp)
  803e40:	00801844 	movi	r2,97
  803e44:	e0bf2c15 	stw	r2,-848(fp)
  803e48:	0090abf4 	movhi	r2,17071
  803e4c:	1093d704 	addi	r2,r2,20316
  803e50:	e0bf2d15 	stw	r2,-844(fp)
  803e54:	e0bf2a04 	addi	r2,fp,-856
  803e58:	013fffb4 	movhi	r4,65534
  803e5c:	213d7904 	addi	r4,r4,-2588
  803e60:	2709883a 	add	r4,r4,fp
  803e64:	20800015 	stw	r2,0(r4)
  803e68:	00800084 	movi	r2,2
  803e6c:	013fffb4 	movhi	r4,65534
  803e70:	213d7a04 	addi	r4,r4,-2584
  803e74:	2709883a 	add	r4,r4,fp
  803e78:	20800015 	stw	r2,0(r4)
  803e7c:	00bfffb4 	movhi	r2,65534
  803e80:	10bd7904 	addi	r2,r2,-2588
  803e84:	1705883a 	add	r2,r2,fp
  803e88:	11400017 	ldw	r5,0(r2)
  803e8c:	00bfffb4 	movhi	r2,65534
  803e90:	10bd7a04 	addi	r2,r2,-2584
  803e94:	1705883a 	add	r2,r2,fp
  803e98:	11800017 	ldw	r6,0(r2)
  803e9c:	1809883a 	mov	r4,r3
  803ea0:	08063500 	call	806350 <_ZNSt6vectorISt4pairIifESaIS1_EEaSESt16initializer_listIS1_E>
  adjList[68] = {{69, 40.412}, {70, 39.009}};
  803ea4:	00bffff4 	movhi	r2,65535
  803ea8:	10bdeb04 	addi	r2,r2,-2132
  803eac:	e0fff804 	addi	r3,fp,-32
  803eb0:	1885883a 	add	r2,r3,r2
  803eb4:	01401104 	movi	r5,68
  803eb8:	1009883a 	mov	r4,r2
  803ebc:	080630c0 	call	80630c <_ZNSt6vectorIS_ISt4pairIifESaIS1_EESaIS3_EEixEj>
  803ec0:	1007883a 	mov	r3,r2
  803ec4:	00801144 	movi	r2,69
  803ec8:	e0bf2e15 	stw	r2,-840(fp)
  803ecc:	009088b4 	movhi	r2,16930
  803ed0:	10a978c4 	addi	r2,r2,-23069
  803ed4:	e0bf2f15 	stw	r2,-836(fp)
  803ed8:	00801184 	movi	r2,70
  803edc:	e0bf3015 	stw	r2,-832(fp)
  803ee0:	00908734 	movhi	r2,16924
  803ee4:	10824dc4 	addi	r2,r2,2359
  803ee8:	e0bf3115 	stw	r2,-828(fp)
  803eec:	e0bf2e04 	addi	r2,fp,-840
  803ef0:	013fffb4 	movhi	r4,65534
  803ef4:	213d7b04 	addi	r4,r4,-2580
  803ef8:	2709883a 	add	r4,r4,fp
  803efc:	20800015 	stw	r2,0(r4)
  803f00:	00800084 	movi	r2,2
  803f04:	013fffb4 	movhi	r4,65534
  803f08:	213d7c04 	addi	r4,r4,-2576
  803f0c:	2709883a 	add	r4,r4,fp
  803f10:	20800015 	stw	r2,0(r4)
  803f14:	00bfffb4 	movhi	r2,65534
  803f18:	10bd7b04 	addi	r2,r2,-2580
  803f1c:	1705883a 	add	r2,r2,fp
  803f20:	11400017 	ldw	r5,0(r2)
  803f24:	00bfffb4 	movhi	r2,65534
  803f28:	10bd7c04 	addi	r2,r2,-2576
  803f2c:	1705883a 	add	r2,r2,fp
  803f30:	11800017 	ldw	r6,0(r2)
  803f34:	1809883a 	mov	r4,r3
  803f38:	08063500 	call	806350 <_ZNSt6vectorISt4pairIifESaIS1_EEaSESt16initializer_listIS1_E>
  adjList[69] = {};
  803f3c:	00bffff4 	movhi	r2,65535
  803f40:	10bdeb04 	addi	r2,r2,-2132
  803f44:	e0fff804 	addi	r3,fp,-32
  803f48:	1885883a 	add	r2,r3,r2
  803f4c:	01401144 	movi	r5,69
  803f50:	1009883a 	mov	r4,r2
  803f54:	080630c0 	call	80630c <_ZNSt6vectorIS_ISt4pairIifESaIS1_EESaIS3_EEixEj>
  803f58:	00ffffb4 	movhi	r3,65534
  803f5c:	18fd7d04 	addi	r3,r3,-2572
  803f60:	1f07883a 	add	r3,r3,fp
  803f64:	18000015 	stw	zero,0(r3)
  803f68:	00ffffb4 	movhi	r3,65534
  803f6c:	18fd7e04 	addi	r3,r3,-2568
  803f70:	1f07883a 	add	r3,r3,fp
  803f74:	18000015 	stw	zero,0(r3)
  803f78:	00ffffb4 	movhi	r3,65534
  803f7c:	18fd7d04 	addi	r3,r3,-2572
  803f80:	1f07883a 	add	r3,r3,fp
  803f84:	19400017 	ldw	r5,0(r3)
  803f88:	00ffffb4 	movhi	r3,65534
  803f8c:	18fd7e04 	addi	r3,r3,-2568
  803f90:	1f07883a 	add	r3,r3,fp
  803f94:	19800017 	ldw	r6,0(r3)
  803f98:	1009883a 	mov	r4,r2
  803f9c:	08063500 	call	806350 <_ZNSt6vectorISt4pairIifESaIS1_EEaSESt16initializer_listIS1_E>
  adjList[70] = {{68, 39.009}};
  803fa0:	00bffff4 	movhi	r2,65535
  803fa4:	10bdeb04 	addi	r2,r2,-2132
  803fa8:	e0fff804 	addi	r3,fp,-32
  803fac:	1885883a 	add	r2,r3,r2
  803fb0:	01401184 	movi	r5,70
  803fb4:	1009883a 	mov	r4,r2
  803fb8:	080630c0 	call	80630c <_ZNSt6vectorIS_ISt4pairIifESaIS1_EESaIS3_EEixEj>
  803fbc:	1007883a 	mov	r3,r2
  803fc0:	00801104 	movi	r2,68
  803fc4:	e0bf3215 	stw	r2,-824(fp)
  803fc8:	00908734 	movhi	r2,16924
  803fcc:	10824dc4 	addi	r2,r2,2359
  803fd0:	e0bf3315 	stw	r2,-820(fp)
  803fd4:	e0bf3204 	addi	r2,fp,-824
  803fd8:	013fffb4 	movhi	r4,65534
  803fdc:	213d7f04 	addi	r4,r4,-2564
  803fe0:	2709883a 	add	r4,r4,fp
  803fe4:	20800015 	stw	r2,0(r4)
  803fe8:	01400044 	movi	r5,1
  803fec:	00bfffb4 	movhi	r2,65534
  803ff0:	10bd8004 	addi	r2,r2,-2560
  803ff4:	1705883a 	add	r2,r2,fp
  803ff8:	11400015 	stw	r5,0(r2)
  803ffc:	00bfffb4 	movhi	r2,65534
  804000:	10bd7f04 	addi	r2,r2,-2564
  804004:	1705883a 	add	r2,r2,fp
  804008:	11400017 	ldw	r5,0(r2)
  80400c:	00bfffb4 	movhi	r2,65534
  804010:	10bd8004 	addi	r2,r2,-2560
  804014:	1705883a 	add	r2,r2,fp
  804018:	11800017 	ldw	r6,0(r2)
  80401c:	1809883a 	mov	r4,r3
  804020:	08063500 	call	806350 <_ZNSt6vectorISt4pairIifESaIS1_EEaSESt16initializer_listIS1_E>
  adjList[71] = {{14, 31.192}, {61, 100.741}};
  804024:	00bffff4 	movhi	r2,65535
  804028:	10bdeb04 	addi	r2,r2,-2132
  80402c:	e0fff804 	addi	r3,fp,-32
  804030:	1885883a 	add	r2,r3,r2
  804034:	014011c4 	movi	r5,71
  804038:	1009883a 	mov	r4,r2
  80403c:	080630c0 	call	80630c <_ZNSt6vectorIS_ISt4pairIifESaIS1_EESaIS3_EEixEj>
  804040:	1007883a 	mov	r3,r2
  804044:	00800384 	movi	r2,14
  804048:	e0bf3415 	stw	r2,-816(fp)
  80404c:	00907eb4 	movhi	r2,16890
  804050:	10a24dc4 	addi	r2,r2,-30409
  804054:	e0bf3515 	stw	r2,-812(fp)
  804058:	00800f44 	movi	r2,61
  80405c:	e0bf3615 	stw	r2,-808(fp)
  804060:	0090b274 	movhi	r2,17097
  804064:	109ed904 	addi	r2,r2,31588
  804068:	e0bf3715 	stw	r2,-804(fp)
  80406c:	e0bf3404 	addi	r2,fp,-816
  804070:	013fffb4 	movhi	r4,65534
  804074:	213d8104 	addi	r4,r4,-2556
  804078:	2709883a 	add	r4,r4,fp
  80407c:	20800015 	stw	r2,0(r4)
  804080:	00800084 	movi	r2,2
  804084:	013fffb4 	movhi	r4,65534
  804088:	213d8204 	addi	r4,r4,-2552
  80408c:	2709883a 	add	r4,r4,fp
  804090:	20800015 	stw	r2,0(r4)
  804094:	00bfffb4 	movhi	r2,65534
  804098:	10bd8104 	addi	r2,r2,-2556
  80409c:	1705883a 	add	r2,r2,fp
  8040a0:	11400017 	ldw	r5,0(r2)
  8040a4:	00bfffb4 	movhi	r2,65534
  8040a8:	10bd8204 	addi	r2,r2,-2552
  8040ac:	1705883a 	add	r2,r2,fp
  8040b0:	11800017 	ldw	r6,0(r2)
  8040b4:	1809883a 	mov	r4,r3
  8040b8:	08063500 	call	806350 <_ZNSt6vectorISt4pairIifESaIS1_EEaSESt16initializer_listIS1_E>
  adjList[72] = {{16, 12.546}, {15, 160.778}};
  8040bc:	00bffff4 	movhi	r2,65535
  8040c0:	10bdeb04 	addi	r2,r2,-2132
  8040c4:	e0fff804 	addi	r3,fp,-32
  8040c8:	1885883a 	add	r2,r3,r2
  8040cc:	01401204 	movi	r5,72
  8040d0:	1009883a 	mov	r4,r2
  8040d4:	080630c0 	call	80630c <_ZNSt6vectorIS_ISt4pairIifESaIS1_EESaIS3_EEixEj>
  8040d8:	1007883a 	mov	r3,r2
  8040dc:	00800404 	movi	r2,16
  8040e0:	e0bf3815 	stw	r2,-800(fp)
  8040e4:	00905274 	movhi	r2,16713
  8040e8:	10af1a84 	addi	r2,r2,-17302
  8040ec:	e0bf3915 	stw	r2,-796(fp)
  8040f0:	008003c4 	movi	r2,15
  8040f4:	e0bf3a15 	stw	r2,-792(fp)
  8040f8:	0090c874 	movhi	r2,17185
  8040fc:	10b1cac4 	addi	r2,r2,-14549
  804100:	e0bf3b15 	stw	r2,-788(fp)
  804104:	e0bf3804 	addi	r2,fp,-800
  804108:	013fffb4 	movhi	r4,65534
  80410c:	213d8304 	addi	r4,r4,-2548
  804110:	2709883a 	add	r4,r4,fp
  804114:	20800015 	stw	r2,0(r4)
  804118:	00800084 	movi	r2,2
  80411c:	013fffb4 	movhi	r4,65534
  804120:	213d8404 	addi	r4,r4,-2544
  804124:	2709883a 	add	r4,r4,fp
  804128:	20800015 	stw	r2,0(r4)
  80412c:	00bfffb4 	movhi	r2,65534
  804130:	10bd8304 	addi	r2,r2,-2548
  804134:	1705883a 	add	r2,r2,fp
  804138:	11400017 	ldw	r5,0(r2)
  80413c:	00bfffb4 	movhi	r2,65534
  804140:	10bd8404 	addi	r2,r2,-2544
  804144:	1705883a 	add	r2,r2,fp
  804148:	11800017 	ldw	r6,0(r2)
  80414c:	1809883a 	mov	r4,r3
  804150:	08063500 	call	806350 <_ZNSt6vectorISt4pairIifESaIS1_EEaSESt16initializer_listIS1_E>
  adjList[73] = {{74, 66.093}};
  804154:	00bffff4 	movhi	r2,65535
  804158:	10bdeb04 	addi	r2,r2,-2132
  80415c:	e0fff804 	addi	r3,fp,-32
  804160:	1885883a 	add	r2,r3,r2
  804164:	01401244 	movi	r5,73
  804168:	1009883a 	mov	r4,r2
  80416c:	080630c0 	call	80630c <_ZNSt6vectorIS_ISt4pairIifESaIS1_EESaIS3_EEixEj>
  804170:	1007883a 	mov	r3,r2
  804174:	00801284 	movi	r2,74
  804178:	e0bf3c15 	stw	r2,-784(fp)
  80417c:	0090a134 	movhi	r2,17028
  804180:	108be784 	addi	r2,r2,12190
  804184:	e0bf3d15 	stw	r2,-780(fp)
  804188:	e0bf3c04 	addi	r2,fp,-784
  80418c:	013fffb4 	movhi	r4,65534
  804190:	213d8504 	addi	r4,r4,-2540
  804194:	2709883a 	add	r4,r4,fp
  804198:	20800015 	stw	r2,0(r4)
  80419c:	01400044 	movi	r5,1
  8041a0:	00bfffb4 	movhi	r2,65534
  8041a4:	10bd8604 	addi	r2,r2,-2536
  8041a8:	1705883a 	add	r2,r2,fp
  8041ac:	11400015 	stw	r5,0(r2)
  8041b0:	00bfffb4 	movhi	r2,65534
  8041b4:	10bd8504 	addi	r2,r2,-2540
  8041b8:	1705883a 	add	r2,r2,fp
  8041bc:	11400017 	ldw	r5,0(r2)
  8041c0:	00bfffb4 	movhi	r2,65534
  8041c4:	10bd8604 	addi	r2,r2,-2536
  8041c8:	1705883a 	add	r2,r2,fp
  8041cc:	11800017 	ldw	r6,0(r2)
  8041d0:	1809883a 	mov	r4,r3
  8041d4:	08063500 	call	806350 <_ZNSt6vectorISt4pairIifESaIS1_EEaSESt16initializer_listIS1_E>
  adjList[74] = {{66, 67.296}, {73, 66.093}, {46, 187.738}};
  8041d8:	00bffff4 	movhi	r2,65535
  8041dc:	10bdeb04 	addi	r2,r2,-2132
  8041e0:	e0fff804 	addi	r3,fp,-32
  8041e4:	1885883a 	add	r2,r3,r2
  8041e8:	01401284 	movi	r5,74
  8041ec:	1009883a 	mov	r4,r2
  8041f0:	080630c0 	call	80630c <_ZNSt6vectorIS_ISt4pairIifESaIS1_EESaIS3_EEixEj>
  8041f4:	1007883a 	mov	r3,r2
  8041f8:	00801084 	movi	r2,66
  8041fc:	e0bf3e15 	stw	r2,-776(fp)
  804200:	0090a1f4 	movhi	r2,17031
  804204:	10a5e344 	addi	r2,r2,-26739
  804208:	e0bf3f15 	stw	r2,-772(fp)
  80420c:	00801244 	movi	r2,73
  804210:	e0bf4015 	stw	r2,-768(fp)
  804214:	0090a134 	movhi	r2,17028
  804218:	108be784 	addi	r2,r2,12190
  80421c:	e0bf4115 	stw	r2,-764(fp)
  804220:	00800b84 	movi	r2,46
  804224:	e0bf4215 	stw	r2,-760(fp)
  804228:	0090cf34 	movhi	r2,17212
  80422c:	10af3b84 	addi	r2,r2,-17170
  804230:	e0bf4315 	stw	r2,-756(fp)
  804234:	e0bf3e04 	addi	r2,fp,-776
  804238:	013fffb4 	movhi	r4,65534
  80423c:	213d8704 	addi	r4,r4,-2532
  804240:	2709883a 	add	r4,r4,fp
  804244:	20800015 	stw	r2,0(r4)
  804248:	010000c4 	movi	r4,3
  80424c:	00bfffb4 	movhi	r2,65534
  804250:	10bd8804 	addi	r2,r2,-2528
  804254:	1705883a 	add	r2,r2,fp
  804258:	11000015 	stw	r4,0(r2)
  80425c:	00bfffb4 	movhi	r2,65534
  804260:	10bd8704 	addi	r2,r2,-2532
  804264:	1705883a 	add	r2,r2,fp
  804268:	11400017 	ldw	r5,0(r2)
  80426c:	00bfffb4 	movhi	r2,65534
  804270:	10bd8804 	addi	r2,r2,-2528
  804274:	1705883a 	add	r2,r2,fp
  804278:	11800017 	ldw	r6,0(r2)
  80427c:	1809883a 	mov	r4,r3
  804280:	08063500 	call	806350 <_ZNSt6vectorISt4pairIifESaIS1_EEaSESt16initializer_listIS1_E>
  adjList[75] = {{65, 109.154}, {76, 84.72}, {77, 65.657}, {51, 42.826}};
  804284:	00bffff4 	movhi	r2,65535
  804288:	10bdeb04 	addi	r2,r2,-2132
  80428c:	e0fff804 	addi	r3,fp,-32
  804290:	1885883a 	add	r2,r3,r2
  804294:	014012c4 	movi	r5,75
  804298:	1009883a 	mov	r4,r2
  80429c:	080630c0 	call	80630c <_ZNSt6vectorIS_ISt4pairIifESaIS1_EESaIS3_EEixEj>
  8042a0:	1007883a 	mov	r3,r2
  8042a4:	00801044 	movi	r2,65
  8042a8:	e0bf4415 	stw	r2,-752(fp)
  8042ac:	0090b6b4 	movhi	r2,17114
  8042b0:	1093b644 	addi	r2,r2,20185
  8042b4:	e0bf4515 	stw	r2,-748(fp)
  8042b8:	00801304 	movi	r2,76
  8042bc:	e0bf4615 	stw	r2,-744(fp)
  8042c0:	0090aa74 	movhi	r2,17065
  8042c4:	109c2904 	addi	r2,r2,28836
  8042c8:	e0bf4715 	stw	r2,-740(fp)
  8042cc:	00801344 	movi	r2,77
  8042d0:	e0bf4815 	stw	r2,-736(fp)
  8042d4:	0090a0f4 	movhi	r2,17027
  8042d8:	10941884 	addi	r2,r2,20578
  8042dc:	e0bf4915 	stw	r2,-732(fp)
  8042e0:	00800cc4 	movi	r2,51
  8042e4:	e0bf4a15 	stw	r2,-728(fp)
  8042e8:	00908af4 	movhi	r2,16939
  8042ec:	109374c4 	addi	r2,r2,19923
  8042f0:	e0bf4b15 	stw	r2,-724(fp)
  8042f4:	e0bf4404 	addi	r2,fp,-752
  8042f8:	013fffb4 	movhi	r4,65534
  8042fc:	213d8904 	addi	r4,r4,-2524
  804300:	2709883a 	add	r4,r4,fp
  804304:	20800015 	stw	r2,0(r4)
  804308:	01800104 	movi	r6,4
  80430c:	00bfffb4 	movhi	r2,65534
  804310:	10bd8a04 	addi	r2,r2,-2520
  804314:	1705883a 	add	r2,r2,fp
  804318:	11800015 	stw	r6,0(r2)
  80431c:	00bfffb4 	movhi	r2,65534
  804320:	10bd8904 	addi	r2,r2,-2524
  804324:	1705883a 	add	r2,r2,fp
  804328:	11400017 	ldw	r5,0(r2)
  80432c:	00bfffb4 	movhi	r2,65534
  804330:	10bd8a04 	addi	r2,r2,-2520
  804334:	1705883a 	add	r2,r2,fp
  804338:	11800017 	ldw	r6,0(r2)
  80433c:	1809883a 	mov	r4,r3
  804340:	08063500 	call	806350 <_ZNSt6vectorISt4pairIifESaIS1_EEaSESt16initializer_listIS1_E>
  adjList[76] = {{86, 3.726}, {22, 31.392}, {75, 84.72}};
  804344:	00bffff4 	movhi	r2,65535
  804348:	10bdeb04 	addi	r2,r2,-2132
  80434c:	e0fff804 	addi	r3,fp,-32
  804350:	1885883a 	add	r2,r3,r2
  804354:	01401304 	movi	r5,76
  804358:	1009883a 	mov	r4,r2
  80435c:	080630c0 	call	80630c <_ZNSt6vectorIS_ISt4pairIifESaIS1_EESaIS3_EEixEj>
  804360:	1007883a 	mov	r3,r2
  804364:	00801584 	movi	r2,86
  804368:	e0bf4c15 	stw	r2,-720(fp)
  80436c:	00901bb4 	movhi	r2,16494
  804370:	109db244 	addi	r2,r2,30409
  804374:	e0bf4d15 	stw	r2,-716(fp)
  804378:	00800584 	movi	r2,22
  80437c:	e0bf4e15 	stw	r2,-712(fp)
  804380:	00907ef4 	movhi	r2,16891
  804384:	1088b444 	addi	r2,r2,8913
  804388:	e0bf4f15 	stw	r2,-708(fp)
  80438c:	008012c4 	movi	r2,75
  804390:	e0bf5015 	stw	r2,-704(fp)
  804394:	0090aa74 	movhi	r2,17065
  804398:	109c2904 	addi	r2,r2,28836
  80439c:	e0bf5115 	stw	r2,-700(fp)
  8043a0:	e0bf4c04 	addi	r2,fp,-720
  8043a4:	013fffb4 	movhi	r4,65534
  8043a8:	213d8b04 	addi	r4,r4,-2516
  8043ac:	2709883a 	add	r4,r4,fp
  8043b0:	20800015 	stw	r2,0(r4)
  8043b4:	010000c4 	movi	r4,3
  8043b8:	00bfffb4 	movhi	r2,65534
  8043bc:	10bd8c04 	addi	r2,r2,-2512
  8043c0:	1705883a 	add	r2,r2,fp
  8043c4:	11000015 	stw	r4,0(r2)
  8043c8:	00bfffb4 	movhi	r2,65534
  8043cc:	10bd8b04 	addi	r2,r2,-2516
  8043d0:	1705883a 	add	r2,r2,fp
  8043d4:	11400017 	ldw	r5,0(r2)
  8043d8:	00bfffb4 	movhi	r2,65534
  8043dc:	10bd8c04 	addi	r2,r2,-2512
  8043e0:	1705883a 	add	r2,r2,fp
  8043e4:	11800017 	ldw	r6,0(r2)
  8043e8:	1809883a 	mov	r4,r3
  8043ec:	08063500 	call	806350 <_ZNSt6vectorISt4pairIifESaIS1_EEaSESt16initializer_listIS1_E>
  adjList[77] = {{75, 65.657}};
  8043f0:	00bffff4 	movhi	r2,65535
  8043f4:	10bdeb04 	addi	r2,r2,-2132
  8043f8:	e0fff804 	addi	r3,fp,-32
  8043fc:	1885883a 	add	r2,r3,r2
  804400:	01401344 	movi	r5,77
  804404:	1009883a 	mov	r4,r2
  804408:	080630c0 	call	80630c <_ZNSt6vectorIS_ISt4pairIifESaIS1_EESaIS3_EEixEj>
  80440c:	1007883a 	mov	r3,r2
  804410:	008012c4 	movi	r2,75
  804414:	e0bf5215 	stw	r2,-696(fp)
  804418:	0090a0f4 	movhi	r2,17027
  80441c:	10941884 	addi	r2,r2,20578
  804420:	e0bf5315 	stw	r2,-692(fp)
  804424:	e0bf5204 	addi	r2,fp,-696
  804428:	013fffb4 	movhi	r4,65534
  80442c:	213d8d04 	addi	r4,r4,-2508
  804430:	2709883a 	add	r4,r4,fp
  804434:	20800015 	stw	r2,0(r4)
  804438:	01400044 	movi	r5,1
  80443c:	00bfffb4 	movhi	r2,65534
  804440:	10bd8e04 	addi	r2,r2,-2504
  804444:	1705883a 	add	r2,r2,fp
  804448:	11400015 	stw	r5,0(r2)
  80444c:	00bfffb4 	movhi	r2,65534
  804450:	10bd8d04 	addi	r2,r2,-2508
  804454:	1705883a 	add	r2,r2,fp
  804458:	11400017 	ldw	r5,0(r2)
  80445c:	00bfffb4 	movhi	r2,65534
  804460:	10bd8e04 	addi	r2,r2,-2504
  804464:	1705883a 	add	r2,r2,fp
  804468:	11800017 	ldw	r6,0(r2)
  80446c:	1809883a 	mov	r4,r3
  804470:	08063500 	call	806350 <_ZNSt6vectorISt4pairIifESaIS1_EEaSESt16initializer_listIS1_E>
  adjList[78] = {{36, 9.761}, {50, 266.825}, {94, 140.769}};
  804474:	00bffff4 	movhi	r2,65535
  804478:	10bdeb04 	addi	r2,r2,-2132
  80447c:	e0fff804 	addi	r3,fp,-32
  804480:	1885883a 	add	r2,r3,r2
  804484:	01401384 	movi	r5,78
  804488:	1009883a 	mov	r4,r2
  80448c:	080630c0 	call	80630c <_ZNSt6vectorIS_ISt4pairIifESaIS1_EESaIS3_EEixEj>
  804490:	1007883a 	mov	r3,r2
  804494:	00800904 	movi	r2,36
  804498:	e0bf5415 	stw	r2,-688(fp)
  80449c:	00904734 	movhi	r2,16668
  8044a0:	108b4384 	addi	r2,r2,11534
  8044a4:	e0bf5515 	stw	r2,-684(fp)
  8044a8:	00800c84 	movi	r2,50
  8044ac:	e0bf5615 	stw	r2,-680(fp)
  8044b0:	0090e174 	movhi	r2,17285
  8044b4:	109a6684 	addi	r2,r2,27034
  8044b8:	e0bf5715 	stw	r2,-676(fp)
  8044bc:	00801784 	movi	r2,94
  8044c0:	e0bf5815 	stw	r2,-672(fp)
  8044c4:	0090c374 	movhi	r2,17165
  8044c8:	10b13744 	addi	r2,r2,-15139
  8044cc:	e0bf5915 	stw	r2,-668(fp)
  8044d0:	e0bf5404 	addi	r2,fp,-688
  8044d4:	013fffb4 	movhi	r4,65534
  8044d8:	213d8f04 	addi	r4,r4,-2500
  8044dc:	2709883a 	add	r4,r4,fp
  8044e0:	20800015 	stw	r2,0(r4)
  8044e4:	010000c4 	movi	r4,3
  8044e8:	00bfffb4 	movhi	r2,65534
  8044ec:	10bd9004 	addi	r2,r2,-2496
  8044f0:	1705883a 	add	r2,r2,fp
  8044f4:	11000015 	stw	r4,0(r2)
  8044f8:	00bfffb4 	movhi	r2,65534
  8044fc:	10bd8f04 	addi	r2,r2,-2500
  804500:	1705883a 	add	r2,r2,fp
  804504:	11400017 	ldw	r5,0(r2)
  804508:	00bfffb4 	movhi	r2,65534
  80450c:	10bd9004 	addi	r2,r2,-2496
  804510:	1705883a 	add	r2,r2,fp
  804514:	11800017 	ldw	r6,0(r2)
  804518:	1809883a 	mov	r4,r3
  80451c:	08063500 	call	806350 <_ZNSt6vectorISt4pairIifESaIS1_EEaSESt16initializer_listIS1_E>
  adjList[79] = {{47, 49.829}, {73, 92.489}};
  804520:	00bffff4 	movhi	r2,65535
  804524:	10bdeb04 	addi	r2,r2,-2132
  804528:	e0fff804 	addi	r3,fp,-32
  80452c:	1885883a 	add	r2,r3,r2
  804530:	014013c4 	movi	r5,79
  804534:	1009883a 	mov	r4,r2
  804538:	080630c0 	call	80630c <_ZNSt6vectorIS_ISt4pairIifESaIS1_EESaIS3_EEixEj>
  80453c:	1007883a 	mov	r3,r2
  804540:	00800bc4 	movi	r2,47
  804544:	e0bf5a15 	stw	r2,-664(fp)
  804548:	009091f4 	movhi	r2,16967
  80454c:	10943944 	addi	r2,r2,20709
  804550:	e0bf5b15 	stw	r2,-660(fp)
  804554:	00801244 	movi	r2,73
  804558:	e0bf5c15 	stw	r2,-656(fp)
  80455c:	0090ae74 	movhi	r2,17081
  804560:	10be9784 	addi	r2,r2,-1442
  804564:	e0bf5d15 	stw	r2,-652(fp)
  804568:	e0bf5a04 	addi	r2,fp,-664
  80456c:	013fffb4 	movhi	r4,65534
  804570:	213d9104 	addi	r4,r4,-2492
  804574:	2709883a 	add	r4,r4,fp
  804578:	20800015 	stw	r2,0(r4)
  80457c:	00800084 	movi	r2,2
  804580:	013fffb4 	movhi	r4,65534
  804584:	213d9204 	addi	r4,r4,-2488
  804588:	2709883a 	add	r4,r4,fp
  80458c:	20800015 	stw	r2,0(r4)
  804590:	00bfffb4 	movhi	r2,65534
  804594:	10bd9104 	addi	r2,r2,-2492
  804598:	1705883a 	add	r2,r2,fp
  80459c:	11400017 	ldw	r5,0(r2)
  8045a0:	00bfffb4 	movhi	r2,65534
  8045a4:	10bd9204 	addi	r2,r2,-2488
  8045a8:	1705883a 	add	r2,r2,fp
  8045ac:	11800017 	ldw	r6,0(r2)
  8045b0:	1809883a 	mov	r4,r3
  8045b4:	08063500 	call	806350 <_ZNSt6vectorISt4pairIifESaIS1_EEaSESt16initializer_listIS1_E>
  adjList[80] = {{14, 61.58}};
  8045b8:	00bffff4 	movhi	r2,65535
  8045bc:	10bdeb04 	addi	r2,r2,-2132
  8045c0:	e0fff804 	addi	r3,fp,-32
  8045c4:	1885883a 	add	r2,r3,r2
  8045c8:	01401404 	movi	r5,80
  8045cc:	1009883a 	mov	r4,r2
  8045d0:	080630c0 	call	80630c <_ZNSt6vectorIS_ISt4pairIifESaIS1_EESaIS3_EEixEj>
  8045d4:	1007883a 	mov	r3,r2
  8045d8:	00800384 	movi	r2,14
  8045dc:	e0bf5e15 	stw	r2,-648(fp)
  8045e0:	00909db4 	movhi	r2,17014
  8045e4:	10947b04 	addi	r2,r2,20972
  8045e8:	e0bf5f15 	stw	r2,-644(fp)
  8045ec:	e0bf5e04 	addi	r2,fp,-648
  8045f0:	013fffb4 	movhi	r4,65534
  8045f4:	213d9304 	addi	r4,r4,-2484
  8045f8:	2709883a 	add	r4,r4,fp
  8045fc:	20800015 	stw	r2,0(r4)
  804600:	01400044 	movi	r5,1
  804604:	00bfffb4 	movhi	r2,65534
  804608:	10bd9404 	addi	r2,r2,-2480
  80460c:	1705883a 	add	r2,r2,fp
  804610:	11400015 	stw	r5,0(r2)
  804614:	00bfffb4 	movhi	r2,65534
  804618:	10bd9304 	addi	r2,r2,-2484
  80461c:	1705883a 	add	r2,r2,fp
  804620:	11400017 	ldw	r5,0(r2)
  804624:	00bfffb4 	movhi	r2,65534
  804628:	10bd9404 	addi	r2,r2,-2480
  80462c:	1705883a 	add	r2,r2,fp
  804630:	11800017 	ldw	r6,0(r2)
  804634:	1809883a 	mov	r4,r3
  804638:	08063500 	call	806350 <_ZNSt6vectorISt4pairIifESaIS1_EEaSESt16initializer_listIS1_E>
  adjList[81] = {{82, 9.493}, {14, 45.668}};
  80463c:	00bffff4 	movhi	r2,65535
  804640:	10bdeb04 	addi	r2,r2,-2132
  804644:	e0fff804 	addi	r3,fp,-32
  804648:	1885883a 	add	r2,r3,r2
  80464c:	01401444 	movi	r5,81
  804650:	1009883a 	mov	r4,r2
  804654:	080630c0 	call	80630c <_ZNSt6vectorIS_ISt4pairIifESaIS1_EESaIS3_EEixEj>
  804658:	1007883a 	mov	r3,r2
  80465c:	00801484 	movi	r2,82
  804660:	e0bf6015 	stw	r2,-640(fp)
  804664:	00904634 	movhi	r2,16664
  804668:	10b8d504 	addi	r2,r2,-7340
  80466c:	e0bf6115 	stw	r2,-636(fp)
  804670:	00800384 	movi	r2,14
  804674:	e0bf6215 	stw	r2,-632(fp)
  804678:	00908df4 	movhi	r2,16951
  80467c:	10ab0204 	addi	r2,r2,-21496
  804680:	e0bf6315 	stw	r2,-628(fp)
  804684:	e0bf6004 	addi	r2,fp,-640
  804688:	013fffb4 	movhi	r4,65534
  80468c:	213d9504 	addi	r4,r4,-2476
  804690:	2709883a 	add	r4,r4,fp
  804694:	20800015 	stw	r2,0(r4)
  804698:	00800084 	movi	r2,2
  80469c:	013fffb4 	movhi	r4,65534
  8046a0:	213d9604 	addi	r4,r4,-2472
  8046a4:	2709883a 	add	r4,r4,fp
  8046a8:	20800015 	stw	r2,0(r4)
  8046ac:	00bfffb4 	movhi	r2,65534
  8046b0:	10bd9504 	addi	r2,r2,-2476
  8046b4:	1705883a 	add	r2,r2,fp
  8046b8:	11400017 	ldw	r5,0(r2)
  8046bc:	00bfffb4 	movhi	r2,65534
  8046c0:	10bd9604 	addi	r2,r2,-2472
  8046c4:	1705883a 	add	r2,r2,fp
  8046c8:	11800017 	ldw	r6,0(r2)
  8046cc:	1809883a 	mov	r4,r3
  8046d0:	08063500 	call	806350 <_ZNSt6vectorISt4pairIifESaIS1_EEaSESt16initializer_listIS1_E>
  adjList[82] = {{81, 9.493}};
  8046d4:	00bffff4 	movhi	r2,65535
  8046d8:	10bdeb04 	addi	r2,r2,-2132
  8046dc:	e0fff804 	addi	r3,fp,-32
  8046e0:	1885883a 	add	r2,r3,r2
  8046e4:	01401484 	movi	r5,82
  8046e8:	1009883a 	mov	r4,r2
  8046ec:	080630c0 	call	80630c <_ZNSt6vectorIS_ISt4pairIifESaIS1_EESaIS3_EEixEj>
  8046f0:	1007883a 	mov	r3,r2
  8046f4:	00801444 	movi	r2,81
  8046f8:	e0bf6415 	stw	r2,-624(fp)
  8046fc:	00904634 	movhi	r2,16664
  804700:	10b8d504 	addi	r2,r2,-7340
  804704:	e0bf6515 	stw	r2,-620(fp)
  804708:	e0bf6404 	addi	r2,fp,-624
  80470c:	013fffb4 	movhi	r4,65534
  804710:	213d9704 	addi	r4,r4,-2468
  804714:	2709883a 	add	r4,r4,fp
  804718:	20800015 	stw	r2,0(r4)
  80471c:	01400044 	movi	r5,1
  804720:	00bfffb4 	movhi	r2,65534
  804724:	10bd9804 	addi	r2,r2,-2464
  804728:	1705883a 	add	r2,r2,fp
  80472c:	11400015 	stw	r5,0(r2)
  804730:	00bfffb4 	movhi	r2,65534
  804734:	10bd9704 	addi	r2,r2,-2468
  804738:	1705883a 	add	r2,r2,fp
  80473c:	11400017 	ldw	r5,0(r2)
  804740:	00bfffb4 	movhi	r2,65534
  804744:	10bd9804 	addi	r2,r2,-2464
  804748:	1705883a 	add	r2,r2,fp
  80474c:	11800017 	ldw	r6,0(r2)
  804750:	1809883a 	mov	r4,r3
  804754:	08063500 	call	806350 <_ZNSt6vectorISt4pairIifESaIS1_EEaSESt16initializer_listIS1_E>
  adjList[83] = {{84, 37.495}};
  804758:	00bffff4 	movhi	r2,65535
  80475c:	10bdeb04 	addi	r2,r2,-2132
  804760:	e0fff804 	addi	r3,fp,-32
  804764:	1885883a 	add	r2,r3,r2
  804768:	014014c4 	movi	r5,83
  80476c:	1009883a 	mov	r4,r2
  804770:	080630c0 	call	80630c <_ZNSt6vectorIS_ISt4pairIifESaIS1_EESaIS3_EEixEj>
  804774:	1007883a 	mov	r3,r2
  804778:	00801504 	movi	r2,84
  80477c:	e0bf6615 	stw	r2,-616(fp)
  804780:	009085b4 	movhi	r2,16918
  804784:	10beb844 	addi	r2,r2,-1311
  804788:	e0bf6715 	stw	r2,-612(fp)
  80478c:	e0bf6604 	addi	r2,fp,-616
  804790:	013fffb4 	movhi	r4,65534
  804794:	213d9904 	addi	r4,r4,-2460
  804798:	2709883a 	add	r4,r4,fp
  80479c:	20800015 	stw	r2,0(r4)
  8047a0:	01400044 	movi	r5,1
  8047a4:	00bfffb4 	movhi	r2,65534
  8047a8:	10bd9a04 	addi	r2,r2,-2456
  8047ac:	1705883a 	add	r2,r2,fp
  8047b0:	11400015 	stw	r5,0(r2)
  8047b4:	00bfffb4 	movhi	r2,65534
  8047b8:	10bd9904 	addi	r2,r2,-2460
  8047bc:	1705883a 	add	r2,r2,fp
  8047c0:	11400017 	ldw	r5,0(r2)
  8047c4:	00bfffb4 	movhi	r2,65534
  8047c8:	10bd9a04 	addi	r2,r2,-2456
  8047cc:	1705883a 	add	r2,r2,fp
  8047d0:	11800017 	ldw	r6,0(r2)
  8047d4:	1809883a 	mov	r4,r3
  8047d8:	08063500 	call	806350 <_ZNSt6vectorISt4pairIifESaIS1_EEaSESt16initializer_listIS1_E>
  adjList[84] = {};
  8047dc:	00bffff4 	movhi	r2,65535
  8047e0:	10bdeb04 	addi	r2,r2,-2132
  8047e4:	e0fff804 	addi	r3,fp,-32
  8047e8:	1885883a 	add	r2,r3,r2
  8047ec:	01401504 	movi	r5,84
  8047f0:	1009883a 	mov	r4,r2
  8047f4:	080630c0 	call	80630c <_ZNSt6vectorIS_ISt4pairIifESaIS1_EESaIS3_EEixEj>
  8047f8:	00ffffb4 	movhi	r3,65534
  8047fc:	18fd9b04 	addi	r3,r3,-2452
  804800:	1f07883a 	add	r3,r3,fp
  804804:	18000015 	stw	zero,0(r3)
  804808:	00ffffb4 	movhi	r3,65534
  80480c:	18fd9c04 	addi	r3,r3,-2448
  804810:	1f07883a 	add	r3,r3,fp
  804814:	18000015 	stw	zero,0(r3)
  804818:	00ffffb4 	movhi	r3,65534
  80481c:	18fd9b04 	addi	r3,r3,-2452
  804820:	1f07883a 	add	r3,r3,fp
  804824:	19400017 	ldw	r5,0(r3)
  804828:	00ffffb4 	movhi	r3,65534
  80482c:	18fd9c04 	addi	r3,r3,-2448
  804830:	1f07883a 	add	r3,r3,fp
  804834:	19800017 	ldw	r6,0(r3)
  804838:	1009883a 	mov	r4,r2
  80483c:	08063500 	call	806350 <_ZNSt6vectorISt4pairIifESaIS1_EEaSESt16initializer_listIS1_E>
  adjList[85] = {{54, 26.736}};
  804840:	00bffff4 	movhi	r2,65535
  804844:	10bdeb04 	addi	r2,r2,-2132
  804848:	e0fff804 	addi	r3,fp,-32
  80484c:	1885883a 	add	r2,r3,r2
  804850:	01401544 	movi	r5,85
  804854:	1009883a 	mov	r4,r2
  804858:	080630c0 	call	80630c <_ZNSt6vectorIS_ISt4pairIifESaIS1_EESaIS3_EEixEj>
  80485c:	1007883a 	mov	r3,r2
  804860:	00800d84 	movi	r2,54
  804864:	e0bf6815 	stw	r2,-608(fp)
  804868:	009075b4 	movhi	r2,16854
  80486c:	10b8d504 	addi	r2,r2,-7340
  804870:	e0bf6915 	stw	r2,-604(fp)
  804874:	e0bf6804 	addi	r2,fp,-608
  804878:	013fffb4 	movhi	r4,65534
  80487c:	213d9d04 	addi	r4,r4,-2444
  804880:	2709883a 	add	r4,r4,fp
  804884:	20800015 	stw	r2,0(r4)
  804888:	01400044 	movi	r5,1
  80488c:	00bfffb4 	movhi	r2,65534
  804890:	10bd9e04 	addi	r2,r2,-2440
  804894:	1705883a 	add	r2,r2,fp
  804898:	11400015 	stw	r5,0(r2)
  80489c:	00bfffb4 	movhi	r2,65534
  8048a0:	10bd9d04 	addi	r2,r2,-2444
  8048a4:	1705883a 	add	r2,r2,fp
  8048a8:	11400017 	ldw	r5,0(r2)
  8048ac:	00bfffb4 	movhi	r2,65534
  8048b0:	10bd9e04 	addi	r2,r2,-2440
  8048b4:	1705883a 	add	r2,r2,fp
  8048b8:	11800017 	ldw	r6,0(r2)
  8048bc:	1809883a 	mov	r4,r3
  8048c0:	08063500 	call	806350 <_ZNSt6vectorISt4pairIifESaIS1_EEaSESt16initializer_listIS1_E>
  adjList[86] = {{53, 103.918}, {76, 3.726}, {88, 47.556}};
  8048c4:	00bffff4 	movhi	r2,65535
  8048c8:	10bdeb04 	addi	r2,r2,-2132
  8048cc:	e0fff804 	addi	r3,fp,-32
  8048d0:	1885883a 	add	r2,r3,r2
  8048d4:	01401584 	movi	r5,86
  8048d8:	1009883a 	mov	r4,r2
  8048dc:	080630c0 	call	80630c <_ZNSt6vectorIS_ISt4pairIifESaIS1_EESaIS3_EEixEj>
  8048e0:	1007883a 	mov	r3,r2
  8048e4:	00800d44 	movi	r2,53
  8048e8:	e0bf6a15 	stw	r2,-600(fp)
  8048ec:	0090b434 	movhi	r2,17104
  8048f0:	10b58104 	addi	r2,r2,-10748
  8048f4:	e0bf6b15 	stw	r2,-596(fp)
  8048f8:	00801304 	movi	r2,76
  8048fc:	e0bf6c15 	stw	r2,-592(fp)
  804900:	00901bb4 	movhi	r2,16494
  804904:	109db244 	addi	r2,r2,30409
  804908:	e0bf6d15 	stw	r2,-588(fp)
  80490c:	00801604 	movi	r2,88
  804910:	e0bf6e15 	stw	r2,-584(fp)
  804914:	00908fb4 	movhi	r2,16958
  804918:	108e5604 	addi	r2,r2,14680
  80491c:	e0bf6f15 	stw	r2,-580(fp)
  804920:	e0bf6a04 	addi	r2,fp,-600
  804924:	013fffb4 	movhi	r4,65534
  804928:	213d9f04 	addi	r4,r4,-2436
  80492c:	2709883a 	add	r4,r4,fp
  804930:	20800015 	stw	r2,0(r4)
  804934:	010000c4 	movi	r4,3
  804938:	00bfffb4 	movhi	r2,65534
  80493c:	10bda004 	addi	r2,r2,-2432
  804940:	1705883a 	add	r2,r2,fp
  804944:	11000015 	stw	r4,0(r2)
  804948:	00bfffb4 	movhi	r2,65534
  80494c:	10bd9f04 	addi	r2,r2,-2436
  804950:	1705883a 	add	r2,r2,fp
  804954:	11400017 	ldw	r5,0(r2)
  804958:	00bfffb4 	movhi	r2,65534
  80495c:	10bda004 	addi	r2,r2,-2432
  804960:	1705883a 	add	r2,r2,fp
  804964:	11800017 	ldw	r6,0(r2)
  804968:	1809883a 	mov	r4,r3
  80496c:	08063500 	call	806350 <_ZNSt6vectorISt4pairIifESaIS1_EEaSESt16initializer_listIS1_E>
  adjList[87] = {{22, 36.661}};
  804970:	00bffff4 	movhi	r2,65535
  804974:	10bdeb04 	addi	r2,r2,-2132
  804978:	e0fff804 	addi	r3,fp,-32
  80497c:	1885883a 	add	r2,r3,r2
  804980:	014015c4 	movi	r5,87
  804984:	1009883a 	mov	r4,r2
  804988:	080630c0 	call	80630c <_ZNSt6vectorIS_ISt4pairIifESaIS1_EESaIS3_EEixEj>
  80498c:	1007883a 	mov	r3,r2
  804990:	00800584 	movi	r2,22
  804994:	e0bf7015 	stw	r2,-576(fp)
  804998:	009084f4 	movhi	r2,16915
  80499c:	10a93744 	addi	r2,r2,-23331
  8049a0:	e0bf7115 	stw	r2,-572(fp)
  8049a4:	e0bf7004 	addi	r2,fp,-576
  8049a8:	013fffb4 	movhi	r4,65534
  8049ac:	213da104 	addi	r4,r4,-2428
  8049b0:	2709883a 	add	r4,r4,fp
  8049b4:	20800015 	stw	r2,0(r4)
  8049b8:	01400044 	movi	r5,1
  8049bc:	00bfffb4 	movhi	r2,65534
  8049c0:	10bda204 	addi	r2,r2,-2424
  8049c4:	1705883a 	add	r2,r2,fp
  8049c8:	11400015 	stw	r5,0(r2)
  8049cc:	00bfffb4 	movhi	r2,65534
  8049d0:	10bda104 	addi	r2,r2,-2428
  8049d4:	1705883a 	add	r2,r2,fp
  8049d8:	11400017 	ldw	r5,0(r2)
  8049dc:	00bfffb4 	movhi	r2,65534
  8049e0:	10bda204 	addi	r2,r2,-2424
  8049e4:	1705883a 	add	r2,r2,fp
  8049e8:	11800017 	ldw	r6,0(r2)
  8049ec:	1809883a 	mov	r4,r3
  8049f0:	08063500 	call	806350 <_ZNSt6vectorISt4pairIifESaIS1_EEaSESt16initializer_listIS1_E>
  adjList[88] = {{89, 7.153}, {86, 47.556}, {54, 145.457}};
  8049f4:	00bffff4 	movhi	r2,65535
  8049f8:	10bdeb04 	addi	r2,r2,-2132
  8049fc:	e0fff804 	addi	r3,fp,-32
  804a00:	1885883a 	add	r2,r3,r2
  804a04:	01401604 	movi	r5,88
  804a08:	1009883a 	mov	r4,r2
  804a0c:	080630c0 	call	80630c <_ZNSt6vectorIS_ISt4pairIifESaIS1_EESaIS3_EEixEj>
  804a10:	1007883a 	mov	r3,r2
  804a14:	00801644 	movi	r2,89
  804a18:	e0bf7215 	stw	r2,-568(fp)
  804a1c:	00903974 	movhi	r2,16613
  804a20:	10b95804 	addi	r2,r2,-6816
  804a24:	e0bf7315 	stw	r2,-564(fp)
  804a28:	00801584 	movi	r2,86
  804a2c:	e0bf7415 	stw	r2,-560(fp)
  804a30:	00908fb4 	movhi	r2,16958
  804a34:	108e5604 	addi	r2,r2,14680
  804a38:	e0bf7515 	stw	r2,-556(fp)
  804a3c:	00800d84 	movi	r2,54
  804a40:	e0bf7615 	stw	r2,-552(fp)
  804a44:	0090c474 	movhi	r2,17169
  804a48:	109d3f84 	addi	r2,r2,29950
  804a4c:	e0bf7715 	stw	r2,-548(fp)
  804a50:	e0bf7204 	addi	r2,fp,-568
  804a54:	013fffb4 	movhi	r4,65534
  804a58:	213da304 	addi	r4,r4,-2420
  804a5c:	2709883a 	add	r4,r4,fp
  804a60:	20800015 	stw	r2,0(r4)
  804a64:	010000c4 	movi	r4,3
  804a68:	00bfffb4 	movhi	r2,65534
  804a6c:	10bda404 	addi	r2,r2,-2416
  804a70:	1705883a 	add	r2,r2,fp
  804a74:	11000015 	stw	r4,0(r2)
  804a78:	00bfffb4 	movhi	r2,65534
  804a7c:	10bda304 	addi	r2,r2,-2420
  804a80:	1705883a 	add	r2,r2,fp
  804a84:	11400017 	ldw	r5,0(r2)
  804a88:	00bfffb4 	movhi	r2,65534
  804a8c:	10bda404 	addi	r2,r2,-2416
  804a90:	1705883a 	add	r2,r2,fp
  804a94:	11800017 	ldw	r6,0(r2)
  804a98:	1809883a 	mov	r4,r3
  804a9c:	08063500 	call	806350 <_ZNSt6vectorISt4pairIifESaIS1_EEaSESt16initializer_listIS1_E>
  adjList[89] = {{88, 7.153}};
  804aa0:	00bffff4 	movhi	r2,65535
  804aa4:	10bdeb04 	addi	r2,r2,-2132
  804aa8:	e0fff804 	addi	r3,fp,-32
  804aac:	1885883a 	add	r2,r3,r2
  804ab0:	01401644 	movi	r5,89
  804ab4:	1009883a 	mov	r4,r2
  804ab8:	080630c0 	call	80630c <_ZNSt6vectorIS_ISt4pairIifESaIS1_EESaIS3_EEixEj>
  804abc:	1007883a 	mov	r3,r2
  804ac0:	00801604 	movi	r2,88
  804ac4:	e0bf7815 	stw	r2,-544(fp)
  804ac8:	00903974 	movhi	r2,16613
  804acc:	10b95804 	addi	r2,r2,-6816
  804ad0:	e0bf7915 	stw	r2,-540(fp)
  804ad4:	e0bf7804 	addi	r2,fp,-544
  804ad8:	013fffb4 	movhi	r4,65534
  804adc:	213da504 	addi	r4,r4,-2412
  804ae0:	2709883a 	add	r4,r4,fp
  804ae4:	20800015 	stw	r2,0(r4)
  804ae8:	01400044 	movi	r5,1
  804aec:	00bfffb4 	movhi	r2,65534
  804af0:	10bda604 	addi	r2,r2,-2408
  804af4:	1705883a 	add	r2,r2,fp
  804af8:	11400015 	stw	r5,0(r2)
  804afc:	00bfffb4 	movhi	r2,65534
  804b00:	10bda504 	addi	r2,r2,-2412
  804b04:	1705883a 	add	r2,r2,fp
  804b08:	11400017 	ldw	r5,0(r2)
  804b0c:	00bfffb4 	movhi	r2,65534
  804b10:	10bda604 	addi	r2,r2,-2408
  804b14:	1705883a 	add	r2,r2,fp
  804b18:	11800017 	ldw	r6,0(r2)
  804b1c:	1809883a 	mov	r4,r3
  804b20:	08063500 	call	806350 <_ZNSt6vectorISt4pairIifESaIS1_EEaSESt16initializer_listIS1_E>
  adjList[90] = {{67, 11.572}, {66, 188.014}};
  804b24:	00bffff4 	movhi	r2,65535
  804b28:	10bdeb04 	addi	r2,r2,-2132
  804b2c:	e0fff804 	addi	r3,fp,-32
  804b30:	1885883a 	add	r2,r3,r2
  804b34:	01401684 	movi	r5,90
  804b38:	1009883a 	mov	r4,r2
  804b3c:	080630c0 	call	80630c <_ZNSt6vectorIS_ISt4pairIifESaIS1_EESaIS3_EEixEj>
  804b40:	1007883a 	mov	r3,r2
  804b44:	008010c4 	movi	r2,67
  804b48:	e0bf7a15 	stw	r2,-536(fp)
  804b4c:	00904e74 	movhi	r2,16697
  804b50:	1089ba44 	addi	r2,r2,9961
  804b54:	e0bf7b15 	stw	r2,-532(fp)
  804b58:	00801084 	movi	r2,66
  804b5c:	e0bf7c15 	stw	r2,-528(fp)
  804b60:	0090cf34 	movhi	r2,17212
  804b64:	1080e584 	addi	r2,r2,918
  804b68:	e0bf7d15 	stw	r2,-524(fp)
  804b6c:	e0bf7a04 	addi	r2,fp,-536
  804b70:	013fffb4 	movhi	r4,65534
  804b74:	213da704 	addi	r4,r4,-2404
  804b78:	2709883a 	add	r4,r4,fp
  804b7c:	20800015 	stw	r2,0(r4)
  804b80:	00800084 	movi	r2,2
  804b84:	013fffb4 	movhi	r4,65534
  804b88:	213da804 	addi	r4,r4,-2400
  804b8c:	2709883a 	add	r4,r4,fp
  804b90:	20800015 	stw	r2,0(r4)
  804b94:	00bfffb4 	movhi	r2,65534
  804b98:	10bda704 	addi	r2,r2,-2404
  804b9c:	1705883a 	add	r2,r2,fp
  804ba0:	11400017 	ldw	r5,0(r2)
  804ba4:	00bfffb4 	movhi	r2,65534
  804ba8:	10bda804 	addi	r2,r2,-2400
  804bac:	1705883a 	add	r2,r2,fp
  804bb0:	11800017 	ldw	r6,0(r2)
  804bb4:	1809883a 	mov	r4,r3
  804bb8:	08063500 	call	806350 <_ZNSt6vectorISt4pairIifESaIS1_EEaSESt16initializer_listIS1_E>
  adjList[91] = {{38, 68.171}};
  804bbc:	00bffff4 	movhi	r2,65535
  804bc0:	10bdeb04 	addi	r2,r2,-2132
  804bc4:	e0fff804 	addi	r3,fp,-32
  804bc8:	1885883a 	add	r2,r3,r2
  804bcc:	014016c4 	movi	r5,91
  804bd0:	1009883a 	mov	r4,r2
  804bd4:	080630c0 	call	80630c <_ZNSt6vectorIS_ISt4pairIifESaIS1_EESaIS3_EEixEj>
  804bd8:	1007883a 	mov	r3,r2
  804bdc:	00800984 	movi	r2,38
  804be0:	e0bf7e15 	stw	r2,-520(fp)
  804be4:	0090a234 	movhi	r2,17032
  804be8:	1095e344 	addi	r2,r2,22413
  804bec:	e0bf7f15 	stw	r2,-516(fp)
  804bf0:	e0bf7e04 	addi	r2,fp,-520
  804bf4:	013fffb4 	movhi	r4,65534
  804bf8:	213da904 	addi	r4,r4,-2396
  804bfc:	2709883a 	add	r4,r4,fp
  804c00:	20800015 	stw	r2,0(r4)
  804c04:	01400044 	movi	r5,1
  804c08:	00bfffb4 	movhi	r2,65534
  804c0c:	10bdaa04 	addi	r2,r2,-2392
  804c10:	1705883a 	add	r2,r2,fp
  804c14:	11400015 	stw	r5,0(r2)
  804c18:	00bfffb4 	movhi	r2,65534
  804c1c:	10bda904 	addi	r2,r2,-2396
  804c20:	1705883a 	add	r2,r2,fp
  804c24:	11400017 	ldw	r5,0(r2)
  804c28:	00bfffb4 	movhi	r2,65534
  804c2c:	10bdaa04 	addi	r2,r2,-2392
  804c30:	1705883a 	add	r2,r2,fp
  804c34:	11800017 	ldw	r6,0(r2)
  804c38:	1809883a 	mov	r4,r3
  804c3c:	08063500 	call	806350 <_ZNSt6vectorISt4pairIifESaIS1_EEaSESt16initializer_listIS1_E>
  adjList[92] = {{93, 5.414}, {69, 112.385}, {37, 73.342}};
  804c40:	00bffff4 	movhi	r2,65535
  804c44:	10bdeb04 	addi	r2,r2,-2132
  804c48:	e0fff804 	addi	r3,fp,-32
  804c4c:	1885883a 	add	r2,r3,r2
  804c50:	01401704 	movi	r5,92
  804c54:	1009883a 	mov	r4,r2
  804c58:	080630c0 	call	80630c <_ZNSt6vectorIS_ISt4pairIifESaIS1_EESaIS3_EEixEj>
  804c5c:	1007883a 	mov	r3,r2
  804c60:	00801744 	movi	r2,93
  804c64:	e0bf8015 	stw	r2,-512(fp)
  804c68:	00902b74 	movhi	r2,16557
  804c6c:	108fdf44 	addi	r2,r2,16253
  804c70:	e0bf8115 	stw	r2,-508(fp)
  804c74:	00801144 	movi	r2,69
  804c78:	e0bf8215 	stw	r2,-504(fp)
  804c7c:	0090b874 	movhi	r2,17121
  804c80:	10b147c4 	addi	r2,r2,-15073
  804c84:	e0bf8315 	stw	r2,-500(fp)
  804c88:	00800944 	movi	r2,37
  804c8c:	e0bf8415 	stw	r2,-496(fp)
  804c90:	0090a4f4 	movhi	r2,17043
  804c94:	10abc6c4 	addi	r2,r2,-20709
  804c98:	e0bf8515 	stw	r2,-492(fp)
  804c9c:	e0bf8004 	addi	r2,fp,-512
  804ca0:	013fffb4 	movhi	r4,65534
  804ca4:	213dab04 	addi	r4,r4,-2388
  804ca8:	2709883a 	add	r4,r4,fp
  804cac:	20800015 	stw	r2,0(r4)
  804cb0:	010000c4 	movi	r4,3
  804cb4:	00bfffb4 	movhi	r2,65534
  804cb8:	10bdac04 	addi	r2,r2,-2384
  804cbc:	1705883a 	add	r2,r2,fp
  804cc0:	11000015 	stw	r4,0(r2)
  804cc4:	00bfffb4 	movhi	r2,65534
  804cc8:	10bdab04 	addi	r2,r2,-2388
  804ccc:	1705883a 	add	r2,r2,fp
  804cd0:	11400017 	ldw	r5,0(r2)
  804cd4:	00bfffb4 	movhi	r2,65534
  804cd8:	10bdac04 	addi	r2,r2,-2384
  804cdc:	1705883a 	add	r2,r2,fp
  804ce0:	11800017 	ldw	r6,0(r2)
  804ce4:	1809883a 	mov	r4,r3
  804ce8:	08063500 	call	806350 <_ZNSt6vectorISt4pairIifESaIS1_EEaSESt16initializer_listIS1_E>
  adjList[93] = {{92, 5.414}, {94, 22.298}, {36, 125.363}};
  804cec:	00bffff4 	movhi	r2,65535
  804cf0:	10bdeb04 	addi	r2,r2,-2132
  804cf4:	e0fff804 	addi	r3,fp,-32
  804cf8:	1885883a 	add	r2,r3,r2
  804cfc:	01401744 	movi	r5,93
  804d00:	1009883a 	mov	r4,r2
  804d04:	080630c0 	call	80630c <_ZNSt6vectorIS_ISt4pairIifESaIS1_EESaIS3_EEixEj>
  804d08:	1007883a 	mov	r3,r2
  804d0c:	00801704 	movi	r2,92
  804d10:	e0bf8615 	stw	r2,-488(fp)
  804d14:	00902b74 	movhi	r2,16557
  804d18:	108fdf44 	addi	r2,r2,16253
  804d1c:	e0bf8715 	stw	r2,-484(fp)
  804d20:	00801784 	movi	r2,94
  804d24:	e0bf8815 	stw	r2,-480(fp)
  804d28:	00906cb4 	movhi	r2,16818
  804d2c:	10989384 	addi	r2,r2,25166
  804d30:	e0bf8915 	stw	r2,-476(fp)
  804d34:	00800904 	movi	r2,36
  804d38:	e0bf8a15 	stw	r2,-472(fp)
  804d3c:	0090bef4 	movhi	r2,17147
  804d40:	10ae76c4 	addi	r2,r2,-17957
  804d44:	e0bf8b15 	stw	r2,-468(fp)
  804d48:	e0bf8604 	addi	r2,fp,-488
  804d4c:	013fffb4 	movhi	r4,65534
  804d50:	213dad04 	addi	r4,r4,-2380
  804d54:	2709883a 	add	r4,r4,fp
  804d58:	20800015 	stw	r2,0(r4)
  804d5c:	010000c4 	movi	r4,3
  804d60:	00bfffb4 	movhi	r2,65534
  804d64:	10bdae04 	addi	r2,r2,-2376
  804d68:	1705883a 	add	r2,r2,fp
  804d6c:	11000015 	stw	r4,0(r2)
  804d70:	00bfffb4 	movhi	r2,65534
  804d74:	10bdad04 	addi	r2,r2,-2380
  804d78:	1705883a 	add	r2,r2,fp
  804d7c:	11400017 	ldw	r5,0(r2)
  804d80:	00bfffb4 	movhi	r2,65534
  804d84:	10bdae04 	addi	r2,r2,-2376
  804d88:	1705883a 	add	r2,r2,fp
  804d8c:	11800017 	ldw	r6,0(r2)
  804d90:	1809883a 	mov	r4,r3
  804d94:	08063500 	call	806350 <_ZNSt6vectorISt4pairIifESaIS1_EEaSESt16initializer_listIS1_E>
  adjList[94] = {{103, 174.384}};
  804d98:	00bffff4 	movhi	r2,65535
  804d9c:	10bdeb04 	addi	r2,r2,-2132
  804da0:	e0fff804 	addi	r3,fp,-32
  804da4:	1885883a 	add	r2,r3,r2
  804da8:	01401784 	movi	r5,94
  804dac:	1009883a 	mov	r4,r2
  804db0:	080630c0 	call	80630c <_ZNSt6vectorIS_ISt4pairIifESaIS1_EESaIS3_EEixEj>
  804db4:	1007883a 	mov	r3,r2
  804db8:	008019c4 	movi	r2,103
  804dbc:	e0bf8c15 	stw	r2,-464(fp)
  804dc0:	0090cbb4 	movhi	r2,17198
  804dc4:	10989384 	addi	r2,r2,25166
  804dc8:	e0bf8d15 	stw	r2,-460(fp)
  804dcc:	e0bf8c04 	addi	r2,fp,-464
  804dd0:	013fffb4 	movhi	r4,65534
  804dd4:	213daf04 	addi	r4,r4,-2372
  804dd8:	2709883a 	add	r4,r4,fp
  804ddc:	20800015 	stw	r2,0(r4)
  804de0:	01400044 	movi	r5,1
  804de4:	00bfffb4 	movhi	r2,65534
  804de8:	10bdb004 	addi	r2,r2,-2368
  804dec:	1705883a 	add	r2,r2,fp
  804df0:	11400015 	stw	r5,0(r2)
  804df4:	00bfffb4 	movhi	r2,65534
  804df8:	10bdaf04 	addi	r2,r2,-2372
  804dfc:	1705883a 	add	r2,r2,fp
  804e00:	11400017 	ldw	r5,0(r2)
  804e04:	00bfffb4 	movhi	r2,65534
  804e08:	10bdb004 	addi	r2,r2,-2368
  804e0c:	1705883a 	add	r2,r2,fp
  804e10:	11800017 	ldw	r6,0(r2)
  804e14:	1809883a 	mov	r4,r3
  804e18:	08063500 	call	806350 <_ZNSt6vectorISt4pairIifESaIS1_EEaSESt16initializer_listIS1_E>
  adjList[95] = {{103, 12.354}, {93, 185.367}};
  804e1c:	00bffff4 	movhi	r2,65535
  804e20:	10bdeb04 	addi	r2,r2,-2132
  804e24:	e0fff804 	addi	r3,fp,-32
  804e28:	1885883a 	add	r2,r3,r2
  804e2c:	014017c4 	movi	r5,95
  804e30:	1009883a 	mov	r4,r2
  804e34:	080630c0 	call	80630c <_ZNSt6vectorIS_ISt4pairIifESaIS1_EESaIS3_EEixEj>
  804e38:	1007883a 	mov	r3,r2
  804e3c:	008019c4 	movi	r2,103
  804e40:	e0bf8e15 	stw	r2,-456(fp)
  804e44:	009051b4 	movhi	r2,16710
  804e48:	10aa7f04 	addi	r2,r2,-22020
  804e4c:	e0bf8f15 	stw	r2,-452(fp)
  804e50:	00801744 	movi	r2,93
  804e54:	e0bf9015 	stw	r2,-448(fp)
  804e58:	0090ce74 	movhi	r2,17209
  804e5c:	10977d04 	addi	r2,r2,24052
  804e60:	e0bf9115 	stw	r2,-444(fp)
  804e64:	e0bf8e04 	addi	r2,fp,-456
  804e68:	013fffb4 	movhi	r4,65534
  804e6c:	213db104 	addi	r4,r4,-2364
  804e70:	2709883a 	add	r4,r4,fp
  804e74:	20800015 	stw	r2,0(r4)
  804e78:	00800084 	movi	r2,2
  804e7c:	013fffb4 	movhi	r4,65534
  804e80:	213db204 	addi	r4,r4,-2360
  804e84:	2709883a 	add	r4,r4,fp
  804e88:	20800015 	stw	r2,0(r4)
  804e8c:	00bfffb4 	movhi	r2,65534
  804e90:	10bdb104 	addi	r2,r2,-2364
  804e94:	1705883a 	add	r2,r2,fp
  804e98:	11400017 	ldw	r5,0(r2)
  804e9c:	00bfffb4 	movhi	r2,65534
  804ea0:	10bdb204 	addi	r2,r2,-2360
  804ea4:	1705883a 	add	r2,r2,fp
  804ea8:	11800017 	ldw	r6,0(r2)
  804eac:	1809883a 	mov	r4,r3
  804eb0:	08063500 	call	806350 <_ZNSt6vectorISt4pairIifESaIS1_EEaSESt16initializer_listIS1_E>
  adjList[96] = {{100, 11.367}};
  804eb4:	00bffff4 	movhi	r2,65535
  804eb8:	10bdeb04 	addi	r2,r2,-2132
  804ebc:	e0fff804 	addi	r3,fp,-32
  804ec0:	1885883a 	add	r2,r3,r2
  804ec4:	01401804 	movi	r5,96
  804ec8:	1009883a 	mov	r4,r2
  804ecc:	080630c0 	call	80630c <_ZNSt6vectorIS_ISt4pairIifESaIS1_EESaIS3_EEixEj>
  804ed0:	1007883a 	mov	r3,r2
  804ed4:	00801904 	movi	r2,100
  804ed8:	e0bf9215 	stw	r2,-440(fp)
  804edc:	00904db4 	movhi	r2,16694
  804ee0:	10b7cec4 	addi	r2,r2,-8389
  804ee4:	e0bf9315 	stw	r2,-436(fp)
  804ee8:	e0bf9204 	addi	r2,fp,-440
  804eec:	013fffb4 	movhi	r4,65534
  804ef0:	213db304 	addi	r4,r4,-2356
  804ef4:	2709883a 	add	r4,r4,fp
  804ef8:	20800015 	stw	r2,0(r4)
  804efc:	01400044 	movi	r5,1
  804f00:	00bfffb4 	movhi	r2,65534
  804f04:	10bdb404 	addi	r2,r2,-2352
  804f08:	1705883a 	add	r2,r2,fp
  804f0c:	11400015 	stw	r5,0(r2)
  804f10:	00bfffb4 	movhi	r2,65534
  804f14:	10bdb304 	addi	r2,r2,-2356
  804f18:	1705883a 	add	r2,r2,fp
  804f1c:	11400017 	ldw	r5,0(r2)
  804f20:	00bfffb4 	movhi	r2,65534
  804f24:	10bdb404 	addi	r2,r2,-2352
  804f28:	1705883a 	add	r2,r2,fp
  804f2c:	11800017 	ldw	r6,0(r2)
  804f30:	1809883a 	mov	r4,r3
  804f34:	08063500 	call	806350 <_ZNSt6vectorISt4pairIifESaIS1_EEaSESt16initializer_listIS1_E>
  adjList[97] = {{98, 9.088}, {99, 180.81}};
  804f38:	00bffff4 	movhi	r2,65535
  804f3c:	10bdeb04 	addi	r2,r2,-2132
  804f40:	e0fff804 	addi	r3,fp,-32
  804f44:	1885883a 	add	r2,r3,r2
  804f48:	01401844 	movi	r5,97
  804f4c:	1009883a 	mov	r4,r2
  804f50:	080630c0 	call	80630c <_ZNSt6vectorIS_ISt4pairIifESaIS1_EESaIS3_EEixEj>
  804f54:	1007883a 	mov	r3,r2
  804f58:	00801884 	movi	r2,98
  804f5c:	e0bf9415 	stw	r2,-432(fp)
  804f60:	00904474 	movhi	r2,16657
  804f64:	109a1cc4 	addi	r2,r2,26739
  804f68:	e0bf9515 	stw	r2,-428(fp)
  804f6c:	008018c4 	movi	r2,99
  804f70:	e0bf9615 	stw	r2,-424(fp)
  804f74:	0090cd74 	movhi	r2,17205
  804f78:	10b3d704 	addi	r2,r2,-12452
  804f7c:	e0bf9715 	stw	r2,-420(fp)
  804f80:	e0bf9404 	addi	r2,fp,-432
  804f84:	013fffb4 	movhi	r4,65534
  804f88:	213db504 	addi	r4,r4,-2348
  804f8c:	2709883a 	add	r4,r4,fp
  804f90:	20800015 	stw	r2,0(r4)
  804f94:	00800084 	movi	r2,2
  804f98:	013fffb4 	movhi	r4,65534
  804f9c:	213db604 	addi	r4,r4,-2344
  804fa0:	2709883a 	add	r4,r4,fp
  804fa4:	20800015 	stw	r2,0(r4)
  804fa8:	00bfffb4 	movhi	r2,65534
  804fac:	10bdb504 	addi	r2,r2,-2348
  804fb0:	1705883a 	add	r2,r2,fp
  804fb4:	11400017 	ldw	r5,0(r2)
  804fb8:	00bfffb4 	movhi	r2,65534
  804fbc:	10bdb604 	addi	r2,r2,-2344
  804fc0:	1705883a 	add	r2,r2,fp
  804fc4:	11800017 	ldw	r6,0(r2)
  804fc8:	1809883a 	mov	r4,r3
  804fcc:	08063500 	call	806350 <_ZNSt6vectorISt4pairIifESaIS1_EEaSESt16initializer_listIS1_E>
  adjList[98] = {{96, 87.726}};
  804fd0:	00bffff4 	movhi	r2,65535
  804fd4:	10bdeb04 	addi	r2,r2,-2132
  804fd8:	e0fff804 	addi	r3,fp,-32
  804fdc:	1885883a 	add	r2,r3,r2
  804fe0:	01401884 	movi	r5,98
  804fe4:	1009883a 	mov	r4,r2
  804fe8:	080630c0 	call	80630c <_ZNSt6vectorIS_ISt4pairIifESaIS1_EESaIS3_EEixEj>
  804fec:	1007883a 	mov	r3,r2
  804ff0:	00801804 	movi	r2,96
  804ff4:	e0bf9815 	stw	r2,-416(fp)
  804ff8:	0090abf4 	movhi	r2,17071
  804ffc:	109ced84 	addi	r2,r2,29622
  805000:	e0bf9915 	stw	r2,-412(fp)
  805004:	e0bf9804 	addi	r2,fp,-416
  805008:	013fffb4 	movhi	r4,65534
  80500c:	213db704 	addi	r4,r4,-2340
  805010:	2709883a 	add	r4,r4,fp
  805014:	20800015 	stw	r2,0(r4)
  805018:	01400044 	movi	r5,1
  80501c:	00bfffb4 	movhi	r2,65534
  805020:	10bdb804 	addi	r2,r2,-2336
  805024:	1705883a 	add	r2,r2,fp
  805028:	11400015 	stw	r5,0(r2)
  80502c:	00bfffb4 	movhi	r2,65534
  805030:	10bdb704 	addi	r2,r2,-2340
  805034:	1705883a 	add	r2,r2,fp
  805038:	11400017 	ldw	r5,0(r2)
  80503c:	00bfffb4 	movhi	r2,65534
  805040:	10bdb804 	addi	r2,r2,-2336
  805044:	1705883a 	add	r2,r2,fp
  805048:	11800017 	ldw	r6,0(r2)
  80504c:	1809883a 	mov	r4,r3
  805050:	08063500 	call	806350 <_ZNSt6vectorISt4pairIifESaIS1_EEaSESt16initializer_listIS1_E>
  adjList[99] = {{78, 107.001}};
  805054:	00bffff4 	movhi	r2,65535
  805058:	10bdeb04 	addi	r2,r2,-2132
  80505c:	e0fff804 	addi	r3,fp,-32
  805060:	1885883a 	add	r2,r3,r2
  805064:	014018c4 	movi	r5,99
  805068:	1009883a 	mov	r4,r2
  80506c:	080630c0 	call	80630c <_ZNSt6vectorIS_ISt4pairIifESaIS1_EESaIS3_EEixEj>
  805070:	1007883a 	mov	r3,r2
  805074:	00801384 	movi	r2,78
  805078:	e0bf9a15 	stw	r2,-408(fp)
  80507c:	0090b5b4 	movhi	r2,17110
  805080:	108020c4 	addi	r2,r2,131
  805084:	e0bf9b15 	stw	r2,-404(fp)
  805088:	e0bf9a04 	addi	r2,fp,-408
  80508c:	013fffb4 	movhi	r4,65534
  805090:	213db904 	addi	r4,r4,-2332
  805094:	2709883a 	add	r4,r4,fp
  805098:	20800015 	stw	r2,0(r4)
  80509c:	01400044 	movi	r5,1
  8050a0:	00bfffb4 	movhi	r2,65534
  8050a4:	10bdba04 	addi	r2,r2,-2328
  8050a8:	1705883a 	add	r2,r2,fp
  8050ac:	11400015 	stw	r5,0(r2)
  8050b0:	00bfffb4 	movhi	r2,65534
  8050b4:	10bdb904 	addi	r2,r2,-2332
  8050b8:	1705883a 	add	r2,r2,fp
  8050bc:	11400017 	ldw	r5,0(r2)
  8050c0:	00bfffb4 	movhi	r2,65534
  8050c4:	10bdba04 	addi	r2,r2,-2328
  8050c8:	1705883a 	add	r2,r2,fp
  8050cc:	11800017 	ldw	r6,0(r2)
  8050d0:	1809883a 	mov	r4,r3
  8050d4:	08063500 	call	806350 <_ZNSt6vectorISt4pairIifESaIS1_EEaSESt16initializer_listIS1_E>
  adjList[100] = {{90, 9.331}, {83, 46.897}};
  8050d8:	00bffff4 	movhi	r2,65535
  8050dc:	10bdeb04 	addi	r2,r2,-2132
  8050e0:	e0fff804 	addi	r3,fp,-32
  8050e4:	1885883a 	add	r2,r3,r2
  8050e8:	01401904 	movi	r5,100
  8050ec:	1009883a 	mov	r4,r2
  8050f0:	080630c0 	call	80630c <_ZNSt6vectorIS_ISt4pairIifESaIS1_EESaIS3_EEixEj>
  8050f4:	1007883a 	mov	r3,r2
  8050f8:	00801684 	movi	r2,90
  8050fc:	e0bf9c15 	stw	r2,-400(fp)
  805100:	00904574 	movhi	r2,16661
  805104:	1092f1c4 	addi	r2,r2,19399
  805108:	e0bf9d15 	stw	r2,-396(fp)
  80510c:	008014c4 	movi	r2,83
  805110:	e0bf9e15 	stw	r2,-392(fp)
  805114:	00908f34 	movhi	r2,16956
  805118:	10a5a1c4 	addi	r2,r2,-27001
  80511c:	e0bf9f15 	stw	r2,-388(fp)
  805120:	e0bf9c04 	addi	r2,fp,-400
  805124:	013fffb4 	movhi	r4,65534
  805128:	213dbb04 	addi	r4,r4,-2324
  80512c:	2709883a 	add	r4,r4,fp
  805130:	20800015 	stw	r2,0(r4)
  805134:	00800084 	movi	r2,2
  805138:	013fffb4 	movhi	r4,65534
  80513c:	213dbc04 	addi	r4,r4,-2320
  805140:	2709883a 	add	r4,r4,fp
  805144:	20800015 	stw	r2,0(r4)
  805148:	00bfffb4 	movhi	r2,65534
  80514c:	10bdbb04 	addi	r2,r2,-2324
  805150:	1705883a 	add	r2,r2,fp
  805154:	11400017 	ldw	r5,0(r2)
  805158:	00bfffb4 	movhi	r2,65534
  80515c:	10bdbc04 	addi	r2,r2,-2320
  805160:	1705883a 	add	r2,r2,fp
  805164:	11800017 	ldw	r6,0(r2)
  805168:	1809883a 	mov	r4,r3
  80516c:	08063500 	call	806350 <_ZNSt6vectorISt4pairIifESaIS1_EEaSESt16initializer_listIS1_E>
  adjList[101] = {{109, 40.113}};
  805170:	00bffff4 	movhi	r2,65535
  805174:	10bdeb04 	addi	r2,r2,-2132
  805178:	e0fff804 	addi	r3,fp,-32
  80517c:	1885883a 	add	r2,r3,r2
  805180:	01401944 	movi	r5,101
  805184:	1009883a 	mov	r4,r2
  805188:	080630c0 	call	80630c <_ZNSt6vectorIS_ISt4pairIifESaIS1_EESaIS3_EEixEj>
  80518c:	1007883a 	mov	r3,r2
  805190:	00801b44 	movi	r2,109
  805194:	e0bfa015 	stw	r2,-384(fp)
  805198:	00908834 	movhi	r2,16928
  80519c:	109ced84 	addi	r2,r2,29622
  8051a0:	e0bfa115 	stw	r2,-380(fp)
  8051a4:	e0bfa004 	addi	r2,fp,-384
  8051a8:	013fffb4 	movhi	r4,65534
  8051ac:	213dbd04 	addi	r4,r4,-2316
  8051b0:	2709883a 	add	r4,r4,fp
  8051b4:	20800015 	stw	r2,0(r4)
  8051b8:	01400044 	movi	r5,1
  8051bc:	00bfffb4 	movhi	r2,65534
  8051c0:	10bdbe04 	addi	r2,r2,-2312
  8051c4:	1705883a 	add	r2,r2,fp
  8051c8:	11400015 	stw	r5,0(r2)
  8051cc:	00bfffb4 	movhi	r2,65534
  8051d0:	10bdbd04 	addi	r2,r2,-2316
  8051d4:	1705883a 	add	r2,r2,fp
  8051d8:	11400017 	ldw	r5,0(r2)
  8051dc:	00bfffb4 	movhi	r2,65534
  8051e0:	10bdbe04 	addi	r2,r2,-2312
  8051e4:	1705883a 	add	r2,r2,fp
  8051e8:	11800017 	ldw	r6,0(r2)
  8051ec:	1809883a 	mov	r4,r3
  8051f0:	08063500 	call	806350 <_ZNSt6vectorISt4pairIifESaIS1_EEaSESt16initializer_listIS1_E>
  adjList[102] = {{20, 11.386}, {101, 9.717}};
  8051f4:	00bffff4 	movhi	r2,65535
  8051f8:	10bdeb04 	addi	r2,r2,-2132
  8051fc:	e0fff804 	addi	r3,fp,-32
  805200:	1885883a 	add	r2,r3,r2
  805204:	01401984 	movi	r5,102
  805208:	1009883a 	mov	r4,r2
  80520c:	080630c0 	call	80630c <_ZNSt6vectorIS_ISt4pairIifESaIS1_EESaIS3_EEixEj>
  805210:	1007883a 	mov	r3,r2
  805214:	00800504 	movi	r2,20
  805218:	e0bfa215 	stw	r2,-376(fp)
  80521c:	00904db4 	movhi	r2,16694
  805220:	108b4384 	addi	r2,r2,11534
  805224:	e0bfa315 	stw	r2,-372(fp)
  805228:	00801944 	movi	r2,101
  80522c:	e0bfa415 	stw	r2,-368(fp)
  805230:	009046f4 	movhi	r2,16667
  805234:	109e3544 	addi	r2,r2,30933
  805238:	e0bfa515 	stw	r2,-364(fp)
  80523c:	e0bfa204 	addi	r2,fp,-376
  805240:	013fffb4 	movhi	r4,65534
  805244:	213dbf04 	addi	r4,r4,-2308
  805248:	2709883a 	add	r4,r4,fp
  80524c:	20800015 	stw	r2,0(r4)
  805250:	00800084 	movi	r2,2
  805254:	013fffb4 	movhi	r4,65534
  805258:	213dc004 	addi	r4,r4,-2304
  80525c:	2709883a 	add	r4,r4,fp
  805260:	20800015 	stw	r2,0(r4)
  805264:	00bfffb4 	movhi	r2,65534
  805268:	10bdbf04 	addi	r2,r2,-2308
  80526c:	1705883a 	add	r2,r2,fp
  805270:	11400017 	ldw	r5,0(r2)
  805274:	00bfffb4 	movhi	r2,65534
  805278:	10bdc004 	addi	r2,r2,-2304
  80527c:	1705883a 	add	r2,r2,fp
  805280:	11800017 	ldw	r6,0(r2)
  805284:	1809883a 	mov	r4,r3
  805288:	08063500 	call	806350 <_ZNSt6vectorISt4pairIifESaIS1_EEaSESt16initializer_listIS1_E>
  adjList[103] = {};
  80528c:	00bffff4 	movhi	r2,65535
  805290:	10bdeb04 	addi	r2,r2,-2132
  805294:	e0fff804 	addi	r3,fp,-32
  805298:	1885883a 	add	r2,r3,r2
  80529c:	014019c4 	movi	r5,103
  8052a0:	1009883a 	mov	r4,r2
  8052a4:	080630c0 	call	80630c <_ZNSt6vectorIS_ISt4pairIifESaIS1_EESaIS3_EEixEj>
  8052a8:	00ffffb4 	movhi	r3,65534
  8052ac:	18fdc104 	addi	r3,r3,-2300
  8052b0:	1f07883a 	add	r3,r3,fp
  8052b4:	18000015 	stw	zero,0(r3)
  8052b8:	00ffffb4 	movhi	r3,65534
  8052bc:	18fdc204 	addi	r3,r3,-2296
  8052c0:	1f07883a 	add	r3,r3,fp
  8052c4:	18000015 	stw	zero,0(r3)
  8052c8:	00ffffb4 	movhi	r3,65534
  8052cc:	18fdc104 	addi	r3,r3,-2300
  8052d0:	1f07883a 	add	r3,r3,fp
  8052d4:	19400017 	ldw	r5,0(r3)
  8052d8:	00ffffb4 	movhi	r3,65534
  8052dc:	18fdc204 	addi	r3,r3,-2296
  8052e0:	1f07883a 	add	r3,r3,fp
  8052e4:	19800017 	ldw	r6,0(r3)
  8052e8:	1009883a 	mov	r4,r2
  8052ec:	08063500 	call	806350 <_ZNSt6vectorISt4pairIifESaIS1_EEaSESt16initializer_listIS1_E>
  adjList[104] = {{25, 34.092}, {105, 29.532}};
  8052f0:	00bffff4 	movhi	r2,65535
  8052f4:	10bdeb04 	addi	r2,r2,-2132
  8052f8:	e0fff804 	addi	r3,fp,-32
  8052fc:	1885883a 	add	r2,r3,r2
  805300:	01401a04 	movi	r5,104
  805304:	1009883a 	mov	r4,r2
  805308:	080630c0 	call	80630c <_ZNSt6vectorIS_ISt4pairIifESaIS1_EESaIS3_EEixEj>
  80530c:	1007883a 	mov	r3,r2
  805310:	00800644 	movi	r2,25
  805314:	e0bfa615 	stw	r2,-360(fp)
  805318:	00908234 	movhi	r2,16904
  80531c:	10978d44 	addi	r2,r2,24117
  805320:	e0bfa715 	stw	r2,-356(fp)
  805324:	00801a44 	movi	r2,105
  805328:	e0bfa815 	stw	r2,-352(fp)
  80532c:	00907b34 	movhi	r2,16876
  805330:	10906244 	addi	r2,r2,16777
  805334:	e0bfa915 	stw	r2,-348(fp)
  805338:	e0bfa604 	addi	r2,fp,-360
  80533c:	013fffb4 	movhi	r4,65534
  805340:	213dc304 	addi	r4,r4,-2292
  805344:	2709883a 	add	r4,r4,fp
  805348:	20800015 	stw	r2,0(r4)
  80534c:	00800084 	movi	r2,2
  805350:	013fffb4 	movhi	r4,65534
  805354:	213dc404 	addi	r4,r4,-2288
  805358:	2709883a 	add	r4,r4,fp
  80535c:	20800015 	stw	r2,0(r4)
  805360:	00bfffb4 	movhi	r2,65534
  805364:	10bdc304 	addi	r2,r2,-2292
  805368:	1705883a 	add	r2,r2,fp
  80536c:	11400017 	ldw	r5,0(r2)
  805370:	00bfffb4 	movhi	r2,65534
  805374:	10bdc404 	addi	r2,r2,-2288
  805378:	1705883a 	add	r2,r2,fp
  80537c:	11800017 	ldw	r6,0(r2)
  805380:	1809883a 	mov	r4,r3
  805384:	08063500 	call	806350 <_ZNSt6vectorISt4pairIifESaIS1_EEaSESt16initializer_listIS1_E>
  adjList[105] = {};
  805388:	00bffff4 	movhi	r2,65535
  80538c:	10bdeb04 	addi	r2,r2,-2132
  805390:	e0fff804 	addi	r3,fp,-32
  805394:	1885883a 	add	r2,r3,r2
  805398:	01401a44 	movi	r5,105
  80539c:	1009883a 	mov	r4,r2
  8053a0:	080630c0 	call	80630c <_ZNSt6vectorIS_ISt4pairIifESaIS1_EESaIS3_EEixEj>
  8053a4:	00ffffb4 	movhi	r3,65534
  8053a8:	18fdc504 	addi	r3,r3,-2284
  8053ac:	1f07883a 	add	r3,r3,fp
  8053b0:	18000015 	stw	zero,0(r3)
  8053b4:	00ffffb4 	movhi	r3,65534
  8053b8:	18fdc604 	addi	r3,r3,-2280
  8053bc:	1f07883a 	add	r3,r3,fp
  8053c0:	18000015 	stw	zero,0(r3)
  8053c4:	00ffffb4 	movhi	r3,65534
  8053c8:	18fdc504 	addi	r3,r3,-2284
  8053cc:	1f07883a 	add	r3,r3,fp
  8053d0:	19400017 	ldw	r5,0(r3)
  8053d4:	00ffffb4 	movhi	r3,65534
  8053d8:	18fdc604 	addi	r3,r3,-2280
  8053dc:	1f07883a 	add	r3,r3,fp
  8053e0:	19800017 	ldw	r6,0(r3)
  8053e4:	1009883a 	mov	r4,r2
  8053e8:	08063500 	call	806350 <_ZNSt6vectorISt4pairIifESaIS1_EEaSESt16initializer_listIS1_E>
  adjList[106] = {{95, 33.122}, {104, 38.258}};
  8053ec:	00bffff4 	movhi	r2,65535
  8053f0:	10bdeb04 	addi	r2,r2,-2132
  8053f4:	e0fff804 	addi	r3,fp,-32
  8053f8:	1885883a 	add	r2,r3,r2
  8053fc:	01401a84 	movi	r5,106
  805400:	1009883a 	mov	r4,r2
  805404:	080630c0 	call	80630c <_ZNSt6vectorIS_ISt4pairIifESaIS1_EESaIS3_EEixEj>
  805408:	1007883a 	mov	r3,r2
  80540c:	008017c4 	movi	r2,95
  805410:	e0bfaa15 	stw	r2,-344(fp)
  805414:	00908134 	movhi	r2,16900
  805418:	109f3b84 	addi	r2,r2,31982
  80541c:	e0bfab15 	stw	r2,-340(fp)
  805420:	00801a04 	movi	r2,104
  805424:	e0bfac15 	stw	r2,-336(fp)
  805428:	00908674 	movhi	r2,16921
  80542c:	10820c44 	addi	r2,r2,2097
  805430:	e0bfad15 	stw	r2,-332(fp)
  805434:	e0bfaa04 	addi	r2,fp,-344
  805438:	013fffb4 	movhi	r4,65534
  80543c:	213dc704 	addi	r4,r4,-2276
  805440:	2709883a 	add	r4,r4,fp
  805444:	20800015 	stw	r2,0(r4)
  805448:	00800084 	movi	r2,2
  80544c:	013fffb4 	movhi	r4,65534
  805450:	213dc804 	addi	r4,r4,-2272
  805454:	2709883a 	add	r4,r4,fp
  805458:	20800015 	stw	r2,0(r4)
  80545c:	00bfffb4 	movhi	r2,65534
  805460:	10bdc704 	addi	r2,r2,-2276
  805464:	1705883a 	add	r2,r2,fp
  805468:	11400017 	ldw	r5,0(r2)
  80546c:	00bfffb4 	movhi	r2,65534
  805470:	10bdc804 	addi	r2,r2,-2272
  805474:	1705883a 	add	r2,r2,fp
  805478:	11800017 	ldw	r6,0(r2)
  80547c:	1809883a 	mov	r4,r3
  805480:	08063500 	call	806350 <_ZNSt6vectorISt4pairIifESaIS1_EEaSESt16initializer_listIS1_E>
  adjList[107] = {{99, 8.879}, {98, 180.91}};
  805484:	00bffff4 	movhi	r2,65535
  805488:	10bdeb04 	addi	r2,r2,-2132
  80548c:	e0fff804 	addi	r3,fp,-32
  805490:	1885883a 	add	r2,r3,r2
  805494:	01401ac4 	movi	r5,107
  805498:	1009883a 	mov	r4,r2
  80549c:	080630c0 	call	80630c <_ZNSt6vectorIS_ISt4pairIifESaIS1_EESaIS3_EEixEj>
  8054a0:	1007883a 	mov	r3,r2
  8054a4:	008018c4 	movi	r2,99
  8054a8:	e0bfae15 	stw	r2,-328(fp)
  8054ac:	009043b4 	movhi	r2,16654
  8054b0:	10841884 	addi	r2,r2,4194
  8054b4:	e0bfaf15 	stw	r2,-324(fp)
  8054b8:	00801884 	movi	r2,98
  8054bc:	e0bfb015 	stw	r2,-320(fp)
  8054c0:	0090cd74 	movhi	r2,17205
  8054c4:	10ba3d84 	addi	r2,r2,-5898
  8054c8:	e0bfb115 	stw	r2,-316(fp)
  8054cc:	e0bfae04 	addi	r2,fp,-328
  8054d0:	013fffb4 	movhi	r4,65534
  8054d4:	213dc904 	addi	r4,r4,-2268
  8054d8:	2709883a 	add	r4,r4,fp
  8054dc:	20800015 	stw	r2,0(r4)
  8054e0:	00800084 	movi	r2,2
  8054e4:	013fffb4 	movhi	r4,65534
  8054e8:	213dca04 	addi	r4,r4,-2264
  8054ec:	2709883a 	add	r4,r4,fp
  8054f0:	20800015 	stw	r2,0(r4)
  8054f4:	00bfffb4 	movhi	r2,65534
  8054f8:	10bdc904 	addi	r2,r2,-2268
  8054fc:	1705883a 	add	r2,r2,fp
  805500:	11400017 	ldw	r5,0(r2)
  805504:	00bfffb4 	movhi	r2,65534
  805508:	10bdca04 	addi	r2,r2,-2264
  80550c:	1705883a 	add	r2,r2,fp
  805510:	11800017 	ldw	r6,0(r2)
  805514:	1809883a 	mov	r4,r3
  805518:	08063500 	call	806350 <_ZNSt6vectorISt4pairIifESaIS1_EEaSESt16initializer_listIS1_E>
  adjList[108] = {{102, 31.976}};
  80551c:	00bffff4 	movhi	r2,65535
  805520:	10bdeb04 	addi	r2,r2,-2132
  805524:	e0fff804 	addi	r3,fp,-32
  805528:	1885883a 	add	r2,r3,r2
  80552c:	01401b04 	movi	r5,108
  805530:	1009883a 	mov	r4,r2
  805534:	080630c0 	call	80630c <_ZNSt6vectorIS_ISt4pairIifESaIS1_EESaIS3_EEixEj>
  805538:	1007883a 	mov	r3,r2
  80553c:	00801984 	movi	r2,102
  805540:	e0bfb215 	stw	r2,-312(fp)
  805544:	00908034 	movhi	r2,16896
  805548:	10b3b644 	addi	r2,r2,-12583
  80554c:	e0bfb315 	stw	r2,-308(fp)
  805550:	e0bfb204 	addi	r2,fp,-312
  805554:	013fffb4 	movhi	r4,65534
  805558:	213dcb04 	addi	r4,r4,-2260
  80555c:	2709883a 	add	r4,r4,fp
  805560:	20800015 	stw	r2,0(r4)
  805564:	01400044 	movi	r5,1
  805568:	00bfffb4 	movhi	r2,65534
  80556c:	10bdcc04 	addi	r2,r2,-2256
  805570:	1705883a 	add	r2,r2,fp
  805574:	11400015 	stw	r5,0(r2)
  805578:	00bfffb4 	movhi	r2,65534
  80557c:	10bdcb04 	addi	r2,r2,-2260
  805580:	1705883a 	add	r2,r2,fp
  805584:	11400017 	ldw	r5,0(r2)
  805588:	00bfffb4 	movhi	r2,65534
  80558c:	10bdcc04 	addi	r2,r2,-2256
  805590:	1705883a 	add	r2,r2,fp
  805594:	11800017 	ldw	r6,0(r2)
  805598:	1809883a 	mov	r4,r3
  80559c:	08063500 	call	806350 <_ZNSt6vectorISt4pairIifESaIS1_EEaSESt16initializer_listIS1_E>

  for (int row=0; row < 128; row++){
  8055a0:	e03fe615 	stw	zero,-104(fp)
  8055a4:	e0bfe617 	ldw	r2,-104(fp)
  8055a8:	10802008 	cmpgei	r2,r2,128
  8055ac:	1000241e 	bne	r2,zero,805640 <main+0x4ecc>
 	  for (int column=0; column < 128; column++){
  8055b0:	e03fe515 	stw	zero,-108(fp)
  8055b4:	e0bfe517 	ldw	r2,-108(fp)
  8055b8:	10802008 	cmpgei	r2,r2,128
  8055bc:	10001c1e 	bne	r2,zero,805630 <main+0x4ebc>
 		  if (row == column){
  8055c0:	e0ffe617 	ldw	r3,-104(fp)
  8055c4:	e0bfe517 	ldw	r2,-108(fp)
  8055c8:	18800b1e 	bne	r3,r2,8055f8 <main+0x4e84>
 			  DMA_write_dijkstra_cache(0,row, column);
  8055cc:	00bfffb4 	movhi	r2,65534
  8055d0:	10bdd804 	addi	r2,r2,-2208
  8055d4:	e0fff804 	addi	r3,fp,-32
  8055d8:	1885883a 	add	r2,r3,r2
  8055dc:	00c00084 	movi	r3,2
  8055e0:	10c00015 	stw	r3,0(r2)
  8055e4:	e1bfe517 	ldw	r6,-108(fp)
  8055e8:	e17fe617 	ldw	r5,-104(fp)
  8055ec:	0009883a 	mov	r4,zero
  8055f0:	08005d40 	call	8005d4 <_Z24DMA_write_dijkstra_cachefii>
  8055f4:	00000a06 	br	805620 <main+0x4eac>
 		  }
 		  else{
 			  DMA_write_dijkstra_cache(0x7F800000,row, column);
  8055f8:	00bfffb4 	movhi	r2,65534
  8055fc:	10bdd804 	addi	r2,r2,-2208
  805600:	e0fff804 	addi	r3,fp,-32
  805604:	1885883a 	add	r2,r3,r2
  805608:	00c00084 	movi	r3,2
  80560c:	10c00015 	stw	r3,0(r2)
  805610:	e1bfe517 	ldw	r6,-108(fp)
  805614:	e17fe617 	ldw	r5,-104(fp)
  805618:	0113bff4 	movhi	r4,20223
  80561c:	08005d40 	call	8005d4 <_Z24DMA_write_dijkstra_cachefii>
 	  for (int column=0; column < 128; column++){
  805620:	e0bfe517 	ldw	r2,-108(fp)
  805624:	10800044 	addi	r2,r2,1
  805628:	e0bfe515 	stw	r2,-108(fp)
  80562c:	003fe106 	br	8055b4 <main+0x4e40>
  for (int row=0; row < 128; row++){
  805630:	e0bfe617 	ldw	r2,-104(fp)
  805634:	10800044 	addi	r2,r2,1
  805638:	e0bfe615 	stw	r2,-104(fp)
  80563c:	003fd906 	br	8055a4 <main+0x4e30>
 		  }
 	  }
   }
  printf("done clearing cache\n");
  805640:	00bfffb4 	movhi	r2,65534
  805644:	10bdd804 	addi	r2,r2,-2208
  805648:	e0fff804 	addi	r3,fp,-32
  80564c:	1885883a 	add	r2,r3,r2
  805650:	00c00084 	movi	r3,2
  805654:	10c00015 	stw	r3,0(r2)
  805658:	010020b4 	movhi	r4,130
  80565c:	211bab04 	addi	r4,r4,28332
  805660:	08184440 	call	818444 <puts>

  float adjMatrix2[128][128];
  for(int i = 0; i<128;i++){
  805664:	e03fe415 	stw	zero,-112(fp)
  805668:	e0bfe417 	ldw	r2,-112(fp)
  80566c:	10802008 	cmpgei	r2,r2,128
  805670:	1000271e 	bne	r2,zero,805710 <main+0x4f9c>
  	 for (int j = 0; j <128 ; j++){
  805674:	e03fe315 	stw	zero,-116(fp)
  805678:	e0bfe317 	ldw	r2,-116(fp)
  80567c:	10802008 	cmpgei	r2,r2,128
  805680:	10001f1e 	bne	r2,zero,805700 <main+0x4f8c>
  		 	if (i==j){
  805684:	e0ffe417 	ldw	r3,-112(fp)
  805688:	e0bfe317 	ldw	r2,-116(fp)
  80568c:	18800c1e 	bne	r3,r2,8056c0 <main+0x4f4c>
  		 		adjMatrix2[i][j] = 0;
  805690:	00bfffb4 	movhi	r2,65534
  805694:	10bdeb04 	addi	r2,r2,-2132
  805698:	e0fff804 	addi	r3,fp,-32
  80569c:	1887883a 	add	r3,r3,r2
  8056a0:	e0bfe417 	ldw	r2,-112(fp)
  8056a4:	100891fa 	slli	r4,r2,7
  8056a8:	e0bfe317 	ldw	r2,-116(fp)
  8056ac:	2085883a 	add	r2,r4,r2
  8056b0:	100490ba 	slli	r2,r2,2
  8056b4:	1885883a 	add	r2,r3,r2
  8056b8:	10000015 	stw	zero,0(r2)
  8056bc:	00000c06 	br	8056f0 <main+0x4f7c>
  		 	}
  		 	else{
  		 		adjMatrix2[i][j] = 0x7F800000;
  8056c0:	00bfffb4 	movhi	r2,65534
  8056c4:	10bdeb04 	addi	r2,r2,-2132
  8056c8:	e0fff804 	addi	r3,fp,-32
  8056cc:	1887883a 	add	r3,r3,r2
  8056d0:	e0bfe417 	ldw	r2,-112(fp)
  8056d4:	100891fa 	slli	r4,r2,7
  8056d8:	e0bfe317 	ldw	r2,-116(fp)
  8056dc:	2085883a 	add	r2,r4,r2
  8056e0:	100490ba 	slli	r2,r2,2
  8056e4:	1885883a 	add	r2,r3,r2
  8056e8:	00d3bff4 	movhi	r3,20223
  8056ec:	10c00015 	stw	r3,0(r2)
  	 for (int j = 0; j <128 ; j++){
  8056f0:	e0bfe317 	ldw	r2,-116(fp)
  8056f4:	10800044 	addi	r2,r2,1
  8056f8:	e0bfe315 	stw	r2,-116(fp)
  8056fc:	003fde06 	br	805678 <main+0x4f04>
  for(int i = 0; i<128;i++){
  805700:	e0bfe417 	ldw	r2,-112(fp)
  805704:	10800044 	addi	r2,r2,1
  805708:	e0bfe415 	stw	r2,-112(fp)
  80570c:	003fd606 	br	805668 <main+0x4ef4>
  		 	}

  		 }
   }
   for (int i = 0; i < 128; ++i) {
  805710:	e03fe215 	stw	zero,-120(fp)
  805714:	e0bfe217 	ldw	r2,-120(fp)
  805718:	10802008 	cmpgei	r2,r2,128
  80571c:	1000581e 	bne	r2,zero,805880 <main+0x510c>
           for (auto edge : adjList[i]) {
  805720:	e0ffe217 	ldw	r3,-120(fp)
  805724:	00bffff4 	movhi	r2,65535
  805728:	10bdeb04 	addi	r2,r2,-2132
  80572c:	e13ff804 	addi	r4,fp,-32
  805730:	2085883a 	add	r2,r4,r2
  805734:	180b883a 	mov	r5,r3
  805738:	1009883a 	mov	r4,r2
  80573c:	080630c0 	call	80630c <_ZNSt6vectorIS_ISt4pairIifESaIS1_EESaIS3_EEixEj>
  805740:	e0bfc615 	stw	r2,-232(fp)
  805744:	e13fc617 	ldw	r4,-232(fp)
  805748:	08063c40 	call	8063c4 <_ZNSt6vectorISt4pairIifESaIS1_EE5beginEv>
  80574c:	1007883a 	mov	r3,r2
  805750:	00bfffb4 	movhi	r2,65534
  805754:	10bde504 	addi	r2,r2,-2156
  805758:	e13ff804 	addi	r4,fp,-32
  80575c:	2085883a 	add	r2,r4,r2
  805760:	10c00015 	stw	r3,0(r2)
  805764:	e13fc617 	ldw	r4,-232(fp)
  805768:	08064040 	call	806404 <_ZNSt6vectorISt4pairIifESaIS1_EE3endEv>
  80576c:	1007883a 	mov	r3,r2
  805770:	00bfffb4 	movhi	r2,65534
  805774:	10bde404 	addi	r2,r2,-2160
  805778:	e13ff804 	addi	r4,fp,-32
  80577c:	2085883a 	add	r2,r4,r2
  805780:	10c00015 	stw	r3,0(r2)
  805784:	00bfffb4 	movhi	r2,65534
  805788:	10bde404 	addi	r2,r2,-2160
  80578c:	e0fff804 	addi	r3,fp,-32
  805790:	1887883a 	add	r3,r3,r2
  805794:	00bfffb4 	movhi	r2,65534
  805798:	10bde504 	addi	r2,r2,-2156
  80579c:	e13ff804 	addi	r4,fp,-32
  8057a0:	2085883a 	add	r2,r4,r2
  8057a4:	180b883a 	mov	r5,r3
  8057a8:	1009883a 	mov	r4,r2
  8057ac:	08064480 	call	806448 <_ZN9__gnu_cxxneIPSt4pairIifESt6vectorIS2_SaIS2_EEEEbRKNS_17__normal_iteratorIT_T0_EESC_>
  8057b0:	10803fcc 	andi	r2,r2,255
  8057b4:	10002e26 	beq	r2,zero,805870 <main+0x50fc>
  8057b8:	00bfffb4 	movhi	r2,65534
  8057bc:	10bde504 	addi	r2,r2,-2156
  8057c0:	e0fff804 	addi	r3,fp,-32
  8057c4:	1885883a 	add	r2,r3,r2
  8057c8:	1009883a 	mov	r4,r2
  8057cc:	08064d00 	call	8064d0 <_ZNK9__gnu_cxx17__normal_iteratorIPSt4pairIifESt6vectorIS2_SaIS2_EEEdeEv>
  8057d0:	1007883a 	mov	r3,r2
  8057d4:	00bfffb4 	movhi	r2,65534
  8057d8:	10bde604 	addi	r2,r2,-2152
  8057dc:	e13ff804 	addi	r4,fp,-32
  8057e0:	2085883a 	add	r2,r4,r2
  8057e4:	19000017 	ldw	r4,0(r3)
  8057e8:	11000015 	stw	r4,0(r2)
  8057ec:	18c00117 	ldw	r3,4(r3)
  8057f0:	10c00115 	stw	r3,4(r2)
               int neighbor = edge.first;
  8057f4:	00bfffb4 	movhi	r2,65534
  8057f8:	10bde604 	addi	r2,r2,-2152
  8057fc:	e0fff804 	addi	r3,fp,-32
  805800:	1885883a 	add	r2,r3,r2
  805804:	10800017 	ldw	r2,0(r2)
  805808:	e0bfc515 	stw	r2,-236(fp)
               float weight = edge.second;
  80580c:	00bfffb4 	movhi	r2,65534
  805810:	10bde604 	addi	r2,r2,-2152
  805814:	e0fff804 	addi	r3,fp,-32
  805818:	1885883a 	add	r2,r3,r2
  80581c:	10800117 	ldw	r2,4(r2)
  805820:	e0bfc415 	stw	r2,-240(fp)
               adjMatrix2[i][neighbor] = weight;
  805824:	00bfffb4 	movhi	r2,65534
  805828:	10bdeb04 	addi	r2,r2,-2132
  80582c:	e0fff804 	addi	r3,fp,-32
  805830:	1887883a 	add	r3,r3,r2
  805834:	e0bfe217 	ldw	r2,-120(fp)
  805838:	100891fa 	slli	r4,r2,7
  80583c:	e0bfc517 	ldw	r2,-236(fp)
  805840:	2085883a 	add	r2,r4,r2
  805844:	100490ba 	slli	r2,r2,2
  805848:	1885883a 	add	r2,r3,r2
  80584c:	e0ffc417 	ldw	r3,-240(fp)
  805850:	10c00015 	stw	r3,0(r2)
           for (auto edge : adjList[i]) {
  805854:	00bfffb4 	movhi	r2,65534
  805858:	10bde504 	addi	r2,r2,-2156
  80585c:	e0fff804 	addi	r3,fp,-32
  805860:	1885883a 	add	r2,r3,r2
  805864:	1009883a 	mov	r4,r2
  805868:	08064980 	call	806498 <_ZN9__gnu_cxx17__normal_iteratorIPSt4pairIifESt6vectorIS2_SaIS2_EEEppEv>
  80586c:	003fc506 	br	805784 <main+0x5010>
   for (int i = 0; i < 128; ++i) {
  805870:	e0bfe217 	ldw	r2,-120(fp)
  805874:	10800044 	addi	r2,r2,1
  805878:	e0bfe215 	stw	r2,-120(fp)
  80587c:	003fa506 	br	805714 <main+0x4fa0>
           }
       }

   float* float_in_ptr2 = (float*)alt_uncached_malloc(65536);
  805880:	00bfffb4 	movhi	r2,65534
  805884:	10bdd804 	addi	r2,r2,-2208
  805888:	e0fff804 	addi	r3,fp,-32
  80588c:	1885883a 	add	r2,r3,r2
  805890:	00c00084 	movi	r3,2
  805894:	10c00015 	stw	r3,0(r2)
  805898:	01000074 	movhi	r4,1
  80589c:	0823c840 	call	823c84 <alt_uncached_malloc>
  8058a0:	e0bfc315 	stw	r2,-244(fp)
    temp_pointer = float_in_ptr2;
  8058a4:	e0bfc317 	ldw	r2,-244(fp)
  8058a8:	e0bff315 	stw	r2,-52(fp)
    for(int from = 0; from<128;from++){
  8058ac:	e03fe115 	stw	zero,-124(fp)
  8058b0:	e0bfe117 	ldw	r2,-124(fp)
  8058b4:	10802008 	cmpgei	r2,r2,128
  8058b8:	10001c1e 	bne	r2,zero,80592c <main+0x51b8>
   	 for (int column = 0; column <128 ; column++){
  8058bc:	e03fe015 	stw	zero,-128(fp)
  8058c0:	e0bfe017 	ldw	r2,-128(fp)
  8058c4:	10802008 	cmpgei	r2,r2,128
  8058c8:	1000141e 	bne	r2,zero,80591c <main+0x51a8>
   		 	 *temp_pointer = adjMatrix2[column][from];
  8058cc:	00bfffb4 	movhi	r2,65534
  8058d0:	10bdeb04 	addi	r2,r2,-2132
  8058d4:	e0fff804 	addi	r3,fp,-32
  8058d8:	1887883a 	add	r3,r3,r2
  8058dc:	e0bfe017 	ldw	r2,-128(fp)
  8058e0:	100891fa 	slli	r4,r2,7
  8058e4:	e0bfe117 	ldw	r2,-124(fp)
  8058e8:	2085883a 	add	r2,r4,r2
  8058ec:	100490ba 	slli	r2,r2,2
  8058f0:	1885883a 	add	r2,r3,r2
  8058f4:	10c00017 	ldw	r3,0(r2)
  8058f8:	e0bff317 	ldw	r2,-52(fp)
  8058fc:	10c00015 	stw	r3,0(r2)
   		 	 temp_pointer++;
  805900:	e0bff317 	ldw	r2,-52(fp)
  805904:	10800104 	addi	r2,r2,4
  805908:	e0bff315 	stw	r2,-52(fp)
   	 for (int column = 0; column <128 ; column++){
  80590c:	e0bfe017 	ldw	r2,-128(fp)
  805910:	10800044 	addi	r2,r2,1
  805914:	e0bfe015 	stw	r2,-128(fp)
  805918:	003fe906 	br	8058c0 <main+0x514c>
    for(int from = 0; from<128;from++){
  80591c:	e0bfe117 	ldw	r2,-124(fp)
  805920:	10800044 	addi	r2,r2,1
  805924:	e0bfe115 	stw	r2,-124(fp)
  805928:	003fe106 	br	8058b0 <main+0x513c>

   		 }
    }
    printf("start DMA copying \n");
  80592c:	00bfffb4 	movhi	r2,65534
  805930:	10bdd804 	addi	r2,r2,-2208
  805934:	e0fff804 	addi	r3,fp,-32
  805938:	1885883a 	add	r2,r3,r2
  80593c:	00c00084 	movi	r3,2
  805940:	10c00015 	stw	r3,0(r2)
  805944:	010020b4 	movhi	r4,130
  805948:	211bb004 	addi	r4,r4,28352
  80594c:	08184440 	call	818444 <puts>
    unsigned int ctrl2 = DMA_IRQ_E_BIT | DMA_LEEN | DMA_WORD;
  805950:	00802504 	movi	r2,148
  805954:	e0bfc215 	stw	r2,-248(fp)
      	 DMA dma2(DMA_0_BASE, ctrl2);
  805958:	00bfffb4 	movhi	r2,65534
  80595c:	10bde804 	addi	r2,r2,-2144
  805960:	e0fff804 	addi	r3,fp,-32
  805964:	1885883a 	add	r2,r3,r2
  805968:	e1bfc217 	ldw	r6,-248(fp)
  80596c:	01404134 	movhi	r5,260
  805970:	29442004 	addi	r5,r5,4224
  805974:	1009883a 	mov	r4,r2
  805978:	08002840 	call	800284 <_ZN3DMAC1Ejj>
      	 dma2.irq_reg(DMA_0_IRQ_INTERRUPT_CONTROLLER_ID, DMA_0_IRQ);
  80597c:	00bfffb4 	movhi	r2,65534
  805980:	10bde804 	addi	r2,r2,-2144
  805984:	e0fff804 	addi	r3,fp,-32
  805988:	1885883a 	add	r2,r3,r2
  80598c:	01800184 	movi	r6,6
  805990:	000b883a 	mov	r5,zero
  805994:	1009883a 	mov	r4,r2
  805998:	08002e00 	call	8002e0 <_ZN3DMA7irq_regEjj>
      	 const unsigned int address2 = DIJKSTRA32_FLOAT_0_BASE;
  80599c:	00804034 	movhi	r2,256
  8059a0:	e0bfc115 	stw	r2,-252(fp)
     	 dma2.copy((void*)float_in_ptr2, (void*)(address2), 65536);
  8059a4:	00bfffb4 	movhi	r2,65534
  8059a8:	10bde804 	addi	r2,r2,-2144
  8059ac:	e0fff804 	addi	r3,fp,-32
  8059b0:	1885883a 	add	r2,r3,r2
  8059b4:	01c00074 	movhi	r7,1
  8059b8:	01804034 	movhi	r6,256
  8059bc:	e17fc317 	ldw	r5,-244(fp)
  8059c0:	1009883a 	mov	r4,r2
  8059c4:	08003a40 	call	8003a4 <_ZN3DMA4copyEPvS0_i>


    printf("%f \t", read_dijkstra_cache(1,21));
  8059c8:	01400544 	movi	r5,21
  8059cc:	01000044 	movi	r4,1
  8059d0:	08006900 	call	800690 <_Z19read_dijkstra_cacheii>
  8059d4:	1007883a 	mov	r3,r2
  8059d8:	1809883a 	mov	r4,r3
  8059dc:	08170000 	call	817000 <__extendsfdf2>
  8059e0:	100d883a 	mov	r6,r2
  8059e4:	180f883a 	mov	r7,r3
  8059e8:	300b883a 	mov	r5,r6
  8059ec:	380d883a 	mov	r6,r7
  8059f0:	010020b4 	movhi	r4,130
  8059f4:	211b5804 	addi	r4,r4,28000
  8059f8:	08183200 	call	818320 <printf>
    printf("%f \t", read_dijkstra_cache(1,22));
  8059fc:	01400584 	movi	r5,22
  805a00:	01000044 	movi	r4,1
  805a04:	08006900 	call	800690 <_Z19read_dijkstra_cacheii>
  805a08:	1007883a 	mov	r3,r2
  805a0c:	1809883a 	mov	r4,r3
  805a10:	08170000 	call	817000 <__extendsfdf2>
  805a14:	100d883a 	mov	r6,r2
  805a18:	180f883a 	mov	r7,r3
  805a1c:	300b883a 	mov	r5,r6
  805a20:	380d883a 	mov	r6,r7
  805a24:	010020b4 	movhi	r4,130
  805a28:	211b5804 	addi	r4,r4,28000
  805a2c:	08183200 	call	818320 <printf>
    printf("%f \t", read_dijkstra_cache(94,103));
  805a30:	014019c4 	movi	r5,103
  805a34:	01001784 	movi	r4,94
  805a38:	08006900 	call	800690 <_Z19read_dijkstra_cacheii>
  805a3c:	1007883a 	mov	r3,r2
  805a40:	1809883a 	mov	r4,r3
  805a44:	08170000 	call	817000 <__extendsfdf2>
  805a48:	100d883a 	mov	r6,r2
  805a4c:	180f883a 	mov	r7,r3
  805a50:	300b883a 	mov	r5,r6
  805a54:	380d883a 	mov	r6,r7
  805a58:	010020b4 	movhi	r4,130
  805a5c:	211b5804 	addi	r4,r4,28000
  805a60:	08183200 	call	818320 <printf>
    printf("\nshortest distance: %f \n", run_dijkstra(15,94,119));
  805a64:	01801dc4 	movi	r6,119
  805a68:	01401784 	movi	r5,94
  805a6c:	010003c4 	movi	r4,15
  805a70:	08007100 	call	800710 <_Z12run_dijkstraiii>
  805a74:	1007883a 	mov	r3,r2
  805a78:	1809883a 	mov	r4,r3
  805a7c:	08170000 	call	817000 <__extendsfdf2>
  805a80:	100d883a 	mov	r6,r2
  805a84:	180f883a 	mov	r7,r3
  805a88:	300b883a 	mov	r5,r6
  805a8c:	380d883a 	mov	r6,r7
  805a90:	010020b4 	movhi	r4,130
  805a94:	211b5f04 	addi	r4,r4,28028
  805a98:	08183200 	call	818320 <printf>
    	  for (int i=0; i <128; i++){
  805a9c:	e03fdf15 	stw	zero,-132(fp)
  805aa0:	e0bfdf17 	ldw	r2,-132(fp)
  805aa4:	10802008 	cmpgei	r2,r2,128
  805aa8:	1000121e 	bne	r2,zero,805af4 <main+0x5380>
    	 	 printf("%d: %d \n",i,read_path_vector(i));
  805aac:	e13fdf17 	ldw	r4,-132(fp)
  805ab0:	08006dc0 	call	8006dc <_Z16read_path_vectori>
  805ab4:	1009883a 	mov	r4,r2
  805ab8:	00bfffb4 	movhi	r2,65534
  805abc:	10bdd804 	addi	r2,r2,-2208
  805ac0:	e0fff804 	addi	r3,fp,-32
  805ac4:	1885883a 	add	r2,r3,r2
  805ac8:	00c00084 	movi	r3,2
  805acc:	10c00015 	stw	r3,0(r2)
  805ad0:	200d883a 	mov	r6,r4
  805ad4:	e17fdf17 	ldw	r5,-132(fp)
  805ad8:	010020b4 	movhi	r4,130
  805adc:	211b6604 	addi	r4,r4,28056
  805ae0:	08183200 	call	818320 <printf>
    	  for (int i=0; i <128; i++){
  805ae4:	e0bfdf17 	ldw	r2,-132(fp)
  805ae8:	10800044 	addi	r2,r2,1
  805aec:	e0bfdf15 	stw	r2,-132(fp)
  805af0:	003feb06 	br	805aa0 <main+0x532c>
    	  }


    	  alt_64 proc_ticks2 = 0;
  805af4:	e03fdd15 	stw	zero,-140(fp)
  805af8:	e03fde15 	stw	zero,-136(fp)
    	  	 alt_64 cache_ticks2 = 0;
  805afc:	e03fdb15 	stw	zero,-148(fp)
  805b00:	e03fdc15 	stw	zero,-144(fp)
    	  	 alt_64 total_ticks2 = 0;
  805b04:	e03fd915 	stw	zero,-156(fp)
  805b08:	e03fda15 	stw	zero,-152(fp)
    	  	 alt_u64 time12 = 0;
  805b0c:	e03fbf15 	stw	zero,-260(fp)
  805b10:	e03fc015 	stw	zero,-256(fp)
    	  	 alt_u64 time22 = 0;
  805b14:	e03fbd15 	stw	zero,-268(fp)
  805b18:	e03fbe15 	stw	zero,-264(fp)
    	  	 alt_u64 time32 = 0;
  805b1c:	e03fbb15 	stw	zero,-276(fp)
  805b20:	e03fbc15 	stw	zero,-272(fp)

    	      int iterations2 = 1000;
  805b24:	0080fa04 	movi	r2,1000
  805b28:	e0bfba15 	stw	r2,-280(fp)
    	      // The code that you want to time goes here
    	      alt_timestamp_start();
  805b2c:	00bfffb4 	movhi	r2,65534
  805b30:	10bdd804 	addi	r2,r2,-2208
  805b34:	e0fff804 	addi	r3,fp,-32
  805b38:	1885883a 	add	r2,r3,r2
  805b3c:	00c00084 	movi	r3,2
  805b40:	10c00015 	stw	r3,0(r2)
  805b44:	08256a40 	call	8256a4 <alt_timestamp_start>
    	      time12 = alt_timestamp(); //
  805b48:	082573c0 	call	82573c <alt_timestamp>
  805b4c:	1009883a 	mov	r4,r2
  805b50:	180b883a 	mov	r5,r3
  805b54:	e13fbf15 	stw	r4,-260(fp)
  805b58:	e17fc015 	stw	r5,-256(fp)
    	      for (int i=0; i<iterations2; i++){
  805b5c:	e03fd815 	stw	zero,-160(fp)
  805b60:	e0ffd817 	ldw	r3,-160(fp)
  805b64:	e0bfba17 	ldw	r2,-280(fp)
  805b68:	1880680e 	bge	r3,r2,805d0c <main+0x5598>
    	  //
    	        time12 = alt_timestamp();
  805b6c:	00bfffb4 	movhi	r2,65534
  805b70:	10bdd804 	addi	r2,r2,-2208
  805b74:	e0fff804 	addi	r3,fp,-32
  805b78:	1885883a 	add	r2,r3,r2
  805b7c:	00c00084 	movi	r3,2
  805b80:	10c00015 	stw	r3,0(r2)
  805b84:	082573c0 	call	82573c <alt_timestamp>
  805b88:	1009883a 	mov	r4,r2
  805b8c:	180b883a 	mov	r5,r3
  805b90:	e13fbf15 	stw	r4,-260(fp)
  805b94:	e17fc015 	stw	r5,-256(fp)
    	        dma2.copy((void*)float_in_ptr2, (void*)(address), 1024);
  805b98:	00bfffb4 	movhi	r2,65534
  805b9c:	10bde804 	addi	r2,r2,-2144
  805ba0:	e0fff804 	addi	r3,fp,-32
  805ba4:	1885883a 	add	r2,r3,r2
  805ba8:	01c10004 	movi	r7,1024
  805bac:	01804034 	movhi	r6,256
  805bb0:	e17fc317 	ldw	r5,-244(fp)
  805bb4:	1009883a 	mov	r4,r2
  805bb8:	08003a40 	call	8003a4 <_ZN3DMA4copyEPvS0_i>
    	    	  time22 = alt_timestamp();
  805bbc:	082573c0 	call	82573c <alt_timestamp>
  805bc0:	1009883a 	mov	r4,r2
  805bc4:	180b883a 	mov	r5,r3
  805bc8:	e13fbd15 	stw	r4,-268(fp)
  805bcc:	e17fbe15 	stw	r5,-264(fp)
    	    	  run_dijkstra(1,2,67);
  805bd0:	018010c4 	movi	r6,67
  805bd4:	01400084 	movi	r5,2
  805bd8:	01000044 	movi	r4,1
  805bdc:	08007100 	call	800710 <_Z12run_dijkstraiii>
    	    	  time32 = alt_timestamp();
  805be0:	082573c0 	call	82573c <alt_timestamp>
  805be4:	1009883a 	mov	r4,r2
  805be8:	180b883a 	mov	r5,r3
  805bec:	e13fbb15 	stw	r4,-276(fp)
  805bf0:	e17fbc15 	stw	r5,-272(fp)

    	    	  proc_ticks2 += (time32 - time22);
  805bf4:	e13fbb17 	ldw	r4,-276(fp)
  805bf8:	e17fbc17 	ldw	r5,-272(fp)
  805bfc:	e1bfbd17 	ldw	r6,-268(fp)
  805c00:	e1ffbe17 	ldw	r7,-264(fp)
  805c04:	2185c83a 	sub	r2,r4,r6
  805c08:	2091803a 	cmpltu	r8,r4,r2
  805c0c:	29c7c83a 	sub	r3,r5,r7
  805c10:	1a09c83a 	sub	r4,r3,r8
  805c14:	2007883a 	mov	r3,r4
  805c18:	100d883a 	mov	r6,r2
  805c1c:	180f883a 	mov	r7,r3
  805c20:	e13fdd17 	ldw	r4,-140(fp)
  805c24:	e17fde17 	ldw	r5,-136(fp)
  805c28:	3105883a 	add	r2,r6,r4
  805c2c:	1191803a 	cmpltu	r8,r2,r6
  805c30:	3947883a 	add	r3,r7,r5
  805c34:	40c9883a 	add	r4,r8,r3
  805c38:	2007883a 	mov	r3,r4
  805c3c:	1009883a 	mov	r4,r2
  805c40:	180b883a 	mov	r5,r3
  805c44:	e13fdd15 	stw	r4,-140(fp)
  805c48:	e17fde15 	stw	r5,-136(fp)
    	  	  cache_ticks2 += (time22 - time12);
  805c4c:	e13fbd17 	ldw	r4,-268(fp)
  805c50:	e17fbe17 	ldw	r5,-264(fp)
  805c54:	e1bfbf17 	ldw	r6,-260(fp)
  805c58:	e1ffc017 	ldw	r7,-256(fp)
  805c5c:	2185c83a 	sub	r2,r4,r6
  805c60:	2091803a 	cmpltu	r8,r4,r2
  805c64:	29c7c83a 	sub	r3,r5,r7
  805c68:	1a09c83a 	sub	r4,r3,r8
  805c6c:	2007883a 	mov	r3,r4
  805c70:	100d883a 	mov	r6,r2
  805c74:	180f883a 	mov	r7,r3
  805c78:	e13fdb17 	ldw	r4,-148(fp)
  805c7c:	e17fdc17 	ldw	r5,-144(fp)
  805c80:	3105883a 	add	r2,r6,r4
  805c84:	1191803a 	cmpltu	r8,r2,r6
  805c88:	3947883a 	add	r3,r7,r5
  805c8c:	40c9883a 	add	r4,r8,r3
  805c90:	2007883a 	mov	r3,r4
  805c94:	1009883a 	mov	r4,r2
  805c98:	180b883a 	mov	r5,r3
  805c9c:	e13fdb15 	stw	r4,-148(fp)
  805ca0:	e17fdc15 	stw	r5,-144(fp)
    	  	  total_ticks2 += (time32 - time12);
  805ca4:	e13fbb17 	ldw	r4,-276(fp)
  805ca8:	e17fbc17 	ldw	r5,-272(fp)
  805cac:	e1bfbf17 	ldw	r6,-260(fp)
  805cb0:	e1ffc017 	ldw	r7,-256(fp)
  805cb4:	2185c83a 	sub	r2,r4,r6
  805cb8:	2091803a 	cmpltu	r8,r4,r2
  805cbc:	29c7c83a 	sub	r3,r5,r7
  805cc0:	1a09c83a 	sub	r4,r3,r8
  805cc4:	2007883a 	mov	r3,r4
  805cc8:	100d883a 	mov	r6,r2
  805ccc:	180f883a 	mov	r7,r3
  805cd0:	e13fd917 	ldw	r4,-156(fp)
  805cd4:	e17fda17 	ldw	r5,-152(fp)
  805cd8:	3105883a 	add	r2,r6,r4
  805cdc:	1191803a 	cmpltu	r8,r2,r6
  805ce0:	3947883a 	add	r3,r7,r5
  805ce4:	40c9883a 	add	r4,r8,r3
  805ce8:	2007883a 	mov	r3,r4
  805cec:	1009883a 	mov	r4,r2
  805cf0:	180b883a 	mov	r5,r3
  805cf4:	e13fd915 	stw	r4,-156(fp)
  805cf8:	e17fda15 	stw	r5,-152(fp)
    	      for (int i=0; i<iterations2; i++){
  805cfc:	e0bfd817 	ldw	r2,-160(fp)
  805d00:	10800044 	addi	r2,r2,1
  805d04:	e0bfd815 	stw	r2,-160(fp)
  805d08:	003f9506 	br	805b60 <main+0x53ec>
    	      }

    	      double proc_us2 = (double)proc_ticks2 / (double)k;
  805d0c:	e13fdd17 	ldw	r4,-140(fp)
  805d10:	e17fde17 	ldw	r5,-136(fp)
  805d14:	08152200 	call	815220 <__floatdidf>
  805d18:	013fffb4 	movhi	r4,65534
  805d1c:	213dcd04 	addi	r4,r4,-2252
  805d20:	2709883a 	add	r4,r4,fp
  805d24:	20800015 	stw	r2,0(r4)
  805d28:	00bfffb4 	movhi	r2,65534
  805d2c:	10bdce04 	addi	r2,r2,-2248
  805d30:	1705883a 	add	r2,r2,fp
  805d34:	10c00015 	stw	r3,0(r2)
  805d38:	e13fcd17 	ldw	r4,-204(fp)
  805d3c:	0816eb80 	call	816eb8 <__floatsidf>
  805d40:	1009883a 	mov	r4,r2
  805d44:	180b883a 	mov	r5,r3
  805d48:	200d883a 	mov	r6,r4
  805d4c:	280f883a 	mov	r7,r5
  805d50:	00bfffb4 	movhi	r2,65534
  805d54:	10bdcd04 	addi	r2,r2,-2252
  805d58:	1705883a 	add	r2,r2,fp
  805d5c:	11000017 	ldw	r4,0(r2)
  805d60:	00bfffb4 	movhi	r2,65534
  805d64:	10bdce04 	addi	r2,r2,-2248
  805d68:	1705883a 	add	r2,r2,fp
  805d6c:	11400017 	ldw	r5,0(r2)
  805d70:	0815d5c0 	call	815d5c <__divdf3>
  805d74:	1009883a 	mov	r4,r2
  805d78:	180b883a 	mov	r5,r3
  805d7c:	e13fb815 	stw	r4,-288(fp)
  805d80:	e17fb915 	stw	r5,-284(fp)
    	      double total_us2 = (double)total_ticks2 / (double)k;
  805d84:	e13fd917 	ldw	r4,-156(fp)
  805d88:	e17fda17 	ldw	r5,-152(fp)
  805d8c:	08152200 	call	815220 <__floatdidf>
  805d90:	013fffb4 	movhi	r4,65534
  805d94:	213dcd04 	addi	r4,r4,-2252
  805d98:	2709883a 	add	r4,r4,fp
  805d9c:	20800015 	stw	r2,0(r4)
  805da0:	00bfffb4 	movhi	r2,65534
  805da4:	10bdce04 	addi	r2,r2,-2248
  805da8:	1705883a 	add	r2,r2,fp
  805dac:	10c00015 	stw	r3,0(r2)
  805db0:	e13fcd17 	ldw	r4,-204(fp)
  805db4:	0816eb80 	call	816eb8 <__floatsidf>
  805db8:	1009883a 	mov	r4,r2
  805dbc:	180b883a 	mov	r5,r3
  805dc0:	200d883a 	mov	r6,r4
  805dc4:	280f883a 	mov	r7,r5
  805dc8:	00bfffb4 	movhi	r2,65534
  805dcc:	10bdcd04 	addi	r2,r2,-2252
  805dd0:	1705883a 	add	r2,r2,fp
  805dd4:	11000017 	ldw	r4,0(r2)
  805dd8:	00bfffb4 	movhi	r2,65534
  805ddc:	10bdce04 	addi	r2,r2,-2248
  805de0:	1705883a 	add	r2,r2,fp
  805de4:	11400017 	ldw	r5,0(r2)
  805de8:	0815d5c0 	call	815d5c <__divdf3>
  805dec:	1009883a 	mov	r4,r2
  805df0:	180b883a 	mov	r5,r3
  805df4:	e13fb615 	stw	r4,-296(fp)
  805df8:	e17fb715 	stw	r5,-292(fp)
    	      double cache_us2 = (double)cache_ticks2 / (double)k;
  805dfc:	e13fdb17 	ldw	r4,-148(fp)
  805e00:	e17fdc17 	ldw	r5,-144(fp)
  805e04:	08152200 	call	815220 <__floatdidf>
  805e08:	013fffb4 	movhi	r4,65534
  805e0c:	213dcd04 	addi	r4,r4,-2252
  805e10:	2709883a 	add	r4,r4,fp
  805e14:	20800015 	stw	r2,0(r4)
  805e18:	00bfffb4 	movhi	r2,65534
  805e1c:	10bdce04 	addi	r2,r2,-2248
  805e20:	1705883a 	add	r2,r2,fp
  805e24:	10c00015 	stw	r3,0(r2)
  805e28:	e13fcd17 	ldw	r4,-204(fp)
  805e2c:	0816eb80 	call	816eb8 <__floatsidf>
  805e30:	1009883a 	mov	r4,r2
  805e34:	180b883a 	mov	r5,r3
  805e38:	200d883a 	mov	r6,r4
  805e3c:	280f883a 	mov	r7,r5
  805e40:	00bfffb4 	movhi	r2,65534
  805e44:	10bdcd04 	addi	r2,r2,-2252
  805e48:	1705883a 	add	r2,r2,fp
  805e4c:	11000017 	ldw	r4,0(r2)
  805e50:	00bfffb4 	movhi	r2,65534
  805e54:	10bdce04 	addi	r2,r2,-2248
  805e58:	1705883a 	add	r2,r2,fp
  805e5c:	11400017 	ldw	r5,0(r2)
  805e60:	0815d5c0 	call	815d5c <__divdf3>
  805e64:	1009883a 	mov	r4,r2
  805e68:	180b883a 	mov	r5,r3
  805e6c:	e13fb415 	stw	r4,-304(fp)
  805e70:	e17fb515 	stw	r5,-300(fp)

    	      printf("Profiling Results: %i iteration(s), \nproc_ticks: %lld,\tproc_us: %f\tavg: %f\n",
  805e74:	e0bfb817 	ldw	r2,-288(fp)
  805e78:	d8800215 	stw	r2,8(sp)
  805e7c:	e0bfb917 	ldw	r2,-284(fp)
  805e80:	d8800315 	stw	r2,12(sp)
  805e84:	e0bfb817 	ldw	r2,-288(fp)
  805e88:	d8800015 	stw	r2,0(sp)
  805e8c:	e0bfb917 	ldw	r2,-284(fp)
  805e90:	d8800115 	stw	r2,4(sp)
  805e94:	e1bfdd17 	ldw	r6,-140(fp)
  805e98:	e1ffde17 	ldw	r7,-136(fp)
  805e9c:	00bfffb4 	movhi	r2,65534
  805ea0:	10bdd804 	addi	r2,r2,-2208
  805ea4:	e0fff804 	addi	r3,fp,-32
  805ea8:	1885883a 	add	r2,r3,r2
  805eac:	00c00084 	movi	r3,2
  805eb0:	10c00015 	stw	r3,0(r2)
  805eb4:	e17fce17 	ldw	r5,-200(fp)
  805eb8:	010020b4 	movhi	r4,130
  805ebc:	211b6904 	addi	r4,r4,28068
  805ec0:	08183200 	call	818320 <printf>
    	    		  iterations, proc_ticks2, proc_us2, proc_us2);
    	      printf("Profiling Results: %i iteration(s), \ncache_ticks: %lld,\tcache_us: %f\tavg: %f\n",
  805ec4:	e0bfb417 	ldw	r2,-304(fp)
  805ec8:	d8800215 	stw	r2,8(sp)
  805ecc:	e0bfb517 	ldw	r2,-300(fp)
  805ed0:	d8800315 	stw	r2,12(sp)
  805ed4:	e0bfb417 	ldw	r2,-304(fp)
  805ed8:	d8800015 	stw	r2,0(sp)
  805edc:	e0bfb517 	ldw	r2,-300(fp)
  805ee0:	d8800115 	stw	r2,4(sp)
  805ee4:	e1bfdb17 	ldw	r6,-148(fp)
  805ee8:	e1ffdc17 	ldw	r7,-144(fp)
  805eec:	e17fce17 	ldw	r5,-200(fp)
  805ef0:	010020b4 	movhi	r4,130
  805ef4:	211b7c04 	addi	r4,r4,28144
  805ef8:	08183200 	call	818320 <printf>
    	        		  iterations, cache_ticks2, cache_us2, cache_us2);
    	      printf("Profiling Results: %i iteration(s), \ntotal_ticks: %lld,\ttotal_us: %f\tavg: %f\n",
  805efc:	e0bfb617 	ldw	r2,-296(fp)
  805f00:	d8800215 	stw	r2,8(sp)
  805f04:	e0bfb717 	ldw	r2,-292(fp)
  805f08:	d8800315 	stw	r2,12(sp)
  805f0c:	e0bfb617 	ldw	r2,-296(fp)
  805f10:	d8800015 	stw	r2,0(sp)
  805f14:	e0bfb717 	ldw	r2,-292(fp)
  805f18:	d8800115 	stw	r2,4(sp)
  805f1c:	e1bfdd17 	ldw	r6,-140(fp)
  805f20:	e1ffde17 	ldw	r7,-136(fp)
  805f24:	e17fce17 	ldw	r5,-200(fp)
  805f28:	010020b4 	movhi	r4,130
  805f2c:	211b9004 	addi	r4,r4,28224
  805f30:	08183200 	call	818320 <printf>





  return 0;
  805f34:	00bfffb4 	movhi	r2,65534
  805f38:	10bdcd04 	addi	r2,r2,-2252
  805f3c:	1705883a 	add	r2,r2,fp
  805f40:	10000015 	stw	zero,0(r2)
  vector<vector<pair<int, float>>> adjList(128);
  805f44:	00bffff4 	movhi	r2,65535
  805f48:	10bdeb04 	addi	r2,r2,-2132
  805f4c:	e0fff804 	addi	r3,fp,-32
  805f50:	1885883a 	add	r2,r3,r2
  805f54:	1009883a 	mov	r4,r2
  805f58:	08062640 	call	806264 <_ZNSt6vectorIS_ISt4pairIifESaIS1_EESaIS3_EED1Ev>
}
  805f5c:	00bfffb4 	movhi	r2,65534
  805f60:	10bdcd04 	addi	r2,r2,-2252
  805f64:	1705883a 	add	r2,r2,fp
  805f68:	10800017 	ldw	r2,0(r2)
  805f6c:	00ffffb4 	movhi	r3,65534
  805f70:	18fdcd04 	addi	r3,r3,-2252
  805f74:	1f07883a 	add	r3,r3,fp
  805f78:	18800015 	stw	r2,0(r3)
  805f7c:	00003506 	br	806054 <main+0x58e0>
  805f80:	00bfffb4 	movhi	r2,65534
  805f84:	10bdd904 	addi	r2,r2,-2204
  805f88:	e0fff804 	addi	r3,fp,-32
  805f8c:	1885883a 	add	r2,r3,r2
  805f90:	10c00017 	ldw	r3,0(r2)
  805f94:	00bfffb4 	movhi	r2,65534
  805f98:	10bdd804 	addi	r2,r2,-2208
  805f9c:	e13ff804 	addi	r4,fp,-32
  805fa0:	2085883a 	add	r2,r4,r2
  805fa4:	10800017 	ldw	r2,0(r2)
  805fa8:	10000326 	beq	r2,zero,805fb8 <main+0x5844>
  805fac:	10bfffc4 	addi	r2,r2,-1
  805fb0:	10001326 	beq	r2,zero,806000 <main+0x588c>
  805fb4:	003b68fa 	trap	3
  805fb8:	00bfffb4 	movhi	r2,65534
  805fbc:	10bdcd04 	addi	r2,r2,-2252
  805fc0:	1705883a 	add	r2,r2,fp
  805fc4:	10c00015 	stw	r3,0(r2)
  805fc8:	e0bde9c4 	addi	r2,fp,-2137
  805fcc:	1009883a 	mov	r4,r2
  805fd0:	080610c0 	call	80610c <_ZNSaISt6vectorISt4pairIifESaIS1_EEED1Ev>
  805fd4:	00bfffb4 	movhi	r2,65534
  805fd8:	10bdcd04 	addi	r2,r2,-2252
  805fdc:	1705883a 	add	r2,r2,fp
  805fe0:	11000017 	ldw	r4,0(r2)
  805fe4:	00bfffb4 	movhi	r2,65534
  805fe8:	10bdd804 	addi	r2,r2,-2208
  805fec:	e0fff804 	addi	r3,fp,-32
  805ff0:	1885883a 	add	r2,r3,r2
  805ff4:	00ffffc4 	movi	r3,-1
  805ff8:	10c00015 	stw	r3,0(r2)
  805ffc:	08174fc0 	call	8174fc <_Unwind_SjLj_Resume>
  vector<vector<pair<int, float>>> adjList(128);
  806000:	00bfffb4 	movhi	r2,65534
  806004:	10bdcd04 	addi	r2,r2,-2252
  806008:	1705883a 	add	r2,r2,fp
  80600c:	10c00015 	stw	r3,0(r2)
  806010:	00bffff4 	movhi	r2,65535
  806014:	10bdeb04 	addi	r2,r2,-2132
  806018:	e17ff804 	addi	r5,fp,-32
  80601c:	2885883a 	add	r2,r5,r2
  806020:	1009883a 	mov	r4,r2
  806024:	08062640 	call	806264 <_ZNSt6vectorIS_ISt4pairIifESaIS1_EESaIS3_EED1Ev>
  806028:	00bfffb4 	movhi	r2,65534
  80602c:	10bdcd04 	addi	r2,r2,-2252
  806030:	1705883a 	add	r2,r2,fp
  806034:	11000017 	ldw	r4,0(r2)
  806038:	00bfffb4 	movhi	r2,65534
  80603c:	10bdd804 	addi	r2,r2,-2208
  806040:	e0fff804 	addi	r3,fp,-32
  806044:	1885883a 	add	r2,r3,r2
  806048:	00ffffc4 	movi	r3,-1
  80604c:	10c00015 	stw	r3,0(r2)
  806050:	08174fc0 	call	8174fc <_Unwind_SjLj_Resume>
  806054:	00bfffb4 	movhi	r2,65534
  806058:	10bdd704 	addi	r2,r2,-2212
  80605c:	e0fff804 	addi	r3,fp,-32
  806060:	1885883a 	add	r2,r3,r2
  806064:	1009883a 	mov	r4,r2
  806068:	081732c0 	call	81732c <_Unwind_SjLj_Unregister>
}
  80606c:	00bfffb4 	movhi	r2,65534
  806070:	10bdcd04 	addi	r2,r2,-2252
  806074:	1705883a 	add	r2,r2,fp
  806078:	10800017 	ldw	r2,0(r2)
  80607c:	e6fff804 	addi	sp,fp,-32
  806080:	dfc00917 	ldw	ra,36(sp)
  806084:	df000817 	ldw	fp,32(sp)
  806088:	ddc00717 	ldw	r23,28(sp)
  80608c:	dd800617 	ldw	r22,24(sp)
  806090:	dd400517 	ldw	r21,20(sp)
  806094:	dd000417 	ldw	r20,16(sp)
  806098:	dcc00317 	ldw	r19,12(sp)
  80609c:	dc800217 	ldw	r18,8(sp)
  8060a0:	dc400117 	ldw	r17,4(sp)
  8060a4:	dc000017 	ldw	r16,0(sp)
  8060a8:	dec00a04 	addi	sp,sp,40
  8060ac:	f800283a 	ret

008060b0 <_ZnwjPv>:
#endif // __cpp_sized_deallocation
#endif // __cpp_aligned_new

// Default placement versions of operator new.
_GLIBCXX_NODISCARD inline void* operator new(std::size_t, void* __p) _GLIBCXX_USE_NOEXCEPT
{ return __p; }
  8060b0:	defffd04 	addi	sp,sp,-12
  8060b4:	df000215 	stw	fp,8(sp)
  8060b8:	df000204 	addi	fp,sp,8
  8060bc:	e13fff15 	stw	r4,-4(fp)
  8060c0:	e17ffe15 	stw	r5,-8(fp)
  8060c4:	e0bffe17 	ldw	r2,-8(fp)
  8060c8:	e037883a 	mov	sp,fp
  8060cc:	df000017 	ldw	fp,0(sp)
  8060d0:	dec00104 	addi	sp,sp,4
  8060d4:	f800283a 	ret

008060d8 <_ZNSaISt6vectorISt4pairIifESaIS1_EEEC1Ev>:
#endif

      // _GLIBCXX_RESOLVE_LIB_DEFECTS
      // 3035. std::allocator's constructors should be constexpr
      _GLIBCXX20_CONSTEXPR
      allocator() _GLIBCXX_NOTHROW { }
  8060d8:	defffd04 	addi	sp,sp,-12
  8060dc:	dfc00215 	stw	ra,8(sp)
  8060e0:	df000115 	stw	fp,4(sp)
  8060e4:	df000104 	addi	fp,sp,4
  8060e8:	e13fff15 	stw	r4,-4(fp)
  8060ec:	e13fff17 	ldw	r4,-4(fp)
  8060f0:	08064f80 	call	8064f8 <_ZN9__gnu_cxx13new_allocatorISt6vectorISt4pairIifESaIS3_EEEC1Ev>
  8060f4:	0001883a 	nop
  8060f8:	e037883a 	mov	sp,fp
  8060fc:	dfc00117 	ldw	ra,4(sp)
  806100:	df000017 	ldw	fp,0(sp)
  806104:	dec00204 	addi	sp,sp,8
  806108:	f800283a 	ret

0080610c <_ZNSaISt6vectorISt4pairIifESaIS1_EEED1Ev>:
	allocator(const allocator<_Tp1>&) _GLIBCXX_NOTHROW { }

#if __cpp_constexpr_dynamic_alloc
      constexpr
#endif
      ~allocator() _GLIBCXX_NOTHROW { }
  80610c:	defffd04 	addi	sp,sp,-12
  806110:	dfc00215 	stw	ra,8(sp)
  806114:	df000115 	stw	fp,4(sp)
  806118:	df000104 	addi	fp,sp,4
  80611c:	e13fff15 	stw	r4,-4(fp)
  806120:	e13fff17 	ldw	r4,-4(fp)
  806124:	080651c0 	call	80651c <_ZN9__gnu_cxx13new_allocatorISt6vectorISt4pairIifESaIS3_EEED1Ev>
  806128:	0001883a 	nop
  80612c:	e037883a 	mov	sp,fp
  806130:	dfc00117 	ldw	ra,4(sp)
  806134:	df000017 	ldw	fp,0(sp)
  806138:	dec00204 	addi	sp,sp,8
  80613c:	f800283a 	ret

00806140 <_ZNSt6vectorIS_ISt4pairIifESaIS1_EESaIS3_EEC1EjRKS4_>:
       *
       *  This constructor fills the %vector with @a __n default
       *  constructed elements.
       */
      explicit
      vector(size_type __n, const allocator_type& __a = allocator_type())
  806140:	deffe504 	addi	sp,sp,-108
  806144:	dfc01a15 	stw	ra,104(sp)
  806148:	df001915 	stw	fp,100(sp)
  80614c:	ddc01815 	stw	r23,96(sp)
  806150:	dd801715 	stw	r22,92(sp)
  806154:	dd401615 	stw	r21,88(sp)
  806158:	dd001515 	stw	r20,84(sp)
  80615c:	dcc01415 	stw	r19,80(sp)
  806160:	dc801315 	stw	r18,76(sp)
  806164:	dc401215 	stw	r17,72(sp)
  806168:	dc001115 	stw	r16,68(sp)
  80616c:	df001904 	addi	fp,sp,100
  806170:	e13ff715 	stw	r4,-36(fp)
  806174:	e17ff615 	stw	r5,-40(fp)
  806178:	e1bff515 	stw	r6,-44(fp)
  80617c:	00802074 	movhi	r2,129
  806180:	10a23704 	addi	r2,r2,-30500
  806184:	e0bfee15 	stw	r2,-72(fp)
  806188:	008020b4 	movhi	r2,130
  80618c:	109aaf04 	addi	r2,r2,27324
  806190:	e0bfef15 	stw	r2,-68(fp)
  806194:	e0bff004 	addi	r2,fp,-64
  806198:	17000015 	stw	fp,0(r2)
  80619c:	00c02034 	movhi	r3,128
  8061a0:	18d87f04 	addi	r3,r3,25084
  8061a4:	10c00115 	stw	r3,4(r2)
  8061a8:	16c00215 	stw	sp,8(r2)
  8061ac:	e0bfe804 	addi	r2,fp,-96
  8061b0:	1009883a 	mov	r4,r2
  8061b4:	08173140 	call	817314 <_Unwind_SjLj_Register>
      : _Base(_S_check_init_len(__n, __a), __a)
  8061b8:	e0bff717 	ldw	r2,-36(fp)
  8061bc:	e0bfe715 	stw	r2,-100(fp)
  8061c0:	00bfffc4 	movi	r2,-1
  8061c4:	e0bfe915 	stw	r2,-92(fp)
  8061c8:	e17ff517 	ldw	r5,-44(fp)
  8061cc:	e13ff617 	ldw	r4,-40(fp)
  8061d0:	08065400 	call	806540 <_ZNSt6vectorIS_ISt4pairIifESaIS1_EESaIS3_EE17_S_check_init_lenEjRKS4_>
  8061d4:	e1bff517 	ldw	r6,-44(fp)
  8061d8:	100b883a 	mov	r5,r2
  8061dc:	e13fe717 	ldw	r4,-100(fp)
  8061e0:	08065f80 	call	8065f8 <_ZNSt12_Vector_baseISt6vectorISt4pairIifESaIS2_EESaIS4_EEC1EjRKS5_>
      { _M_default_initialize(__n); }
  8061e4:	00800044 	movi	r2,1
  8061e8:	e0bfe915 	stw	r2,-92(fp)
  8061ec:	e17ff617 	ldw	r5,-40(fp)
  8061f0:	e13ff717 	ldw	r4,-36(fp)
  8061f4:	08067b40 	call	8067b4 <_ZNSt6vectorIS_ISt4pairIifESaIS1_EESaIS3_EE21_M_default_initializeEj>
  8061f8:	00000a06 	br	806224 <_ZNSt6vectorIS_ISt4pairIifESaIS1_EESaIS3_EEC1EjRKS4_+0xe4>
      : _Base(_S_check_init_len(__n, __a), __a)
  8061fc:	e0bfea17 	ldw	r2,-88(fp)
  806200:	e0bfe715 	stw	r2,-100(fp)
  806204:	e0bff717 	ldw	r2,-36(fp)
  806208:	1009883a 	mov	r4,r2
  80620c:	08067000 	call	806700 <_ZNSt12_Vector_baseISt6vectorISt4pairIifESaIS2_EESaIS4_EED1Ev>
  806210:	e0ffe717 	ldw	r3,-100(fp)
  806214:	00bfffc4 	movi	r2,-1
  806218:	e0bfe915 	stw	r2,-92(fp)
  80621c:	1809883a 	mov	r4,r3
  806220:	08174fc0 	call	8174fc <_Unwind_SjLj_Resume>
  806224:	e0bfe804 	addi	r2,fp,-96
  806228:	1009883a 	mov	r4,r2
  80622c:	081732c0 	call	81732c <_Unwind_SjLj_Unregister>
      { _M_default_initialize(__n); }
  806230:	e6fff804 	addi	sp,fp,-32
  806234:	dfc00917 	ldw	ra,36(sp)
  806238:	df000817 	ldw	fp,32(sp)
  80623c:	ddc00717 	ldw	r23,28(sp)
  806240:	dd800617 	ldw	r22,24(sp)
  806244:	dd400517 	ldw	r21,20(sp)
  806248:	dd000417 	ldw	r20,16(sp)
  80624c:	dcc00317 	ldw	r19,12(sp)
  806250:	dc800217 	ldw	r18,8(sp)
  806254:	dc400117 	ldw	r17,4(sp)
  806258:	dc000017 	ldw	r16,0(sp)
  80625c:	dec00a04 	addi	sp,sp,40
  806260:	f800283a 	ret

00806264 <_ZNSt6vectorIS_ISt4pairIifESaIS1_EESaIS3_EED1Ev>:
       *  The dtor only erases the elements, and note that if the
       *  elements themselves are pointers, the pointed-to memory is
       *  not touched in any way.  Managing the pointer is the user's
       *  responsibility.
       */
      ~vector() _GLIBCXX_NOEXCEPT
  806264:	deffee04 	addi	sp,sp,-72
  806268:	dfc01115 	stw	ra,68(sp)
  80626c:	df001015 	stw	fp,64(sp)
  806270:	dc400f15 	stw	r17,60(sp)
  806274:	dc000e15 	stw	r16,56(sp)
  806278:	df001004 	addi	fp,sp,64
  80627c:	e13ffd15 	stw	r4,-12(fp)
  806280:	00802074 	movhi	r2,129
  806284:	10a23704 	addi	r2,r2,-30500
  806288:	e0bff615 	stw	r2,-40(fp)
  80628c:	008020b4 	movhi	r2,130
  806290:	109ab084 	addi	r2,r2,27330
  806294:	e0bff715 	stw	r2,-36(fp)
  806298:	e0bff004 	addi	r2,fp,-64
  80629c:	1009883a 	mov	r4,r2
  8062a0:	08173140 	call	817314 <_Unwind_SjLj_Register>
      {
	std::_Destroy(this->_M_impl._M_start, this->_M_impl._M_finish,
  8062a4:	e0bffd17 	ldw	r2,-12(fp)
  8062a8:	14000017 	ldw	r16,0(r2)
  8062ac:	e0bffd17 	ldw	r2,-12(fp)
  8062b0:	14400117 	ldw	r17,4(r2)
		      _M_get_Tp_allocator());
  8062b4:	e0bffd17 	ldw	r2,-12(fp)
  8062b8:	1009883a 	mov	r4,r2
  8062bc:	080681c0 	call	80681c <_ZNSt12_Vector_baseISt6vectorISt4pairIifESaIS2_EESaIS4_EE19_M_get_Tp_allocatorEv>
	std::_Destroy(this->_M_impl._M_start, this->_M_impl._M_finish,
  8062c0:	e03ff115 	stw	zero,-60(fp)
  8062c4:	100d883a 	mov	r6,r2
  8062c8:	880b883a 	mov	r5,r17
  8062cc:	8009883a 	mov	r4,r16
  8062d0:	08068400 	call	806840 <_ZSt8_DestroyIPSt6vectorISt4pairIifESaIS2_EES4_EvT_S6_RSaIT0_E>
	_GLIBCXX_ASAN_ANNOTATE_BEFORE_DEALLOC;
      }
  8062d4:	e0bffd17 	ldw	r2,-12(fp)
  8062d8:	1009883a 	mov	r4,r2
  8062dc:	08067000 	call	806700 <_ZNSt12_Vector_baseISt6vectorISt4pairIifESaIS2_EESaIS4_EED1Ev>
  8062e0:	0001883a 	nop
  8062e4:	e0bff004 	addi	r2,fp,-64
  8062e8:	1009883a 	mov	r4,r2
  8062ec:	081732c0 	call	81732c <_Unwind_SjLj_Unregister>
  8062f0:	e6fffe04 	addi	sp,fp,-8
  8062f4:	dfc00317 	ldw	ra,12(sp)
  8062f8:	df000217 	ldw	fp,8(sp)
  8062fc:	dc400117 	ldw	r17,4(sp)
  806300:	dc000017 	ldw	r16,0(sp)
  806304:	dec00404 	addi	sp,sp,16
  806308:	f800283a 	ret

0080630c <_ZNSt6vectorIS_ISt4pairIifESaIS1_EESaIS3_EEixEj>:
       *  Note that data access with this operator is unchecked and
       *  out_of_range lookups are not defined. (For checked lookups
       *  see at().)
       */
      reference
      operator[](size_type __n) _GLIBCXX_NOEXCEPT
  80630c:	defffd04 	addi	sp,sp,-12
  806310:	df000215 	stw	fp,8(sp)
  806314:	df000204 	addi	fp,sp,8
  806318:	e13fff15 	stw	r4,-4(fp)
  80631c:	e17ffe15 	stw	r5,-8(fp)
      {
	__glibcxx_requires_subscript(__n);
	return *(this->_M_impl._M_start + __n);
  806320:	e0bfff17 	ldw	r2,-4(fp)
  806324:	11000017 	ldw	r4,0(r2)
  806328:	e0fffe17 	ldw	r3,-8(fp)
  80632c:	1805883a 	mov	r2,r3
  806330:	1085883a 	add	r2,r2,r2
  806334:	10c5883a 	add	r2,r2,r3
  806338:	100490ba 	slli	r2,r2,2
  80633c:	2085883a 	add	r2,r4,r2
      }
  806340:	e037883a 	mov	sp,fp
  806344:	df000017 	ldw	fp,0(sp)
  806348:	dec00104 	addi	sp,sp,4
  80634c:	f800283a 	ret

00806350 <_ZNSt6vectorISt4pairIifESaIS1_EEaSESt16initializer_listIS1_E>:
      operator=(initializer_list<value_type> __l)
  806350:	defff804 	addi	sp,sp,-32
  806354:	dfc00715 	stw	ra,28(sp)
  806358:	df000615 	stw	fp,24(sp)
  80635c:	dc400515 	stw	r17,20(sp)
  806360:	dc000415 	stw	r16,16(sp)
  806364:	df000604 	addi	fp,sp,24
  806368:	e13ffc15 	stw	r4,-16(fp)
  80636c:	e17ffa15 	stw	r5,-24(fp)
  806370:	e1bffb15 	stw	r6,-20(fp)
	this->_M_assign_aux(__l.begin(), __l.end(),
  806374:	e0bffa04 	addi	r2,fp,-24
  806378:	1009883a 	mov	r4,r2
  80637c:	08068800 	call	806880 <_ZNKSt16initializer_listISt4pairIifEE5beginEv>
  806380:	1021883a 	mov	r16,r2
  806384:	e0bffa04 	addi	r2,fp,-24
  806388:	1009883a 	mov	r4,r2
  80638c:	08068a80 	call	8068a8 <_ZNKSt16initializer_listISt4pairIifEE3endEv>
  806390:	880f883a 	mov	r7,r17
  806394:	100d883a 	mov	r6,r2
  806398:	800b883a 	mov	r5,r16
  80639c:	e13ffc17 	ldw	r4,-16(fp)
  8063a0:	08068f40 	call	8068f4 <_ZNSt6vectorISt4pairIifESaIS1_EE13_M_assign_auxIPKS1_EEvT_S7_St20forward_iterator_tag>
	return *this;
  8063a4:	e0bffc17 	ldw	r2,-16(fp)
      }
  8063a8:	e6fffe04 	addi	sp,fp,-8
  8063ac:	dfc00317 	ldw	ra,12(sp)
  8063b0:	df000217 	ldw	fp,8(sp)
  8063b4:	dc400117 	ldw	r17,4(sp)
  8063b8:	dc000017 	ldw	r16,0(sp)
  8063bc:	dec00404 	addi	sp,sp,16
  8063c0:	f800283a 	ret

008063c4 <_ZNSt6vectorISt4pairIifESaIS1_EE5beginEv>:
      begin() _GLIBCXX_NOEXCEPT
  8063c4:	defffc04 	addi	sp,sp,-16
  8063c8:	dfc00315 	stw	ra,12(sp)
  8063cc:	df000215 	stw	fp,8(sp)
  8063d0:	df000204 	addi	fp,sp,8
  8063d4:	e13ffe15 	stw	r4,-8(fp)
      { return iterator(this->_M_impl._M_start); }
  8063d8:	e0fffe17 	ldw	r3,-8(fp)
  8063dc:	e0bfff04 	addi	r2,fp,-4
  8063e0:	180b883a 	mov	r5,r3
  8063e4:	1009883a 	mov	r4,r2
  8063e8:	0806b000 	call	806b00 <_ZN9__gnu_cxx17__normal_iteratorIPSt4pairIifESt6vectorIS2_SaIS2_EEEC1ERKS3_>
  8063ec:	e0bfff17 	ldw	r2,-4(fp)
  8063f0:	e037883a 	mov	sp,fp
  8063f4:	dfc00117 	ldw	ra,4(sp)
  8063f8:	df000017 	ldw	fp,0(sp)
  8063fc:	dec00204 	addi	sp,sp,8
  806400:	f800283a 	ret

00806404 <_ZNSt6vectorISt4pairIifESaIS1_EE3endEv>:
      end() _GLIBCXX_NOEXCEPT
  806404:	defffc04 	addi	sp,sp,-16
  806408:	dfc00315 	stw	ra,12(sp)
  80640c:	df000215 	stw	fp,8(sp)
  806410:	df000204 	addi	fp,sp,8
  806414:	e13ffe15 	stw	r4,-8(fp)
      { return iterator(this->_M_impl._M_finish); }
  806418:	e0bffe17 	ldw	r2,-8(fp)
  80641c:	10c00104 	addi	r3,r2,4
  806420:	e0bfff04 	addi	r2,fp,-4
  806424:	180b883a 	mov	r5,r3
  806428:	1009883a 	mov	r4,r2
  80642c:	0806b000 	call	806b00 <_ZN9__gnu_cxx17__normal_iteratorIPSt4pairIifESt6vectorIS2_SaIS2_EEEC1ERKS3_>
  806430:	e0bfff17 	ldw	r2,-4(fp)
  806434:	e037883a 	mov	sp,fp
  806438:	dfc00117 	ldw	ra,4(sp)
  80643c:	df000017 	ldw	fp,0(sp)
  806440:	dec00204 	addi	sp,sp,8
  806444:	f800283a 	ret

00806448 <_ZN9__gnu_cxxneIPSt4pairIifESt6vectorIS2_SaIS2_EEEEbRKNS_17__normal_iteratorIT_T0_EESC_>:
    { return __lhs.base() != __rhs.base(); }

  template<typename _Iterator, typename _Container>
    _GLIBCXX20_CONSTEXPR
    inline bool
    operator!=(const __normal_iterator<_Iterator, _Container>& __lhs,
  806448:	defffb04 	addi	sp,sp,-20
  80644c:	dfc00415 	stw	ra,16(sp)
  806450:	df000315 	stw	fp,12(sp)
  806454:	dc000215 	stw	r16,8(sp)
  806458:	df000304 	addi	fp,sp,12
  80645c:	e13ffe15 	stw	r4,-8(fp)
  806460:	e17ffd15 	stw	r5,-12(fp)
	       const __normal_iterator<_Iterator, _Container>& __rhs)
    _GLIBCXX_NOEXCEPT
    { return __lhs.base() != __rhs.base(); }
  806464:	e13ffe17 	ldw	r4,-8(fp)
  806468:	0806b380 	call	806b38 <_ZNK9__gnu_cxx17__normal_iteratorIPSt4pairIifESt6vectorIS2_SaIS2_EEE4baseEv>
  80646c:	14000017 	ldw	r16,0(r2)
  806470:	e13ffd17 	ldw	r4,-12(fp)
  806474:	0806b380 	call	806b38 <_ZNK9__gnu_cxx17__normal_iteratorIPSt4pairIifESt6vectorIS2_SaIS2_EEE4baseEv>
  806478:	10800017 	ldw	r2,0(r2)
  80647c:	8084c03a 	cmpne	r2,r16,r2
  806480:	e6ffff04 	addi	sp,fp,-4
  806484:	dfc00217 	ldw	ra,8(sp)
  806488:	df000117 	ldw	fp,4(sp)
  80648c:	dc000017 	ldw	r16,0(sp)
  806490:	dec00304 	addi	sp,sp,12
  806494:	f800283a 	ret

00806498 <_ZN9__gnu_cxx17__normal_iteratorIPSt4pairIifESt6vectorIS2_SaIS2_EEEppEv>:
      operator++() _GLIBCXX_NOEXCEPT
  806498:	defffe04 	addi	sp,sp,-8
  80649c:	df000115 	stw	fp,4(sp)
  8064a0:	df000104 	addi	fp,sp,4
  8064a4:	e13fff15 	stw	r4,-4(fp)
	++_M_current;
  8064a8:	e0bfff17 	ldw	r2,-4(fp)
  8064ac:	10800017 	ldw	r2,0(r2)
  8064b0:	10c00204 	addi	r3,r2,8
  8064b4:	e0bfff17 	ldw	r2,-4(fp)
  8064b8:	10c00015 	stw	r3,0(r2)
	return *this;
  8064bc:	e0bfff17 	ldw	r2,-4(fp)
      }
  8064c0:	e037883a 	mov	sp,fp
  8064c4:	df000017 	ldw	fp,0(sp)
  8064c8:	dec00104 	addi	sp,sp,4
  8064cc:	f800283a 	ret

008064d0 <_ZNK9__gnu_cxx17__normal_iteratorIPSt4pairIifESt6vectorIS2_SaIS2_EEEdeEv>:
      operator*() const _GLIBCXX_NOEXCEPT
  8064d0:	defffe04 	addi	sp,sp,-8
  8064d4:	df000115 	stw	fp,4(sp)
  8064d8:	df000104 	addi	fp,sp,4
  8064dc:	e13fff15 	stw	r4,-4(fp)
      { return *_M_current; }
  8064e0:	e0bfff17 	ldw	r2,-4(fp)
  8064e4:	10800017 	ldw	r2,0(r2)
  8064e8:	e037883a 	mov	sp,fp
  8064ec:	df000017 	ldw	fp,0(sp)
  8064f0:	dec00104 	addi	sp,sp,4
  8064f4:	f800283a 	ret

008064f8 <_ZN9__gnu_cxx13new_allocatorISt6vectorISt4pairIifESaIS3_EEEC1Ev>:
      // 2103. propagate_on_container_move_assignment
      typedef std::true_type propagate_on_container_move_assignment;
#endif

      _GLIBCXX20_CONSTEXPR
      new_allocator() _GLIBCXX_USE_NOEXCEPT { }
  8064f8:	defffe04 	addi	sp,sp,-8
  8064fc:	df000115 	stw	fp,4(sp)
  806500:	df000104 	addi	fp,sp,4
  806504:	e13fff15 	stw	r4,-4(fp)
  806508:	0001883a 	nop
  80650c:	e037883a 	mov	sp,fp
  806510:	df000017 	ldw	fp,0(sp)
  806514:	dec00104 	addi	sp,sp,4
  806518:	f800283a 	ret

0080651c <_ZN9__gnu_cxx13new_allocatorISt6vectorISt4pairIifESaIS3_EEED1Ev>:
      template<typename _Tp1>
	_GLIBCXX20_CONSTEXPR
	new_allocator(const new_allocator<_Tp1>&) _GLIBCXX_USE_NOEXCEPT { }

#if __cplusplus <= 201703L
      ~new_allocator() _GLIBCXX_USE_NOEXCEPT { }
  80651c:	defffe04 	addi	sp,sp,-8
  806520:	df000115 	stw	fp,4(sp)
  806524:	df000104 	addi	fp,sp,4
  806528:	e13fff15 	stw	r4,-4(fp)
  80652c:	0001883a 	nop
  806530:	e037883a 	mov	sp,fp
  806534:	df000017 	ldw	fp,0(sp)
  806538:	dec00104 	addi	sp,sp,4
  80653c:	f800283a 	ret

00806540 <_ZNSt6vectorIS_ISt4pairIifESaIS1_EESaIS3_EE17_S_check_init_lenEjRKS4_>:
	return (__len < size() || __len > max_size()) ? max_size() : __len;
      }

      // Called by constructors to check initial size.
      static size_type
      _S_check_init_len(size_type __n, const allocator_type& __a)
  806540:	defffa04 	addi	sp,sp,-24
  806544:	dfc00515 	stw	ra,20(sp)
  806548:	df000415 	stw	fp,16(sp)
  80654c:	dc000315 	stw	r16,12(sp)
  806550:	df000404 	addi	fp,sp,16
  806554:	e13ffd15 	stw	r4,-12(fp)
  806558:	e17ffc15 	stw	r5,-16(fp)
      {
	if (__n > _S_max_size(_Tp_alloc_type(__a)))
  80655c:	e0bffec4 	addi	r2,fp,-5
  806560:	e17ffc17 	ldw	r5,-16(fp)
  806564:	1009883a 	mov	r4,r2
  806568:	0806bb40 	call	806bb4 <_ZNSaISt6vectorISt4pairIifESaIS1_EEEC1ERKS4_>
  80656c:	e0bffec4 	addi	r2,fp,-5
  806570:	1009883a 	mov	r4,r2
  806574:	0806b5c0 	call	806b5c <_ZNSt6vectorIS_ISt4pairIifESaIS1_EESaIS3_EE11_S_max_sizeERKS4_>
  806578:	1007883a 	mov	r3,r2
  80657c:	e0bffd17 	ldw	r2,-12(fp)
  806580:	1885803a 	cmpltu	r2,r3,r2
  806584:	1021883a 	mov	r16,r2
  806588:	e0bffec4 	addi	r2,fp,-5
  80658c:	1009883a 	mov	r4,r2
  806590:	080610c0 	call	80610c <_ZNSaISt6vectorISt4pairIifESaIS1_EEED1Ev>
  806594:	80803fcc 	andi	r2,r16,255
  806598:	10000326 	beq	r2,zero,8065a8 <_ZNSt6vectorIS_ISt4pairIifESaIS1_EESaIS3_EE17_S_check_init_lenEjRKS4_+0x68>
	  __throw_length_error(
  80659c:	010020b4 	movhi	r4,130
  8065a0:	211bb504 	addi	r4,r4,28372
  8065a4:	08097380 	call	809738 <_ZSt20__throw_length_errorPKc>
	      __N("cannot create std::vector larger than max_size()"));
	return __n;
  8065a8:	e0bffd17 	ldw	r2,-12(fp)
      }
  8065ac:	e6ffff04 	addi	sp,fp,-4
  8065b0:	dfc00217 	ldw	ra,8(sp)
  8065b4:	df000117 	ldw	fp,4(sp)
  8065b8:	dc000017 	ldw	r16,0(sp)
  8065bc:	dec00304 	addi	sp,sp,12
  8065c0:	f800283a 	ret

008065c4 <_ZNSt12_Vector_baseISt6vectorISt4pairIifESaIS2_EESaIS4_EE12_Vector_implD1Ev>:
      struct _Vector_impl
  8065c4:	defffd04 	addi	sp,sp,-12
  8065c8:	dfc00215 	stw	ra,8(sp)
  8065cc:	df000115 	stw	fp,4(sp)
  8065d0:	df000104 	addi	fp,sp,4
  8065d4:	e13fff15 	stw	r4,-4(fp)
  8065d8:	e13fff17 	ldw	r4,-4(fp)
  8065dc:	080610c0 	call	80610c <_ZNSaISt6vectorISt4pairIifESaIS1_EEED1Ev>
  8065e0:	0001883a 	nop
  8065e4:	e037883a 	mov	sp,fp
  8065e8:	dfc00117 	ldw	ra,4(sp)
  8065ec:	df000017 	ldw	fp,0(sp)
  8065f0:	dec00204 	addi	sp,sp,8
  8065f4:	f800283a 	ret

008065f8 <_ZNSt12_Vector_baseISt6vectorISt4pairIifESaIS2_EESaIS4_EEC1EjRKS5_>:
      _Vector_base(size_t __n, const allocator_type& __a)
  8065f8:	deffe504 	addi	sp,sp,-108
  8065fc:	dfc01a15 	stw	ra,104(sp)
  806600:	df001915 	stw	fp,100(sp)
  806604:	ddc01815 	stw	r23,96(sp)
  806608:	dd801715 	stw	r22,92(sp)
  80660c:	dd401615 	stw	r21,88(sp)
  806610:	dd001515 	stw	r20,84(sp)
  806614:	dcc01415 	stw	r19,80(sp)
  806618:	dc801315 	stw	r18,76(sp)
  80661c:	dc401215 	stw	r17,72(sp)
  806620:	dc001115 	stw	r16,68(sp)
  806624:	df001904 	addi	fp,sp,100
  806628:	e13ff715 	stw	r4,-36(fp)
  80662c:	e17ff615 	stw	r5,-40(fp)
  806630:	e1bff515 	stw	r6,-44(fp)
  806634:	00802074 	movhi	r2,129
  806638:	10a23704 	addi	r2,r2,-30500
  80663c:	e0bfee15 	stw	r2,-72(fp)
  806640:	008020b4 	movhi	r2,130
  806644:	109ab184 	addi	r2,r2,27334
  806648:	e0bfef15 	stw	r2,-68(fp)
  80664c:	e0bff004 	addi	r2,fp,-64
  806650:	17000015 	stw	fp,0(r2)
  806654:	00c02034 	movhi	r3,128
  806658:	18d9a604 	addi	r3,r3,26264
  80665c:	10c00115 	stw	r3,4(r2)
  806660:	16c00215 	stw	sp,8(r2)
  806664:	e0bfe804 	addi	r2,fp,-96
  806668:	1009883a 	mov	r4,r2
  80666c:	08173140 	call	817314 <_Unwind_SjLj_Register>
      : _M_impl(__a)
  806670:	e0bff717 	ldw	r2,-36(fp)
  806674:	e17ff517 	ldw	r5,-44(fp)
  806678:	1009883a 	mov	r4,r2
  80667c:	0806bf00 	call	806bf0 <_ZNSt12_Vector_baseISt6vectorISt4pairIifESaIS2_EESaIS4_EE12_Vector_implC1ERKS5_>
      { _M_create_storage(__n); }
  806680:	00800044 	movi	r2,1
  806684:	e0bfe915 	stw	r2,-92(fp)
  806688:	e17ff617 	ldw	r5,-40(fp)
  80668c:	e13ff717 	ldw	r4,-36(fp)
  806690:	0806c380 	call	806c38 <_ZNSt12_Vector_baseISt6vectorISt4pairIifESaIS2_EESaIS4_EE17_M_create_storageEj>
  806694:	00000a06 	br	8066c0 <_ZNSt12_Vector_baseISt6vectorISt4pairIifESaIS2_EESaIS4_EEC1EjRKS5_+0xc8>
      : _M_impl(__a)
  806698:	e0bfea17 	ldw	r2,-88(fp)
  80669c:	e0bfe715 	stw	r2,-100(fp)
  8066a0:	e0bff717 	ldw	r2,-36(fp)
  8066a4:	1009883a 	mov	r4,r2
  8066a8:	08065c40 	call	8065c4 <_ZNSt12_Vector_baseISt6vectorISt4pairIifESaIS2_EESaIS4_EE12_Vector_implD1Ev>
  8066ac:	e0ffe717 	ldw	r3,-100(fp)
  8066b0:	00bfffc4 	movi	r2,-1
  8066b4:	e0bfe915 	stw	r2,-92(fp)
  8066b8:	1809883a 	mov	r4,r3
  8066bc:	08174fc0 	call	8174fc <_Unwind_SjLj_Resume>
  8066c0:	e0bfe804 	addi	r2,fp,-96
  8066c4:	1009883a 	mov	r4,r2
  8066c8:	081732c0 	call	81732c <_Unwind_SjLj_Unregister>
      { _M_create_storage(__n); }
  8066cc:	e6fff804 	addi	sp,fp,-32
  8066d0:	dfc00917 	ldw	ra,36(sp)
  8066d4:	df000817 	ldw	fp,32(sp)
  8066d8:	ddc00717 	ldw	r23,28(sp)
  8066dc:	dd800617 	ldw	r22,24(sp)
  8066e0:	dd400517 	ldw	r21,20(sp)
  8066e4:	dd000417 	ldw	r20,16(sp)
  8066e8:	dcc00317 	ldw	r19,12(sp)
  8066ec:	dc800217 	ldw	r18,8(sp)
  8066f0:	dc400117 	ldw	r17,4(sp)
  8066f4:	dc000017 	ldw	r16,0(sp)
  8066f8:	dec00a04 	addi	sp,sp,40
  8066fc:	f800283a 	ret

00806700 <_ZNSt12_Vector_baseISt6vectorISt4pairIifESaIS2_EESaIS4_EED1Ev>:
      ~_Vector_base() _GLIBCXX_NOEXCEPT
  806700:	deffef04 	addi	sp,sp,-68
  806704:	dfc01015 	stw	ra,64(sp)
  806708:	df000f15 	stw	fp,60(sp)
  80670c:	dc000e15 	stw	r16,56(sp)
  806710:	df000f04 	addi	fp,sp,60
  806714:	e13ffe15 	stw	r4,-8(fp)
  806718:	00802074 	movhi	r2,129
  80671c:	10a23704 	addi	r2,r2,-30500
  806720:	e0bff715 	stw	r2,-36(fp)
  806724:	008020b4 	movhi	r2,130
  806728:	109ab304 	addi	r2,r2,27340
  80672c:	e0bff815 	stw	r2,-32(fp)
  806730:	e0bff104 	addi	r2,fp,-60
  806734:	1009883a 	mov	r4,r2
  806738:	08173140 	call	817314 <_Unwind_SjLj_Register>
	_M_deallocate(_M_impl._M_start,
  80673c:	e0bffe17 	ldw	r2,-8(fp)
  806740:	14000017 	ldw	r16,0(r2)
		      _M_impl._M_end_of_storage - _M_impl._M_start);
  806744:	e0bffe17 	ldw	r2,-8(fp)
  806748:	10c00217 	ldw	r3,8(r2)
  80674c:	e0bffe17 	ldw	r2,-8(fp)
  806750:	10800017 	ldw	r2,0(r2)
  806754:	1885c83a 	sub	r2,r3,r2
  806758:	1005d0ba 	srai	r2,r2,2
  80675c:	016aaaf4 	movhi	r5,43691
  806760:	296aaac4 	addi	r5,r5,-21845
  806764:	1009883a 	mov	r4,r2
  806768:	08154440 	call	815444 <__mulsi3>
	_M_deallocate(_M_impl._M_start,
  80676c:	e03ff215 	stw	zero,-56(fp)
  806770:	100d883a 	mov	r6,r2
  806774:	800b883a 	mov	r5,r16
  806778:	e13ffe17 	ldw	r4,-8(fp)
  80677c:	0806cb80 	call	806cb8 <_ZNSt12_Vector_baseISt6vectorISt4pairIifESaIS2_EESaIS4_EE13_M_deallocateEPS4_j>
      }
  806780:	e0bffe17 	ldw	r2,-8(fp)
  806784:	1009883a 	mov	r4,r2
  806788:	08065c40 	call	8065c4 <_ZNSt12_Vector_baseISt6vectorISt4pairIifESaIS2_EESaIS4_EE12_Vector_implD1Ev>
  80678c:	0001883a 	nop
  806790:	e0bff104 	addi	r2,fp,-60
  806794:	1009883a 	mov	r4,r2
  806798:	081732c0 	call	81732c <_Unwind_SjLj_Unregister>
  80679c:	e6ffff04 	addi	sp,fp,-4
  8067a0:	dfc00217 	ldw	ra,8(sp)
  8067a4:	df000117 	ldw	fp,4(sp)
  8067a8:	dc000017 	ldw	r16,0(sp)
  8067ac:	dec00304 	addi	sp,sp,12
  8067b0:	f800283a 	ret

008067b4 <_ZNSt6vectorIS_ISt4pairIifESaIS1_EESaIS3_EE21_M_default_initializeEj>:
      _M_default_initialize(size_type __n)
  8067b4:	defffb04 	addi	sp,sp,-20
  8067b8:	dfc00415 	stw	ra,16(sp)
  8067bc:	df000315 	stw	fp,12(sp)
  8067c0:	dc000215 	stw	r16,8(sp)
  8067c4:	df000304 	addi	fp,sp,12
  8067c8:	e13ffe15 	stw	r4,-8(fp)
  8067cc:	e17ffd15 	stw	r5,-12(fp)
	  std::__uninitialized_default_n_a(this->_M_impl._M_start, __n,
  8067d0:	e0bffe17 	ldw	r2,-8(fp)
  8067d4:	14000017 	ldw	r16,0(r2)
					   _M_get_Tp_allocator());
  8067d8:	e0bffe17 	ldw	r2,-8(fp)
  8067dc:	1009883a 	mov	r4,r2
  8067e0:	080681c0 	call	80681c <_ZNSt12_Vector_baseISt6vectorISt4pairIifESaIS2_EESaIS4_EE19_M_get_Tp_allocatorEv>
	  std::__uninitialized_default_n_a(this->_M_impl._M_start, __n,
  8067e4:	100d883a 	mov	r6,r2
  8067e8:	e17ffd17 	ldw	r5,-12(fp)
  8067ec:	8009883a 	mov	r4,r16
  8067f0:	0806d080 	call	806d08 <_ZSt27__uninitialized_default_n_aIPSt6vectorISt4pairIifESaIS2_EEjS4_ET_S6_T0_RSaIT1_E>
  8067f4:	1007883a 	mov	r3,r2
	this->_M_impl._M_finish =
  8067f8:	e0bffe17 	ldw	r2,-8(fp)
  8067fc:	10c00115 	stw	r3,4(r2)
      }
  806800:	0001883a 	nop
  806804:	e6ffff04 	addi	sp,fp,-4
  806808:	dfc00217 	ldw	ra,8(sp)
  80680c:	df000117 	ldw	fp,4(sp)
  806810:	dc000017 	ldw	r16,0(sp)
  806814:	dec00304 	addi	sp,sp,12
  806818:	f800283a 	ret

0080681c <_ZNSt12_Vector_baseISt6vectorISt4pairIifESaIS2_EESaIS4_EE19_M_get_Tp_allocatorEv>:
      _M_get_Tp_allocator() _GLIBCXX_NOEXCEPT
  80681c:	defffe04 	addi	sp,sp,-8
  806820:	df000115 	stw	fp,4(sp)
  806824:	df000104 	addi	fp,sp,4
  806828:	e13fff15 	stw	r4,-4(fp)
      { return this->_M_impl; }
  80682c:	e0bfff17 	ldw	r2,-4(fp)
  806830:	e037883a 	mov	sp,fp
  806834:	df000017 	ldw	fp,0(sp)
  806838:	dec00104 	addi	sp,sp,4
  80683c:	f800283a 	ret

00806840 <_ZSt8_DestroyIPSt6vectorISt4pairIifESaIS2_EES4_EvT_S6_RSaIT0_E>:
#endif
    }

  template<typename _ForwardIterator, typename _Tp>
    inline void
    _Destroy(_ForwardIterator __first, _ForwardIterator __last,
  806840:	defffb04 	addi	sp,sp,-20
  806844:	dfc00415 	stw	ra,16(sp)
  806848:	df000315 	stw	fp,12(sp)
  80684c:	df000304 	addi	fp,sp,12
  806850:	e13fff15 	stw	r4,-4(fp)
  806854:	e17ffe15 	stw	r5,-8(fp)
  806858:	e1bffd15 	stw	r6,-12(fp)
	     allocator<_Tp>&)
    {
      _Destroy(__first, __last);
  80685c:	e17ffe17 	ldw	r5,-8(fp)
  806860:	e13fff17 	ldw	r4,-4(fp)
  806864:	0806d440 	call	806d44 <_ZSt8_DestroyIPSt6vectorISt4pairIifESaIS2_EEEvT_S6_>
    }
  806868:	0001883a 	nop
  80686c:	e037883a 	mov	sp,fp
  806870:	dfc00117 	ldw	ra,4(sp)
  806874:	df000017 	ldw	fp,0(sp)
  806878:	dec00204 	addi	sp,sp,8
  80687c:	f800283a 	ret

00806880 <_ZNKSt16initializer_listISt4pairIifEE5beginEv>:
      constexpr size_type
      size() const noexcept { return _M_len; }

      // First element.
      constexpr const_iterator
      begin() const noexcept { return _M_array; }
  806880:	defffe04 	addi	sp,sp,-8
  806884:	df000115 	stw	fp,4(sp)
  806888:	df000104 	addi	fp,sp,4
  80688c:	e13fff15 	stw	r4,-4(fp)
  806890:	e0bfff17 	ldw	r2,-4(fp)
  806894:	10800017 	ldw	r2,0(r2)
  806898:	e037883a 	mov	sp,fp
  80689c:	df000017 	ldw	fp,0(sp)
  8068a0:	dec00104 	addi	sp,sp,4
  8068a4:	f800283a 	ret

008068a8 <_ZNKSt16initializer_listISt4pairIifEE3endEv>:

      // One past the last element.
      constexpr const_iterator
      end() const noexcept { return begin() + size(); }
  8068a8:	defffc04 	addi	sp,sp,-16
  8068ac:	dfc00315 	stw	ra,12(sp)
  8068b0:	df000215 	stw	fp,8(sp)
  8068b4:	dc000115 	stw	r16,4(sp)
  8068b8:	df000204 	addi	fp,sp,8
  8068bc:	e13ffe15 	stw	r4,-8(fp)
  8068c0:	e13ffe17 	ldw	r4,-8(fp)
  8068c4:	08068800 	call	806880 <_ZNKSt16initializer_listISt4pairIifEE5beginEv>
  8068c8:	1021883a 	mov	r16,r2
  8068cc:	e13ffe17 	ldw	r4,-8(fp)
  8068d0:	0806d800 	call	806d80 <_ZNKSt16initializer_listISt4pairIifEE4sizeEv>
  8068d4:	100490fa 	slli	r2,r2,3
  8068d8:	8085883a 	add	r2,r16,r2
  8068dc:	e6ffff04 	addi	sp,fp,-4
  8068e0:	dfc00217 	ldw	ra,8(sp)
  8068e4:	df000117 	ldw	fp,4(sp)
  8068e8:	dc000017 	ldw	r16,0(sp)
  8068ec:	dec00304 	addi	sp,sp,12
  8068f0:	f800283a 	ret

008068f4 <_ZNSt6vectorISt4pairIifESaIS1_EE13_M_assign_auxIPKS1_EEvT_S7_St20forward_iterator_tag>:
      }

  template<typename _Tp, typename _Alloc>
    template<typename _ForwardIterator>
      void
      vector<_Tp, _Alloc>::
  8068f4:	defff404 	addi	sp,sp,-48
  8068f8:	dfc00b15 	stw	ra,44(sp)
  8068fc:	df000a15 	stw	fp,40(sp)
  806900:	dc400915 	stw	r17,36(sp)
  806904:	dc000815 	stw	r16,32(sp)
  806908:	df000a04 	addi	fp,sp,40
  80690c:	e13ff915 	stw	r4,-28(fp)
  806910:	e17ff815 	stw	r5,-32(fp)
  806914:	e1bff715 	stw	r6,-36(fp)
  806918:	e1fff6c5 	stb	r7,-37(fp)
      _M_assign_aux(_ForwardIterator __first, _ForwardIterator __last,
		    std::forward_iterator_tag)
      {
	const size_type __len = std::distance(__first, __last);
  80691c:	e17ff717 	ldw	r5,-36(fp)
  806920:	e13ff817 	ldw	r4,-32(fp)
  806924:	0806da80 	call	806da8 <_ZSt8distanceIPKSt4pairIifEENSt15iterator_traitsIT_E15difference_typeES5_S5_>
  806928:	e0bffd15 	stw	r2,-12(fp)

	if (__len > capacity())
  80692c:	e13ff917 	ldw	r4,-28(fp)
  806930:	0806e040 	call	806e04 <_ZNKSt6vectorISt4pairIifESaIS1_EE8capacityEv>
  806934:	1007883a 	mov	r3,r2
  806938:	e0bffd17 	ldw	r2,-12(fp)
  80693c:	1885803a 	cmpltu	r2,r3,r2
  806940:	10803fcc 	andi	r2,r2,255
  806944:	10003126 	beq	r2,zero,806a0c <_ZNSt6vectorISt4pairIifESaIS1_EE13_M_assign_auxIPKS1_EEvT_S7_St20forward_iterator_tag+0x118>
	  {
	    _S_check_init_len(__len, _M_get_Tp_allocator());
  806948:	e0bff917 	ldw	r2,-28(fp)
  80694c:	1009883a 	mov	r4,r2
  806950:	0806ec00 	call	806ec0 <_ZNSt12_Vector_baseISt4pairIifESaIS1_EE19_M_get_Tp_allocatorEv>
  806954:	100b883a 	mov	r5,r2
  806958:	e13ffd17 	ldw	r4,-12(fp)
  80695c:	0806e3c0 	call	806e3c <_ZNSt6vectorISt4pairIifESaIS1_EE17_S_check_init_lenEjRKS2_>
	    pointer __tmp(_M_allocate_and_copy(__len, __first, __last));
  806960:	e1fff717 	ldw	r7,-36(fp)
  806964:	e1bff817 	ldw	r6,-32(fp)
  806968:	e17ffd17 	ldw	r5,-12(fp)
  80696c:	e13ff917 	ldw	r4,-28(fp)
  806970:	0806ee40 	call	806ee4 <_ZNSt6vectorISt4pairIifESaIS1_EE20_M_allocate_and_copyIPKS1_EEPS1_jT_S8_>
  806974:	e0bffb15 	stw	r2,-20(fp)
	    std::_Destroy(this->_M_impl._M_start, this->_M_impl._M_finish,
  806978:	e0bff917 	ldw	r2,-28(fp)
  80697c:	14000017 	ldw	r16,0(r2)
  806980:	e0bff917 	ldw	r2,-28(fp)
  806984:	14400117 	ldw	r17,4(r2)
			  _M_get_Tp_allocator());
  806988:	e0bff917 	ldw	r2,-28(fp)
  80698c:	1009883a 	mov	r4,r2
  806990:	0806ec00 	call	806ec0 <_ZNSt12_Vector_baseISt4pairIifESaIS1_EE19_M_get_Tp_allocatorEv>
	    std::_Destroy(this->_M_impl._M_start, this->_M_impl._M_finish,
  806994:	100d883a 	mov	r6,r2
  806998:	880b883a 	mov	r5,r17
  80699c:	8009883a 	mov	r4,r16
  8069a0:	080705c0 	call	80705c <_ZSt8_DestroyIPSt4pairIifES1_EvT_S3_RSaIT0_E>
	    _GLIBCXX_ASAN_ANNOTATE_REINIT;
	    _M_deallocate(this->_M_impl._M_start,
  8069a4:	e13ff917 	ldw	r4,-28(fp)
  8069a8:	e0bff917 	ldw	r2,-28(fp)
  8069ac:	11400017 	ldw	r5,0(r2)
			  this->_M_impl._M_end_of_storage
  8069b0:	e0bff917 	ldw	r2,-28(fp)
  8069b4:	10c00217 	ldw	r3,8(r2)
			  - this->_M_impl._M_start);
  8069b8:	e0bff917 	ldw	r2,-28(fp)
  8069bc:	10800017 	ldw	r2,0(r2)
  8069c0:	1885c83a 	sub	r2,r3,r2
  8069c4:	1005d0fa 	srai	r2,r2,3
	    _M_deallocate(this->_M_impl._M_start,
  8069c8:	100d883a 	mov	r6,r2
  8069cc:	080709c0 	call	80709c <_ZNSt12_Vector_baseISt4pairIifESaIS1_EE13_M_deallocateEPS1_j>
	    this->_M_impl._M_start = __tmp;
  8069d0:	e0bff917 	ldw	r2,-28(fp)
  8069d4:	e0fffb17 	ldw	r3,-20(fp)
  8069d8:	10c00015 	stw	r3,0(r2)
	    this->_M_impl._M_finish = this->_M_impl._M_start + __len;
  8069dc:	e0bff917 	ldw	r2,-28(fp)
  8069e0:	10c00017 	ldw	r3,0(r2)
  8069e4:	e0bffd17 	ldw	r2,-12(fp)
  8069e8:	100490fa 	slli	r2,r2,3
  8069ec:	1887883a 	add	r3,r3,r2
  8069f0:	e0bff917 	ldw	r2,-28(fp)
  8069f4:	10c00115 	stw	r3,4(r2)
	    this->_M_impl._M_end_of_storage = this->_M_impl._M_finish;
  8069f8:	e0bff917 	ldw	r2,-28(fp)
  8069fc:	10c00117 	ldw	r3,4(r2)
  806a00:	e0bff917 	ldw	r2,-28(fp)
  806a04:	10c00215 	stw	r3,8(r2)
	      std::__uninitialized_copy_a(__mid, __last,
					  this->_M_impl._M_finish,
					  _M_get_Tp_allocator());
	    _GLIBCXX_ASAN_ANNOTATE_GREW(__n);
	  }
      }
  806a08:	00003506 	br	806ae0 <_ZNSt6vectorISt4pairIifESaIS1_EE13_M_assign_auxIPKS1_EEvT_S7_St20forward_iterator_tag+0x1ec>
	else if (size() >= __len)
  806a0c:	e13ff917 	ldw	r4,-28(fp)
  806a10:	08070ec0 	call	8070ec <_ZNKSt6vectorISt4pairIifESaIS1_EE4sizeEv>
  806a14:	1007883a 	mov	r3,r2
  806a18:	e0bffd17 	ldw	r2,-12(fp)
  806a1c:	1885403a 	cmpgeu	r2,r3,r2
  806a20:	10803fcc 	andi	r2,r2,255
  806a24:	10000a26 	beq	r2,zero,806a50 <_ZNSt6vectorISt4pairIifESaIS1_EE13_M_assign_auxIPKS1_EEvT_S7_St20forward_iterator_tag+0x15c>
	  _M_erase_at_end(std::copy(__first, __last, this->_M_impl._M_start));
  806a28:	e0bff917 	ldw	r2,-28(fp)
  806a2c:	10800017 	ldw	r2,0(r2)
  806a30:	100d883a 	mov	r6,r2
  806a34:	e17ff717 	ldw	r5,-36(fp)
  806a38:	e13ff817 	ldw	r4,-32(fp)
  806a3c:	08071e00 	call	8071e0 <_ZSt4copyIPKSt4pairIifEPS1_ET0_T_S6_S5_>
  806a40:	100b883a 	mov	r5,r2
  806a44:	e13ff917 	ldw	r4,-28(fp)
  806a48:	08071240 	call	807124 <_ZNSt6vectorISt4pairIifESaIS1_EE15_M_erase_at_endEPS1_>
      }
  806a4c:	00002406 	br	806ae0 <_ZNSt6vectorISt4pairIifESaIS1_EE13_M_assign_auxIPKS1_EEvT_S7_St20forward_iterator_tag+0x1ec>
	    _ForwardIterator __mid = __first;
  806a50:	e0bff817 	ldw	r2,-32(fp)
  806a54:	e0bffa15 	stw	r2,-24(fp)
	    std::advance(__mid, size());
  806a58:	e13ff917 	ldw	r4,-28(fp)
  806a5c:	08070ec0 	call	8070ec <_ZNKSt6vectorISt4pairIifESaIS1_EE4sizeEv>
  806a60:	1007883a 	mov	r3,r2
  806a64:	e0bffa04 	addi	r2,fp,-24
  806a68:	180b883a 	mov	r5,r3
  806a6c:	1009883a 	mov	r4,r2
  806a70:	080723c0 	call	80723c <_ZSt7advanceIPKSt4pairIifEjEvRT_T0_>
	    std::copy(__first, __mid, this->_M_impl._M_start);
  806a74:	e0fffa17 	ldw	r3,-24(fp)
  806a78:	e0bff917 	ldw	r2,-28(fp)
  806a7c:	10800017 	ldw	r2,0(r2)
  806a80:	100d883a 	mov	r6,r2
  806a84:	180b883a 	mov	r5,r3
  806a88:	e13ff817 	ldw	r4,-32(fp)
  806a8c:	08071e00 	call	8071e0 <_ZSt4copyIPKSt4pairIifEPS1_ET0_T_S6_S5_>
	    const size_type __attribute__((__unused__)) __n = __len - size();
  806a90:	e13ff917 	ldw	r4,-28(fp)
  806a94:	08070ec0 	call	8070ec <_ZNKSt6vectorISt4pairIifESaIS1_EE4sizeEv>
  806a98:	1007883a 	mov	r3,r2
  806a9c:	e0bffd17 	ldw	r2,-12(fp)
  806aa0:	10c5c83a 	sub	r2,r2,r3
  806aa4:	e0bffc15 	stw	r2,-16(fp)
	      std::__uninitialized_copy_a(__mid, __last,
  806aa8:	e43ffa17 	ldw	r16,-24(fp)
  806aac:	e0bff917 	ldw	r2,-28(fp)
  806ab0:	14400117 	ldw	r17,4(r2)
					  _M_get_Tp_allocator());
  806ab4:	e0bff917 	ldw	r2,-28(fp)
  806ab8:	1009883a 	mov	r4,r2
  806abc:	0806ec00 	call	806ec0 <_ZNSt12_Vector_baseISt4pairIifESaIS1_EE19_M_get_Tp_allocatorEv>
	      std::__uninitialized_copy_a(__mid, __last,
  806ac0:	100f883a 	mov	r7,r2
  806ac4:	880d883a 	mov	r6,r17
  806ac8:	e17ff717 	ldw	r5,-36(fp)
  806acc:	8009883a 	mov	r4,r16
  806ad0:	08072940 	call	807294 <_ZSt22__uninitialized_copy_aIPKSt4pairIifEPS1_S1_ET0_T_S6_S5_RSaIT1_E>
  806ad4:	1007883a 	mov	r3,r2
	    this->_M_impl._M_finish =
  806ad8:	e0bff917 	ldw	r2,-28(fp)
  806adc:	10c00115 	stw	r3,4(r2)
      }
  806ae0:	0001883a 	nop
  806ae4:	e6fffe04 	addi	sp,fp,-8
  806ae8:	dfc00317 	ldw	ra,12(sp)
  806aec:	df000217 	ldw	fp,8(sp)
  806af0:	dc400117 	ldw	r17,4(sp)
  806af4:	dc000017 	ldw	r16,0(sp)
  806af8:	dec00404 	addi	sp,sp,16
  806afc:	f800283a 	ret

00806b00 <_ZN9__gnu_cxx17__normal_iteratorIPSt4pairIifESt6vectorIS2_SaIS2_EEEC1ERKS3_>:
      __normal_iterator(const _Iterator& __i) _GLIBCXX_NOEXCEPT
  806b00:	defffd04 	addi	sp,sp,-12
  806b04:	df000215 	stw	fp,8(sp)
  806b08:	df000204 	addi	fp,sp,8
  806b0c:	e13fff15 	stw	r4,-4(fp)
  806b10:	e17ffe15 	stw	r5,-8(fp)
      : _M_current(__i) { }
  806b14:	e0bffe17 	ldw	r2,-8(fp)
  806b18:	10c00017 	ldw	r3,0(r2)
  806b1c:	e0bfff17 	ldw	r2,-4(fp)
  806b20:	10c00015 	stw	r3,0(r2)
  806b24:	0001883a 	nop
  806b28:	e037883a 	mov	sp,fp
  806b2c:	df000017 	ldw	fp,0(sp)
  806b30:	dec00104 	addi	sp,sp,4
  806b34:	f800283a 	ret

00806b38 <_ZNK9__gnu_cxx17__normal_iteratorIPSt4pairIifESt6vectorIS2_SaIS2_EEE4baseEv>:
      base() const _GLIBCXX_NOEXCEPT
  806b38:	defffe04 	addi	sp,sp,-8
  806b3c:	df000115 	stw	fp,4(sp)
  806b40:	df000104 	addi	fp,sp,4
  806b44:	e13fff15 	stw	r4,-4(fp)
      { return _M_current; }
  806b48:	e0bfff17 	ldw	r2,-4(fp)
  806b4c:	e037883a 	mov	sp,fp
  806b50:	df000017 	ldw	fp,0(sp)
  806b54:	dec00104 	addi	sp,sp,4
  806b58:	f800283a 	ret

00806b5c <_ZNSt6vectorIS_ISt4pairIifESaIS1_EESaIS3_EE11_S_max_sizeERKS4_>:

      static size_type
      _S_max_size(const _Tp_alloc_type& __a) _GLIBCXX_NOEXCEPT
  806b5c:	defffb04 	addi	sp,sp,-20
  806b60:	dfc00415 	stw	ra,16(sp)
  806b64:	df000315 	stw	fp,12(sp)
  806b68:	df000304 	addi	fp,sp,12
  806b6c:	e13ffd15 	stw	r4,-12(fp)
      {
	// std::distance(begin(), end()) cannot be greater than PTRDIFF_MAX,
	// and realistically we can't store more than PTRDIFF_MAX/sizeof(T)
	// (even if std::allocator_traits::max_size says we can).
	const size_t __diffmax
  806b70:	0082aaf4 	movhi	r2,2731
  806b74:	10aaaa84 	addi	r2,r2,-21846
  806b78:	e0bfff15 	stw	r2,-4(fp)
	  = __gnu_cxx::__numeric_traits<ptrdiff_t>::__max / sizeof(_Tp);
	const size_t __allocmax = _Alloc_traits::max_size(__a);
  806b7c:	e13ffd17 	ldw	r4,-12(fp)
  806b80:	08072d80 	call	8072d8 <_ZNSt16allocator_traitsISaISt6vectorISt4pairIifESaIS2_EEEE8max_sizeERKS5_>
  806b84:	e0bffe15 	stw	r2,-8(fp)
	return (std::min)(__diffmax, __allocmax);
  806b88:	e0fffe04 	addi	r3,fp,-8
  806b8c:	e0bfff04 	addi	r2,fp,-4
  806b90:	180b883a 	mov	r5,r3
  806b94:	1009883a 	mov	r4,r2
  806b98:	08073080 	call	807308 <_ZSt3minIjERKT_S2_S2_>
  806b9c:	10800017 	ldw	r2,0(r2)
      }
  806ba0:	e037883a 	mov	sp,fp
  806ba4:	dfc00117 	ldw	ra,4(sp)
  806ba8:	df000017 	ldw	fp,0(sp)
  806bac:	dec00204 	addi	sp,sp,8
  806bb0:	f800283a 	ret

00806bb4 <_ZNSaISt6vectorISt4pairIifESaIS1_EEEC1ERKS4_>:
      allocator(const allocator& __a) _GLIBCXX_NOTHROW
  806bb4:	defffc04 	addi	sp,sp,-16
  806bb8:	dfc00315 	stw	ra,12(sp)
  806bbc:	df000215 	stw	fp,8(sp)
  806bc0:	df000204 	addi	fp,sp,8
  806bc4:	e13fff15 	stw	r4,-4(fp)
  806bc8:	e17ffe15 	stw	r5,-8(fp)
      : __allocator_base<_Tp>(__a) { }
  806bcc:	e17ffe17 	ldw	r5,-8(fp)
  806bd0:	e13fff17 	ldw	r4,-4(fp)
  806bd4:	080734c0 	call	80734c <_ZN9__gnu_cxx13new_allocatorISt6vectorISt4pairIifESaIS3_EEEC1ERKS6_>
  806bd8:	0001883a 	nop
  806bdc:	e037883a 	mov	sp,fp
  806be0:	dfc00117 	ldw	ra,4(sp)
  806be4:	df000017 	ldw	fp,0(sp)
  806be8:	dec00204 	addi	sp,sp,8
  806bec:	f800283a 	ret

00806bf0 <_ZNSt12_Vector_baseISt6vectorISt4pairIifESaIS2_EESaIS4_EE12_Vector_implC1ERKS5_>:
	_Vector_impl(_Tp_alloc_type const& __a) _GLIBCXX_NOEXCEPT
  806bf0:	defffc04 	addi	sp,sp,-16
  806bf4:	dfc00315 	stw	ra,12(sp)
  806bf8:	df000215 	stw	fp,8(sp)
  806bfc:	df000204 	addi	fp,sp,8
  806c00:	e13fff15 	stw	r4,-4(fp)
  806c04:	e17ffe15 	stw	r5,-8(fp)
	: _Tp_alloc_type(__a)
  806c08:	e17ffe17 	ldw	r5,-8(fp)
  806c0c:	e13fff17 	ldw	r4,-4(fp)
  806c10:	0806bb40 	call	806bb4 <_ZNSaISt6vectorISt4pairIifESaIS1_EEEC1ERKS4_>
  806c14:	e0bfff17 	ldw	r2,-4(fp)
  806c18:	1009883a 	mov	r4,r2
  806c1c:	08073740 	call	807374 <_ZNSt12_Vector_baseISt6vectorISt4pairIifESaIS2_EESaIS4_EE17_Vector_impl_dataC1Ev>
	{ }
  806c20:	0001883a 	nop
  806c24:	e037883a 	mov	sp,fp
  806c28:	dfc00117 	ldw	ra,4(sp)
  806c2c:	df000017 	ldw	fp,0(sp)
  806c30:	dec00204 	addi	sp,sp,8
  806c34:	f800283a 	ret

00806c38 <_ZNSt12_Vector_baseISt6vectorISt4pairIifESaIS2_EESaIS4_EE17_M_create_storageEj>:
      _M_create_storage(size_t __n)
  806c38:	defffc04 	addi	sp,sp,-16
  806c3c:	dfc00315 	stw	ra,12(sp)
  806c40:	df000215 	stw	fp,8(sp)
  806c44:	df000204 	addi	fp,sp,8
  806c48:	e13fff15 	stw	r4,-4(fp)
  806c4c:	e17ffe15 	stw	r5,-8(fp)
	this->_M_impl._M_start = this->_M_allocate(__n);
  806c50:	e17ffe17 	ldw	r5,-8(fp)
  806c54:	e13fff17 	ldw	r4,-4(fp)
  806c58:	08073b00 	call	8073b0 <_ZNSt12_Vector_baseISt6vectorISt4pairIifESaIS2_EESaIS4_EE11_M_allocateEj>
  806c5c:	1007883a 	mov	r3,r2
  806c60:	e0bfff17 	ldw	r2,-4(fp)
  806c64:	10c00015 	stw	r3,0(r2)
	this->_M_impl._M_finish = this->_M_impl._M_start;
  806c68:	e0bfff17 	ldw	r2,-4(fp)
  806c6c:	10c00017 	ldw	r3,0(r2)
  806c70:	e0bfff17 	ldw	r2,-4(fp)
  806c74:	10c00115 	stw	r3,4(r2)
	this->_M_impl._M_end_of_storage = this->_M_impl._M_start + __n;
  806c78:	e0bfff17 	ldw	r2,-4(fp)
  806c7c:	11000017 	ldw	r4,0(r2)
  806c80:	e0fffe17 	ldw	r3,-8(fp)
  806c84:	1805883a 	mov	r2,r3
  806c88:	1085883a 	add	r2,r2,r2
  806c8c:	10c5883a 	add	r2,r2,r3
  806c90:	100490ba 	slli	r2,r2,2
  806c94:	2087883a 	add	r3,r4,r2
  806c98:	e0bfff17 	ldw	r2,-4(fp)
  806c9c:	10c00215 	stw	r3,8(r2)
      }
  806ca0:	0001883a 	nop
  806ca4:	e037883a 	mov	sp,fp
  806ca8:	dfc00117 	ldw	ra,4(sp)
  806cac:	df000017 	ldw	fp,0(sp)
  806cb0:	dec00204 	addi	sp,sp,8
  806cb4:	f800283a 	ret

00806cb8 <_ZNSt12_Vector_baseISt6vectorISt4pairIifESaIS2_EESaIS4_EE13_M_deallocateEPS4_j>:
      _M_deallocate(pointer __p, size_t __n)
  806cb8:	defffb04 	addi	sp,sp,-20
  806cbc:	dfc00415 	stw	ra,16(sp)
  806cc0:	df000315 	stw	fp,12(sp)
  806cc4:	df000304 	addi	fp,sp,12
  806cc8:	e13fff15 	stw	r4,-4(fp)
  806ccc:	e17ffe15 	stw	r5,-8(fp)
  806cd0:	e1bffd15 	stw	r6,-12(fp)
	if (__p)
  806cd4:	e0bffe17 	ldw	r2,-8(fp)
  806cd8:	10000526 	beq	r2,zero,806cf0 <_ZNSt12_Vector_baseISt6vectorISt4pairIifESaIS2_EESaIS4_EE13_M_deallocateEPS4_j+0x38>
	  _Tr::deallocate(_M_impl, __p, __n);
  806cdc:	e0bfff17 	ldw	r2,-4(fp)
  806ce0:	e1bffd17 	ldw	r6,-12(fp)
  806ce4:	e17ffe17 	ldw	r5,-8(fp)
  806ce8:	1009883a 	mov	r4,r2
  806cec:	08073fc0 	call	8073fc <_ZNSt16allocator_traitsISaISt6vectorISt4pairIifESaIS2_EEEE10deallocateERS5_PS4_j>
      }
  806cf0:	0001883a 	nop
  806cf4:	e037883a 	mov	sp,fp
  806cf8:	dfc00117 	ldw	ra,4(sp)
  806cfc:	df000017 	ldw	fp,0(sp)
  806d00:	dec00204 	addi	sp,sp,8
  806d04:	f800283a 	ret

00806d08 <_ZSt27__uninitialized_default_n_aIPSt6vectorISt4pairIifESaIS2_EEjS4_ET_S6_T0_RSaIT1_E>:
	}
    }

  template<typename _ForwardIterator, typename _Size, typename _Tp>
    inline _ForwardIterator
    __uninitialized_default_n_a(_ForwardIterator __first, _Size __n, 
  806d08:	defffb04 	addi	sp,sp,-20
  806d0c:	dfc00415 	stw	ra,16(sp)
  806d10:	df000315 	stw	fp,12(sp)
  806d14:	df000304 	addi	fp,sp,12
  806d18:	e13fff15 	stw	r4,-4(fp)
  806d1c:	e17ffe15 	stw	r5,-8(fp)
  806d20:	e1bffd15 	stw	r6,-12(fp)
				allocator<_Tp>&)
    { return std::__uninitialized_default_n(__first, __n); }
  806d24:	e17ffe17 	ldw	r5,-8(fp)
  806d28:	e13fff17 	ldw	r4,-4(fp)
  806d2c:	08074400 	call	807440 <_ZSt25__uninitialized_default_nIPSt6vectorISt4pairIifESaIS2_EEjET_S6_T0_>
  806d30:	e037883a 	mov	sp,fp
  806d34:	dfc00117 	ldw	ra,4(sp)
  806d38:	df000017 	ldw	fp,0(sp)
  806d3c:	dec00204 	addi	sp,sp,8
  806d40:	f800283a 	ret

00806d44 <_ZSt8_DestroyIPSt6vectorISt4pairIifESaIS2_EEEvT_S6_>:
   * a trivial destructor, the compiler should optimize all of this
   * away, otherwise the objects' destructors must be invoked.
   */
  template<typename _ForwardIterator>
    _GLIBCXX20_CONSTEXPR inline void
    _Destroy(_ForwardIterator __first, _ForwardIterator __last)
  806d44:	defffc04 	addi	sp,sp,-16
  806d48:	dfc00315 	stw	ra,12(sp)
  806d4c:	df000215 	stw	fp,8(sp)
  806d50:	df000204 	addi	fp,sp,8
  806d54:	e13fff15 	stw	r4,-4(fp)
  806d58:	e17ffe15 	stw	r5,-8(fp)
#if __cplusplus > 201703L && defined __cpp_lib_is_constant_evaluated
      if (std::is_constant_evaluated())
	return _Destroy_aux<false>::__destroy(__first, __last);
#endif
      std::_Destroy_aux<__has_trivial_destructor(_Value_type)>::
	__destroy(__first, __last);
  806d5c:	e17ffe17 	ldw	r5,-8(fp)
  806d60:	e13fff17 	ldw	r4,-4(fp)
  806d64:	08074800 	call	807480 <_ZNSt12_Destroy_auxILb0EE9__destroyIPSt6vectorISt4pairIifESaIS4_EEEEvT_S8_>
    }
  806d68:	0001883a 	nop
  806d6c:	e037883a 	mov	sp,fp
  806d70:	dfc00117 	ldw	ra,4(sp)
  806d74:	df000017 	ldw	fp,0(sp)
  806d78:	dec00204 	addi	sp,sp,8
  806d7c:	f800283a 	ret

00806d80 <_ZNKSt16initializer_listISt4pairIifEE4sizeEv>:
      size() const noexcept { return _M_len; }
  806d80:	defffe04 	addi	sp,sp,-8
  806d84:	df000115 	stw	fp,4(sp)
  806d88:	df000104 	addi	fp,sp,4
  806d8c:	e13fff15 	stw	r4,-4(fp)
  806d90:	e0bfff17 	ldw	r2,-4(fp)
  806d94:	10800117 	ldw	r2,4(r2)
  806d98:	e037883a 	mov	sp,fp
  806d9c:	df000017 	ldw	fp,0(sp)
  806da0:	dec00104 	addi	sp,sp,4
  806da4:	f800283a 	ret

00806da8 <_ZSt8distanceIPKSt4pairIifEENSt15iterator_traitsIT_E15difference_typeES5_S5_>:
   *  and are constant time.  For other %iterator classes they are linear time.
  */
  template<typename _InputIterator>
    inline _GLIBCXX17_CONSTEXPR
    typename iterator_traits<_InputIterator>::difference_type
    distance(_InputIterator __first, _InputIterator __last)
  806da8:	defffa04 	addi	sp,sp,-24
  806dac:	dfc00515 	stw	ra,20(sp)
  806db0:	df000415 	stw	fp,16(sp)
  806db4:	dc400315 	stw	r17,12(sp)
  806db8:	dc000215 	stw	r16,8(sp)
  806dbc:	df000404 	addi	fp,sp,16
  806dc0:	e13ffd15 	stw	r4,-12(fp)
  806dc4:	e17ffc15 	stw	r5,-16(fp)
    {
      // concept requirements -- taken care of in __distance
      return std::__distance(__first, __last,
  806dc8:	e43ffd17 	ldw	r16,-12(fp)
			     std::__iterator_category(__first));
  806dcc:	e0bffd04 	addi	r2,fp,-12
  806dd0:	1009883a 	mov	r4,r2
  806dd4:	08074dc0 	call	8074dc <_ZSt19__iterator_categoryIPKSt4pairIifEENSt15iterator_traitsIT_E17iterator_categoryERKS5_>
      return std::__distance(__first, __last,
  806dd8:	880d883a 	mov	r6,r17
  806ddc:	e17ffc17 	ldw	r5,-16(fp)
  806de0:	8009883a 	mov	r4,r16
  806de4:	08075000 	call	807500 <_ZSt10__distanceIPKSt4pairIifEENSt15iterator_traitsIT_E15difference_typeES5_S5_St26random_access_iterator_tag>
    }
  806de8:	e6fffe04 	addi	sp,fp,-8
  806dec:	dfc00317 	ldw	ra,12(sp)
  806df0:	df000217 	ldw	fp,8(sp)
  806df4:	dc400117 	ldw	r17,4(sp)
  806df8:	dc000017 	ldw	r16,0(sp)
  806dfc:	dec00404 	addi	sp,sp,16
  806e00:	f800283a 	ret

00806e04 <_ZNKSt6vectorISt4pairIifESaIS1_EE8capacityEv>:
      capacity() const _GLIBCXX_NOEXCEPT
  806e04:	defffe04 	addi	sp,sp,-8
  806e08:	df000115 	stw	fp,4(sp)
  806e0c:	df000104 	addi	fp,sp,4
  806e10:	e13fff15 	stw	r4,-4(fp)
      { return size_type(this->_M_impl._M_end_of_storage
  806e14:	e0bfff17 	ldw	r2,-4(fp)
  806e18:	10c00217 	ldw	r3,8(r2)
			 - this->_M_impl._M_start); }
  806e1c:	e0bfff17 	ldw	r2,-4(fp)
  806e20:	10800017 	ldw	r2,0(r2)
  806e24:	1885c83a 	sub	r2,r3,r2
  806e28:	1005d0fa 	srai	r2,r2,3
  806e2c:	e037883a 	mov	sp,fp
  806e30:	df000017 	ldw	fp,0(sp)
  806e34:	dec00104 	addi	sp,sp,4
  806e38:	f800283a 	ret

00806e3c <_ZNSt6vectorISt4pairIifESaIS1_EE17_S_check_init_lenEjRKS2_>:
      _S_check_init_len(size_type __n, const allocator_type& __a)
  806e3c:	defffa04 	addi	sp,sp,-24
  806e40:	dfc00515 	stw	ra,20(sp)
  806e44:	df000415 	stw	fp,16(sp)
  806e48:	dc000315 	stw	r16,12(sp)
  806e4c:	df000404 	addi	fp,sp,16
  806e50:	e13ffd15 	stw	r4,-12(fp)
  806e54:	e17ffc15 	stw	r5,-16(fp)
	if (__n > _S_max_size(_Tp_alloc_type(__a)))
  806e58:	e0bffec4 	addi	r2,fp,-5
  806e5c:	e17ffc17 	ldw	r5,-16(fp)
  806e60:	1009883a 	mov	r4,r2
  806e64:	08075900 	call	807590 <_ZNSaISt4pairIifEEC1ERKS1_>
  806e68:	e0bffec4 	addi	r2,fp,-5
  806e6c:	1009883a 	mov	r4,r2
  806e70:	08075380 	call	807538 <_ZNSt6vectorISt4pairIifESaIS1_EE11_S_max_sizeERKS2_>
  806e74:	1007883a 	mov	r3,r2
  806e78:	e0bffd17 	ldw	r2,-12(fp)
  806e7c:	1885803a 	cmpltu	r2,r3,r2
  806e80:	1021883a 	mov	r16,r2
  806e84:	e0bffec4 	addi	r2,fp,-5
  806e88:	1009883a 	mov	r4,r2
  806e8c:	08075cc0 	call	8075cc <_ZNSaISt4pairIifEED1Ev>
  806e90:	80803fcc 	andi	r2,r16,255
  806e94:	10000326 	beq	r2,zero,806ea4 <_ZNSt6vectorISt4pairIifESaIS1_EE17_S_check_init_lenEjRKS2_+0x68>
	  __throw_length_error(
  806e98:	010020b4 	movhi	r4,130
  806e9c:	211bb504 	addi	r4,r4,28372
  806ea0:	08097380 	call	809738 <_ZSt20__throw_length_errorPKc>
	return __n;
  806ea4:	e0bffd17 	ldw	r2,-12(fp)
      }
  806ea8:	e6ffff04 	addi	sp,fp,-4
  806eac:	dfc00217 	ldw	ra,8(sp)
  806eb0:	df000117 	ldw	fp,4(sp)
  806eb4:	dc000017 	ldw	r16,0(sp)
  806eb8:	dec00304 	addi	sp,sp,12
  806ebc:	f800283a 	ret

00806ec0 <_ZNSt12_Vector_baseISt4pairIifESaIS1_EE19_M_get_Tp_allocatorEv>:
      _M_get_Tp_allocator() _GLIBCXX_NOEXCEPT
  806ec0:	defffe04 	addi	sp,sp,-8
  806ec4:	df000115 	stw	fp,4(sp)
  806ec8:	df000104 	addi	fp,sp,4
  806ecc:	e13fff15 	stw	r4,-4(fp)
      { return this->_M_impl; }
  806ed0:	e0bfff17 	ldw	r2,-4(fp)
  806ed4:	e037883a 	mov	sp,fp
  806ed8:	df000017 	ldw	fp,0(sp)
  806edc:	dec00104 	addi	sp,sp,4
  806ee0:	f800283a 	ret

00806ee4 <_ZNSt6vectorISt4pairIifESaIS1_EE20_M_allocate_and_copyIPKS1_EEPS1_jT_S8_>:
	_M_allocate_and_copy(size_type __n,
  806ee4:	deffe304 	addi	sp,sp,-116
  806ee8:	dfc01c15 	stw	ra,112(sp)
  806eec:	df001b15 	stw	fp,108(sp)
  806ef0:	ddc01a15 	stw	r23,104(sp)
  806ef4:	dd801915 	stw	r22,100(sp)
  806ef8:	dd401815 	stw	r21,96(sp)
  806efc:	dd001715 	stw	r20,92(sp)
  806f00:	dcc01615 	stw	r19,88(sp)
  806f04:	dc801515 	stw	r18,84(sp)
  806f08:	dc401415 	stw	r17,80(sp)
  806f0c:	dc001315 	stw	r16,76(sp)
  806f10:	df001b04 	addi	fp,sp,108
  806f14:	e13ff615 	stw	r4,-40(fp)
  806f18:	e17ff515 	stw	r5,-44(fp)
  806f1c:	e1bff415 	stw	r6,-48(fp)
  806f20:	e1fff315 	stw	r7,-52(fp)
  806f24:	00802074 	movhi	r2,129
  806f28:	10a23704 	addi	r2,r2,-30500
  806f2c:	e0bfec15 	stw	r2,-80(fp)
  806f30:	008020b4 	movhi	r2,130
  806f34:	109ab404 	addi	r2,r2,27344
  806f38:	e0bfed15 	stw	r2,-76(fp)
  806f3c:	e0bfee04 	addi	r2,fp,-72
  806f40:	17000015 	stw	fp,0(r2)
  806f44:	00c02034 	movhi	r3,128
  806f48:	18dbed04 	addi	r3,r3,28596
  806f4c:	10c00115 	stw	r3,4(r2)
  806f50:	16c00215 	stw	sp,8(r2)
  806f54:	e0bfe604 	addi	r2,fp,-104
  806f58:	1009883a 	mov	r4,r2
  806f5c:	08173140 	call	817314 <_Unwind_SjLj_Register>
	  pointer __result = this->_M_allocate(__n);
  806f60:	e0fff617 	ldw	r3,-40(fp)
  806f64:	00bfffc4 	movi	r2,-1
  806f68:	e0bfe715 	stw	r2,-100(fp)
  806f6c:	e17ff517 	ldw	r5,-44(fp)
  806f70:	1809883a 	mov	r4,r3
  806f74:	08076000 	call	807600 <_ZNSt12_Vector_baseISt4pairIifESaIS1_EE11_M_allocateEj>
  806f78:	e0bff715 	stw	r2,-36(fp)
					  _M_get_Tp_allocator());
  806f7c:	e0bff617 	ldw	r2,-40(fp)
  806f80:	1009883a 	mov	r4,r2
  806f84:	0806ec00 	call	806ec0 <_ZNSt12_Vector_baseISt4pairIifESaIS1_EE19_M_get_Tp_allocatorEv>
  806f88:	1007883a 	mov	r3,r2
	      std::__uninitialized_copy_a(__first, __last, __result,
  806f8c:	00800044 	movi	r2,1
  806f90:	e0bfe715 	stw	r2,-100(fp)
  806f94:	180f883a 	mov	r7,r3
  806f98:	e1bff717 	ldw	r6,-36(fp)
  806f9c:	e17ff317 	ldw	r5,-52(fp)
  806fa0:	e13ff417 	ldw	r4,-48(fp)
  806fa4:	08072940 	call	807294 <_ZSt22__uninitialized_copy_aIPKSt4pairIifEPS1_S1_ET0_T_S6_S5_RSaIT1_E>
	      return __result;
  806fa8:	e0bff717 	ldw	r2,-36(fp)
  806fac:	e0bfe515 	stw	r2,-108(fp)
  806fb0:	00001906 	br	807018 <_ZNSt6vectorISt4pairIifESaIS1_EE20_M_allocate_and_copyIPKS1_EEPS1_jT_S8_+0x134>
	  __catch(...)
  806fb4:	e0ffe817 	ldw	r3,-96(fp)
  806fb8:	e0bfe717 	ldw	r2,-100(fp)
  806fbc:	10000326 	beq	r2,zero,806fcc <_ZNSt6vectorISt4pairIifESaIS1_EE20_M_allocate_and_copyIPKS1_EEPS1_jT_S8_+0xe8>
  806fc0:	10bfffc4 	addi	r2,r2,-1
  806fc4:	10000c26 	beq	r2,zero,806ff8 <_ZNSt6vectorISt4pairIifESaIS1_EE20_M_allocate_and_copyIPKS1_EEPS1_jT_S8_+0x114>
  806fc8:	003b68fa 	trap	3
  806fcc:	1805883a 	mov	r2,r3
  806fd0:	1009883a 	mov	r4,r2
  806fd4:	08081f80 	call	8081f8 <__cxa_begin_catch>
	      _M_deallocate(__result, __n);
  806fd8:	e0fff617 	ldw	r3,-40(fp)
  806fdc:	00800084 	movi	r2,2
  806fe0:	e0bfe715 	stw	r2,-100(fp)
  806fe4:	e1bff517 	ldw	r6,-44(fp)
  806fe8:	e17ff717 	ldw	r5,-36(fp)
  806fec:	1809883a 	mov	r4,r3
  806ff0:	080709c0 	call	80709c <_ZNSt12_Vector_baseISt4pairIifESaIS1_EE13_M_deallocateEPS1_j>
	      __throw_exception_again;
  806ff4:	080937c0 	call	80937c <__cxa_rethrow>
	  __catch(...)
  806ff8:	e0ffe515 	stw	r3,-108(fp)
  806ffc:	e03fe715 	stw	zero,-100(fp)
  807000:	08082b00 	call	8082b0 <__cxa_end_catch>
  807004:	e0ffe517 	ldw	r3,-108(fp)
  807008:	00bfffc4 	movi	r2,-1
  80700c:	e0bfe715 	stw	r2,-100(fp)
  807010:	1809883a 	mov	r4,r3
  807014:	08174fc0 	call	8174fc <_Unwind_SjLj_Resume>
  807018:	e0bfe604 	addi	r2,fp,-104
  80701c:	1009883a 	mov	r4,r2
  807020:	081732c0 	call	81732c <_Unwind_SjLj_Unregister>
	}
  807024:	e0bfe517 	ldw	r2,-108(fp)
  807028:	e6fff804 	addi	sp,fp,-32
  80702c:	dfc00917 	ldw	ra,36(sp)
  807030:	df000817 	ldw	fp,32(sp)
  807034:	ddc00717 	ldw	r23,28(sp)
  807038:	dd800617 	ldw	r22,24(sp)
  80703c:	dd400517 	ldw	r21,20(sp)
  807040:	dd000417 	ldw	r20,16(sp)
  807044:	dcc00317 	ldw	r19,12(sp)
  807048:	dc800217 	ldw	r18,8(sp)
  80704c:	dc400117 	ldw	r17,4(sp)
  807050:	dc000017 	ldw	r16,0(sp)
  807054:	dec00a04 	addi	sp,sp,40
  807058:	f800283a 	ret

0080705c <_ZSt8_DestroyIPSt4pairIifES1_EvT_S3_RSaIT0_E>:
    _Destroy(_ForwardIterator __first, _ForwardIterator __last,
  80705c:	defffb04 	addi	sp,sp,-20
  807060:	dfc00415 	stw	ra,16(sp)
  807064:	df000315 	stw	fp,12(sp)
  807068:	df000304 	addi	fp,sp,12
  80706c:	e13fff15 	stw	r4,-4(fp)
  807070:	e17ffe15 	stw	r5,-8(fp)
  807074:	e1bffd15 	stw	r6,-12(fp)
      _Destroy(__first, __last);
  807078:	e17ffe17 	ldw	r5,-8(fp)
  80707c:	e13fff17 	ldw	r4,-4(fp)
  807080:	080764c0 	call	80764c <_ZSt8_DestroyIPSt4pairIifEEvT_S3_>
    }
  807084:	0001883a 	nop
  807088:	e037883a 	mov	sp,fp
  80708c:	dfc00117 	ldw	ra,4(sp)
  807090:	df000017 	ldw	fp,0(sp)
  807094:	dec00204 	addi	sp,sp,8
  807098:	f800283a 	ret

0080709c <_ZNSt12_Vector_baseISt4pairIifESaIS1_EE13_M_deallocateEPS1_j>:
      _M_deallocate(pointer __p, size_t __n)
  80709c:	defffb04 	addi	sp,sp,-20
  8070a0:	dfc00415 	stw	ra,16(sp)
  8070a4:	df000315 	stw	fp,12(sp)
  8070a8:	df000304 	addi	fp,sp,12
  8070ac:	e13fff15 	stw	r4,-4(fp)
  8070b0:	e17ffe15 	stw	r5,-8(fp)
  8070b4:	e1bffd15 	stw	r6,-12(fp)
	if (__p)
  8070b8:	e0bffe17 	ldw	r2,-8(fp)
  8070bc:	10000526 	beq	r2,zero,8070d4 <_ZNSt12_Vector_baseISt4pairIifESaIS1_EE13_M_deallocateEPS1_j+0x38>
	  _Tr::deallocate(_M_impl, __p, __n);
  8070c0:	e0bfff17 	ldw	r2,-4(fp)
  8070c4:	e1bffd17 	ldw	r6,-12(fp)
  8070c8:	e17ffe17 	ldw	r5,-8(fp)
  8070cc:	1009883a 	mov	r4,r2
  8070d0:	08076880 	call	807688 <_ZNSt16allocator_traitsISaISt4pairIifEEE10deallocateERS2_PS1_j>
      }
  8070d4:	0001883a 	nop
  8070d8:	e037883a 	mov	sp,fp
  8070dc:	dfc00117 	ldw	ra,4(sp)
  8070e0:	df000017 	ldw	fp,0(sp)
  8070e4:	dec00204 	addi	sp,sp,8
  8070e8:	f800283a 	ret

008070ec <_ZNKSt6vectorISt4pairIifESaIS1_EE4sizeEv>:
      size() const _GLIBCXX_NOEXCEPT
  8070ec:	defffe04 	addi	sp,sp,-8
  8070f0:	df000115 	stw	fp,4(sp)
  8070f4:	df000104 	addi	fp,sp,4
  8070f8:	e13fff15 	stw	r4,-4(fp)
      { return size_type(this->_M_impl._M_finish - this->_M_impl._M_start); }
  8070fc:	e0bfff17 	ldw	r2,-4(fp)
  807100:	10c00117 	ldw	r3,4(r2)
  807104:	e0bfff17 	ldw	r2,-4(fp)
  807108:	10800017 	ldw	r2,0(r2)
  80710c:	1885c83a 	sub	r2,r3,r2
  807110:	1005d0fa 	srai	r2,r2,3
  807114:	e037883a 	mov	sp,fp
  807118:	df000017 	ldw	fp,0(sp)
  80711c:	dec00104 	addi	sp,sp,4
  807120:	f800283a 	ret

00807124 <_ZNSt6vectorISt4pairIifESaIS1_EE15_M_erase_at_endEPS1_>:
      // Internal erase functions follow.

      // Called by erase(q1,q2), clear(), resize(), _M_fill_assign,
      // _M_assign_aux.
      void
      _M_erase_at_end(pointer __pos) _GLIBCXX_NOEXCEPT
  807124:	deffed04 	addi	sp,sp,-76
  807128:	dfc01215 	stw	ra,72(sp)
  80712c:	df001115 	stw	fp,68(sp)
  807130:	dc001015 	stw	r16,64(sp)
  807134:	df001104 	addi	fp,sp,68
  807138:	e13ffd15 	stw	r4,-12(fp)
  80713c:	e17ffc15 	stw	r5,-16(fp)
  807140:	00802074 	movhi	r2,129
  807144:	10a23704 	addi	r2,r2,-30500
  807148:	e0bff515 	stw	r2,-44(fp)
  80714c:	008020b4 	movhi	r2,130
  807150:	109ab804 	addi	r2,r2,27360
  807154:	e0bff615 	stw	r2,-40(fp)
  807158:	e0bfef04 	addi	r2,fp,-68
  80715c:	1009883a 	mov	r4,r2
  807160:	08173140 	call	817314 <_Unwind_SjLj_Register>
      {
	if (size_type __n = this->_M_impl._M_finish - __pos)
  807164:	e0bffd17 	ldw	r2,-12(fp)
  807168:	10c00117 	ldw	r3,4(r2)
  80716c:	e0bffc17 	ldw	r2,-16(fp)
  807170:	1885c83a 	sub	r2,r3,r2
  807174:	1005d0fa 	srai	r2,r2,3
  807178:	e0bffe15 	stw	r2,-8(fp)
  80717c:	e0bffe17 	ldw	r2,-8(fp)
  807180:	10000d26 	beq	r2,zero,8071b8 <_ZNSt6vectorISt4pairIifESaIS1_EE15_M_erase_at_endEPS1_+0x94>
	  {
	    std::_Destroy(__pos, this->_M_impl._M_finish,
  807184:	e0bffd17 	ldw	r2,-12(fp)
  807188:	14000117 	ldw	r16,4(r2)
			  _M_get_Tp_allocator());
  80718c:	e0bffd17 	ldw	r2,-12(fp)
  807190:	1009883a 	mov	r4,r2
  807194:	0806ec00 	call	806ec0 <_ZNSt12_Vector_baseISt4pairIifESaIS1_EE19_M_get_Tp_allocatorEv>
	    std::_Destroy(__pos, this->_M_impl._M_finish,
  807198:	e03ff015 	stw	zero,-64(fp)
  80719c:	100d883a 	mov	r6,r2
  8071a0:	800b883a 	mov	r5,r16
  8071a4:	e13ffc17 	ldw	r4,-16(fp)
  8071a8:	080705c0 	call	80705c <_ZSt8_DestroyIPSt4pairIifES1_EvT_S3_RSaIT0_E>
	    this->_M_impl._M_finish = __pos;
  8071ac:	e0bffd17 	ldw	r2,-12(fp)
  8071b0:	e0fffc17 	ldw	r3,-16(fp)
  8071b4:	10c00115 	stw	r3,4(r2)
	    _GLIBCXX_ASAN_ANNOTATE_SHRINK(__n);
	  }
      }
  8071b8:	0001883a 	nop
  8071bc:	e0bfef04 	addi	r2,fp,-68
  8071c0:	1009883a 	mov	r4,r2
  8071c4:	081732c0 	call	81732c <_Unwind_SjLj_Unregister>
  8071c8:	e6ffff04 	addi	sp,fp,-4
  8071cc:	dfc00217 	ldw	ra,8(sp)
  8071d0:	df000117 	ldw	fp,4(sp)
  8071d4:	dc000017 	ldw	r16,0(sp)
  8071d8:	dec00304 	addi	sp,sp,12
  8071dc:	f800283a 	ret

008071e0 <_ZSt4copyIPKSt4pairIifEPS1_ET0_T_S6_S5_>:
   *  within [first,last).
  */
  template<typename _II, typename _OI>
    _GLIBCXX20_CONSTEXPR
    inline _OI
    copy(_II __first, _II __last, _OI __result)
  8071e0:	defffa04 	addi	sp,sp,-24
  8071e4:	dfc00515 	stw	ra,20(sp)
  8071e8:	df000415 	stw	fp,16(sp)
  8071ec:	dc000315 	stw	r16,12(sp)
  8071f0:	df000404 	addi	fp,sp,16
  8071f4:	e13ffe15 	stw	r4,-8(fp)
  8071f8:	e17ffd15 	stw	r5,-12(fp)
  8071fc:	e1bffc15 	stw	r6,-16(fp)
      __glibcxx_function_requires(_OutputIteratorConcept<_OI,
	    typename iterator_traits<_II>::value_type>)
      __glibcxx_requires_can_increment_range(__first, __last, __result);

      return std::__copy_move_a<__is_move_iterator<_II>::__value>
	     (std::__miter_base(__first), std::__miter_base(__last), __result);
  807200:	e13ffe17 	ldw	r4,-8(fp)
  807204:	08076cc0 	call	8076cc <_ZSt12__miter_baseIPKSt4pairIifEET_S4_>
  807208:	1021883a 	mov	r16,r2
  80720c:	e13ffd17 	ldw	r4,-12(fp)
  807210:	08076cc0 	call	8076cc <_ZSt12__miter_baseIPKSt4pairIifEET_S4_>
  807214:	e1bffc17 	ldw	r6,-16(fp)
  807218:	100b883a 	mov	r5,r2
  80721c:	8009883a 	mov	r4,r16
  807220:	08076f00 	call	8076f0 <_ZSt13__copy_move_aILb0EPKSt4pairIifEPS1_ET1_T0_S6_S5_>
    }
  807224:	e6ffff04 	addi	sp,fp,-4
  807228:	dfc00217 	ldw	ra,8(sp)
  80722c:	df000117 	ldw	fp,4(sp)
  807230:	dc000017 	ldw	r16,0(sp)
  807234:	dec00304 	addi	sp,sp,12
  807238:	f800283a 	ret

0080723c <_ZSt7advanceIPKSt4pairIifEjEvRT_T0_>:
   *  For random access iterators, this uses their @c + and @c - operations
   *  and are constant time.  For other %iterator classes they are linear time.
  */
  template<typename _InputIterator, typename _Distance>
    inline _GLIBCXX17_CONSTEXPR void
    advance(_InputIterator& __i, _Distance __n)
  80723c:	defffa04 	addi	sp,sp,-24
  807240:	dfc00515 	stw	ra,20(sp)
  807244:	df000415 	stw	fp,16(sp)
  807248:	dc000315 	stw	r16,12(sp)
  80724c:	df000404 	addi	fp,sp,16
  807250:	e13ffd15 	stw	r4,-12(fp)
  807254:	e17ffc15 	stw	r5,-16(fp)
    {
      // concept requirements -- taken care of in __advance
      typename iterator_traits<_InputIterator>::difference_type __d = __n;
  807258:	e0bffc17 	ldw	r2,-16(fp)
  80725c:	e0bffe15 	stw	r2,-8(fp)
      std::__advance(__i, __d, std::__iterator_category(__i));
  807260:	e13ffd17 	ldw	r4,-12(fp)
  807264:	08074dc0 	call	8074dc <_ZSt19__iterator_categoryIPKSt4pairIifEENSt15iterator_traitsIT_E17iterator_categoryERKS5_>
  807268:	800d883a 	mov	r6,r16
  80726c:	e17ffe17 	ldw	r5,-8(fp)
  807270:	e13ffd17 	ldw	r4,-12(fp)
  807274:	08077780 	call	807778 <_ZSt9__advanceIPKSt4pairIifEiEvRT_T0_St26random_access_iterator_tag>
    }
  807278:	0001883a 	nop
  80727c:	e6ffff04 	addi	sp,fp,-4
  807280:	dfc00217 	ldw	ra,8(sp)
  807284:	df000117 	ldw	fp,4(sp)
  807288:	dc000017 	ldw	r16,0(sp)
  80728c:	dec00304 	addi	sp,sp,12
  807290:	f800283a 	ret

00807294 <_ZSt22__uninitialized_copy_aIPKSt4pairIifEPS1_S1_ET0_T_S6_S5_RSaIT1_E>:
    __uninitialized_copy_a(_InputIterator __first, _InputIterator __last,
  807294:	defffa04 	addi	sp,sp,-24
  807298:	dfc00515 	stw	ra,20(sp)
  80729c:	df000415 	stw	fp,16(sp)
  8072a0:	df000404 	addi	fp,sp,16
  8072a4:	e13fff15 	stw	r4,-4(fp)
  8072a8:	e17ffe15 	stw	r5,-8(fp)
  8072ac:	e1bffd15 	stw	r6,-12(fp)
  8072b0:	e1fffc15 	stw	r7,-16(fp)
    { return std::uninitialized_copy(__first, __last, __result); }
  8072b4:	e1bffd17 	ldw	r6,-12(fp)
  8072b8:	e17ffe17 	ldw	r5,-8(fp)
  8072bc:	e13fff17 	ldw	r4,-4(fp)
  8072c0:	08077c00 	call	8077c0 <_ZSt18uninitialized_copyIPKSt4pairIifEPS1_ET0_T_S6_S5_>
  8072c4:	e037883a 	mov	sp,fp
  8072c8:	dfc00117 	ldw	ra,4(sp)
  8072cc:	df000017 	ldw	fp,0(sp)
  8072d0:	dec00204 	addi	sp,sp,8
  8072d4:	f800283a 	ret

008072d8 <_ZNSt16allocator_traitsISaISt6vectorISt4pairIifESaIS2_EEEE8max_sizeERKS5_>:
      max_size(const allocator_type& __a __attribute__((__unused__))) noexcept
  8072d8:	defffd04 	addi	sp,sp,-12
  8072dc:	dfc00215 	stw	ra,8(sp)
  8072e0:	df000115 	stw	fp,4(sp)
  8072e4:	df000104 	addi	fp,sp,4
  8072e8:	e13fff15 	stw	r4,-4(fp)
	return __a.max_size();
  8072ec:	e13fff17 	ldw	r4,-4(fp)
  8072f0:	08078080 	call	807808 <_ZNK9__gnu_cxx13new_allocatorISt6vectorISt4pairIifESaIS3_EEE8max_sizeEv>
      }
  8072f4:	e037883a 	mov	sp,fp
  8072f8:	dfc00117 	ldw	ra,4(sp)
  8072fc:	df000017 	ldw	fp,0(sp)
  807300:	dec00204 	addi	sp,sp,8
  807304:	f800283a 	ret

00807308 <_ZSt3minIjERKT_S2_S2_>:
    min(const _Tp& __a, const _Tp& __b)
  807308:	defffd04 	addi	sp,sp,-12
  80730c:	df000215 	stw	fp,8(sp)
  807310:	df000204 	addi	fp,sp,8
  807314:	e13fff15 	stw	r4,-4(fp)
  807318:	e17ffe15 	stw	r5,-8(fp)
      if (__b < __a)
  80731c:	e0bffe17 	ldw	r2,-8(fp)
  807320:	10c00017 	ldw	r3,0(r2)
  807324:	e0bfff17 	ldw	r2,-4(fp)
  807328:	10800017 	ldw	r2,0(r2)
  80732c:	1880022e 	bgeu	r3,r2,807338 <_ZSt3minIjERKT_S2_S2_+0x30>
	return __b;
  807330:	e0bffe17 	ldw	r2,-8(fp)
  807334:	00000106 	br	80733c <_ZSt3minIjERKT_S2_S2_+0x34>
      return __a;
  807338:	e0bfff17 	ldw	r2,-4(fp)
    }
  80733c:	e037883a 	mov	sp,fp
  807340:	df000017 	ldw	fp,0(sp)
  807344:	dec00104 	addi	sp,sp,4
  807348:	f800283a 	ret

0080734c <_ZN9__gnu_cxx13new_allocatorISt6vectorISt4pairIifESaIS3_EEEC1ERKS6_>:
      new_allocator(const new_allocator&) _GLIBCXX_USE_NOEXCEPT { }
  80734c:	defffd04 	addi	sp,sp,-12
  807350:	df000215 	stw	fp,8(sp)
  807354:	df000204 	addi	fp,sp,8
  807358:	e13fff15 	stw	r4,-4(fp)
  80735c:	e17ffe15 	stw	r5,-8(fp)
  807360:	0001883a 	nop
  807364:	e037883a 	mov	sp,fp
  807368:	df000017 	ldw	fp,0(sp)
  80736c:	dec00104 	addi	sp,sp,4
  807370:	f800283a 	ret

00807374 <_ZNSt12_Vector_baseISt6vectorISt4pairIifESaIS2_EESaIS4_EE17_Vector_impl_dataC1Ev>:
	_Vector_impl_data() _GLIBCXX_NOEXCEPT
  807374:	defffe04 	addi	sp,sp,-8
  807378:	df000115 	stw	fp,4(sp)
  80737c:	df000104 	addi	fp,sp,4
  807380:	e13fff15 	stw	r4,-4(fp)
	: _M_start(), _M_finish(), _M_end_of_storage()
  807384:	e0bfff17 	ldw	r2,-4(fp)
  807388:	10000015 	stw	zero,0(r2)
  80738c:	e0bfff17 	ldw	r2,-4(fp)
  807390:	10000115 	stw	zero,4(r2)
  807394:	e0bfff17 	ldw	r2,-4(fp)
  807398:	10000215 	stw	zero,8(r2)
	{ }
  80739c:	0001883a 	nop
  8073a0:	e037883a 	mov	sp,fp
  8073a4:	df000017 	ldw	fp,0(sp)
  8073a8:	dec00104 	addi	sp,sp,4
  8073ac:	f800283a 	ret

008073b0 <_ZNSt12_Vector_baseISt6vectorISt4pairIifESaIS2_EESaIS4_EE11_M_allocateEj>:
      _M_allocate(size_t __n)
  8073b0:	defffc04 	addi	sp,sp,-16
  8073b4:	dfc00315 	stw	ra,12(sp)
  8073b8:	df000215 	stw	fp,8(sp)
  8073bc:	df000204 	addi	fp,sp,8
  8073c0:	e13fff15 	stw	r4,-4(fp)
  8073c4:	e17ffe15 	stw	r5,-8(fp)
	return __n != 0 ? _Tr::allocate(_M_impl, __n) : pointer();
  8073c8:	e0bffe17 	ldw	r2,-8(fp)
  8073cc:	10000526 	beq	r2,zero,8073e4 <_ZNSt12_Vector_baseISt6vectorISt4pairIifESaIS2_EESaIS4_EE11_M_allocateEj+0x34>
  8073d0:	e0bfff17 	ldw	r2,-4(fp)
  8073d4:	e17ffe17 	ldw	r5,-8(fp)
  8073d8:	1009883a 	mov	r4,r2
  8073dc:	08078380 	call	807838 <_ZNSt16allocator_traitsISaISt6vectorISt4pairIifESaIS2_EEEE8allocateERS5_j>
  8073e0:	00000106 	br	8073e8 <_ZNSt12_Vector_baseISt6vectorISt4pairIifESaIS2_EESaIS4_EE11_M_allocateEj+0x38>
  8073e4:	0005883a 	mov	r2,zero
      }
  8073e8:	e037883a 	mov	sp,fp
  8073ec:	dfc00117 	ldw	ra,4(sp)
  8073f0:	df000017 	ldw	fp,0(sp)
  8073f4:	dec00204 	addi	sp,sp,8
  8073f8:	f800283a 	ret

008073fc <_ZNSt16allocator_traitsISaISt6vectorISt4pairIifESaIS2_EEEE10deallocateERS5_PS4_j>:
      deallocate(allocator_type& __a, pointer __p, size_type __n)
  8073fc:	defffb04 	addi	sp,sp,-20
  807400:	dfc00415 	stw	ra,16(sp)
  807404:	df000315 	stw	fp,12(sp)
  807408:	df000304 	addi	fp,sp,12
  80740c:	e13fff15 	stw	r4,-4(fp)
  807410:	e17ffe15 	stw	r5,-8(fp)
  807414:	e1bffd15 	stw	r6,-12(fp)
      { __a.deallocate(__p, __n); }
  807418:	e1bffd17 	ldw	r6,-12(fp)
  80741c:	e17ffe17 	ldw	r5,-8(fp)
  807420:	e13fff17 	ldw	r4,-4(fp)
  807424:	08078740 	call	807874 <_ZN9__gnu_cxx13new_allocatorISt6vectorISt4pairIifESaIS3_EEE10deallocateEPS5_j>
  807428:	0001883a 	nop
  80742c:	e037883a 	mov	sp,fp
  807430:	dfc00117 	ldw	ra,4(sp)
  807434:	df000017 	ldw	fp,0(sp)
  807438:	dec00204 	addi	sp,sp,8
  80743c:	f800283a 	ret

00807440 <_ZSt25__uninitialized_default_nIPSt6vectorISt4pairIifESaIS2_EEjET_S6_T0_>:
    __uninitialized_default_n(_ForwardIterator __first, _Size __n)
  807440:	defffb04 	addi	sp,sp,-20
  807444:	dfc00415 	stw	ra,16(sp)
  807448:	df000315 	stw	fp,12(sp)
  80744c:	df000304 	addi	fp,sp,12
  807450:	e13ffe15 	stw	r4,-8(fp)
  807454:	e17ffd15 	stw	r5,-12(fp)
      const bool __assignable = is_copy_assignable<_ValueType>::value;
  807458:	00800044 	movi	r2,1
  80745c:	e0bfffc5 	stb	r2,-1(fp)
	__uninit_default_n(__first, __n);
  807460:	e17ffd17 	ldw	r5,-12(fp)
  807464:	e13ffe17 	ldw	r4,-8(fp)
  807468:	08078c80 	call	8078c8 <_ZNSt27__uninitialized_default_n_1ILb0EE18__uninit_default_nIPSt6vectorISt4pairIifESaIS4_EEjEET_S8_T0_>
    }
  80746c:	e037883a 	mov	sp,fp
  807470:	dfc00117 	ldw	ra,4(sp)
  807474:	df000017 	ldw	fp,0(sp)
  807478:	dec00204 	addi	sp,sp,8
  80747c:	f800283a 	ret

00807480 <_ZNSt12_Destroy_auxILb0EE9__destroyIPSt6vectorISt4pairIifESaIS4_EEEEvT_S8_>:
	__destroy(_ForwardIterator __first, _ForwardIterator __last)
  807480:	defffc04 	addi	sp,sp,-16
  807484:	dfc00315 	stw	ra,12(sp)
  807488:	df000215 	stw	fp,8(sp)
  80748c:	df000204 	addi	fp,sp,8
  807490:	e13fff15 	stw	r4,-4(fp)
  807494:	e17ffe15 	stw	r5,-8(fp)
	  for (; __first != __last; ++__first)
  807498:	e0ffff17 	ldw	r3,-4(fp)
  80749c:	e0bffe17 	ldw	r2,-8(fp)
  8074a0:	18800826 	beq	r3,r2,8074c4 <_ZNSt12_Destroy_auxILb0EE9__destroyIPSt6vectorISt4pairIifESaIS4_EEEEvT_S8_+0x44>
	    std::_Destroy(std::__addressof(*__first));
  8074a4:	e13fff17 	ldw	r4,-4(fp)
  8074a8:	08079340 	call	807934 <_ZSt11__addressofISt6vectorISt4pairIifESaIS2_EEEPT_RS5_>
  8074ac:	1009883a 	mov	r4,r2
  8074b0:	08079580 	call	807958 <_ZSt8_DestroyISt6vectorISt4pairIifESaIS2_EEEvPT_>
	  for (; __first != __last; ++__first)
  8074b4:	e0bfff17 	ldw	r2,-4(fp)
  8074b8:	10800304 	addi	r2,r2,12
  8074bc:	e0bfff15 	stw	r2,-4(fp)
  8074c0:	003ff506 	br	807498 <_ZNSt12_Destroy_auxILb0EE9__destroyIPSt6vectorISt4pairIifESaIS4_EEEEvT_S8_+0x18>
	}
  8074c4:	0001883a 	nop
  8074c8:	e037883a 	mov	sp,fp
  8074cc:	dfc00117 	ldw	ra,4(sp)
  8074d0:	df000017 	ldw	fp,0(sp)
  8074d4:	dec00204 	addi	sp,sp,8
  8074d8:	f800283a 	ret

008074dc <_ZSt19__iterator_categoryIPKSt4pairIifEENSt15iterator_traitsIT_E17iterator_categoryERKS5_>:
   *  sugar for internal library use only.
  */
  template<typename _Iter>
    inline _GLIBCXX_CONSTEXPR
    typename iterator_traits<_Iter>::iterator_category
    __iterator_category(const _Iter&)
  8074dc:	defffe04 	addi	sp,sp,-8
  8074e0:	df000115 	stw	fp,4(sp)
  8074e4:	df000104 	addi	fp,sp,4
  8074e8:	e13fff15 	stw	r4,-4(fp)
    { return typename iterator_traits<_Iter>::iterator_category(); }
  8074ec:	0001883a 	nop
  8074f0:	e037883a 	mov	sp,fp
  8074f4:	df000017 	ldw	fp,0(sp)
  8074f8:	dec00104 	addi	sp,sp,4
  8074fc:	f800283a 	ret

00807500 <_ZSt10__distanceIPKSt4pairIifEENSt15iterator_traitsIT_E15difference_typeES5_S5_St26random_access_iterator_tag>:
    __distance(_RandomAccessIterator __first, _RandomAccessIterator __last,
  807500:	defffc04 	addi	sp,sp,-16
  807504:	df000315 	stw	fp,12(sp)
  807508:	df000304 	addi	fp,sp,12
  80750c:	e13fff15 	stw	r4,-4(fp)
  807510:	e17ffe15 	stw	r5,-8(fp)
  807514:	e1bffdc5 	stb	r6,-9(fp)
      return __last - __first;
  807518:	e0fffe17 	ldw	r3,-8(fp)
  80751c:	e0bfff17 	ldw	r2,-4(fp)
  807520:	1885c83a 	sub	r2,r3,r2
  807524:	1005d0fa 	srai	r2,r2,3
    }
  807528:	e037883a 	mov	sp,fp
  80752c:	df000017 	ldw	fp,0(sp)
  807530:	dec00104 	addi	sp,sp,4
  807534:	f800283a 	ret

00807538 <_ZNSt6vectorISt4pairIifESaIS1_EE11_S_max_sizeERKS2_>:
      _S_max_size(const _Tp_alloc_type& __a) _GLIBCXX_NOEXCEPT
  807538:	defffb04 	addi	sp,sp,-20
  80753c:	dfc00415 	stw	ra,16(sp)
  807540:	df000315 	stw	fp,12(sp)
  807544:	df000304 	addi	fp,sp,12
  807548:	e13ffd15 	stw	r4,-12(fp)
	const size_t __diffmax
  80754c:	00840034 	movhi	r2,4096
  807550:	10bfffc4 	addi	r2,r2,-1
  807554:	e0bfff15 	stw	r2,-4(fp)
	const size_t __allocmax = _Alloc_traits::max_size(__a);
  807558:	e13ffd17 	ldw	r4,-12(fp)
  80755c:	080798c0 	call	80798c <_ZNSt16allocator_traitsISaISt4pairIifEEE8max_sizeERKS2_>
  807560:	e0bffe15 	stw	r2,-8(fp)
	return (std::min)(__diffmax, __allocmax);
  807564:	e0fffe04 	addi	r3,fp,-8
  807568:	e0bfff04 	addi	r2,fp,-4
  80756c:	180b883a 	mov	r5,r3
  807570:	1009883a 	mov	r4,r2
  807574:	08073080 	call	807308 <_ZSt3minIjERKT_S2_S2_>
  807578:	10800017 	ldw	r2,0(r2)
      }
  80757c:	e037883a 	mov	sp,fp
  807580:	dfc00117 	ldw	ra,4(sp)
  807584:	df000017 	ldw	fp,0(sp)
  807588:	dec00204 	addi	sp,sp,8
  80758c:	f800283a 	ret

00807590 <_ZNSaISt4pairIifEEC1ERKS1_>:
      allocator(const allocator& __a) _GLIBCXX_NOTHROW
  807590:	defffc04 	addi	sp,sp,-16
  807594:	dfc00315 	stw	ra,12(sp)
  807598:	df000215 	stw	fp,8(sp)
  80759c:	df000204 	addi	fp,sp,8
  8075a0:	e13fff15 	stw	r4,-4(fp)
  8075a4:	e17ffe15 	stw	r5,-8(fp)
      : __allocator_base<_Tp>(__a) { }
  8075a8:	e17ffe17 	ldw	r5,-8(fp)
  8075ac:	e13fff17 	ldw	r4,-4(fp)
  8075b0:	08079bc0 	call	8079bc <_ZN9__gnu_cxx13new_allocatorISt4pairIifEEC1ERKS3_>
  8075b4:	0001883a 	nop
  8075b8:	e037883a 	mov	sp,fp
  8075bc:	dfc00117 	ldw	ra,4(sp)
  8075c0:	df000017 	ldw	fp,0(sp)
  8075c4:	dec00204 	addi	sp,sp,8
  8075c8:	f800283a 	ret

008075cc <_ZNSaISt4pairIifEED1Ev>:
      ~allocator() _GLIBCXX_NOTHROW { }
  8075cc:	defffd04 	addi	sp,sp,-12
  8075d0:	dfc00215 	stw	ra,8(sp)
  8075d4:	df000115 	stw	fp,4(sp)
  8075d8:	df000104 	addi	fp,sp,4
  8075dc:	e13fff15 	stw	r4,-4(fp)
  8075e0:	e13fff17 	ldw	r4,-4(fp)
  8075e4:	08079e40 	call	8079e4 <_ZN9__gnu_cxx13new_allocatorISt4pairIifEED1Ev>
  8075e8:	0001883a 	nop
  8075ec:	e037883a 	mov	sp,fp
  8075f0:	dfc00117 	ldw	ra,4(sp)
  8075f4:	df000017 	ldw	fp,0(sp)
  8075f8:	dec00204 	addi	sp,sp,8
  8075fc:	f800283a 	ret

00807600 <_ZNSt12_Vector_baseISt4pairIifESaIS1_EE11_M_allocateEj>:
      _M_allocate(size_t __n)
  807600:	defffc04 	addi	sp,sp,-16
  807604:	dfc00315 	stw	ra,12(sp)
  807608:	df000215 	stw	fp,8(sp)
  80760c:	df000204 	addi	fp,sp,8
  807610:	e13fff15 	stw	r4,-4(fp)
  807614:	e17ffe15 	stw	r5,-8(fp)
	return __n != 0 ? _Tr::allocate(_M_impl, __n) : pointer();
  807618:	e0bffe17 	ldw	r2,-8(fp)
  80761c:	10000526 	beq	r2,zero,807634 <_ZNSt12_Vector_baseISt4pairIifESaIS1_EE11_M_allocateEj+0x34>
  807620:	e0bfff17 	ldw	r2,-4(fp)
  807624:	e17ffe17 	ldw	r5,-8(fp)
  807628:	1009883a 	mov	r4,r2
  80762c:	0807a080 	call	807a08 <_ZNSt16allocator_traitsISaISt4pairIifEEE8allocateERS2_j>
  807630:	00000106 	br	807638 <_ZNSt12_Vector_baseISt4pairIifESaIS1_EE11_M_allocateEj+0x38>
  807634:	0005883a 	mov	r2,zero
      }
  807638:	e037883a 	mov	sp,fp
  80763c:	dfc00117 	ldw	ra,4(sp)
  807640:	df000017 	ldw	fp,0(sp)
  807644:	dec00204 	addi	sp,sp,8
  807648:	f800283a 	ret

0080764c <_ZSt8_DestroyIPSt4pairIifEEvT_S3_>:
    _Destroy(_ForwardIterator __first, _ForwardIterator __last)
  80764c:	defffc04 	addi	sp,sp,-16
  807650:	dfc00315 	stw	ra,12(sp)
  807654:	df000215 	stw	fp,8(sp)
  807658:	df000204 	addi	fp,sp,8
  80765c:	e13fff15 	stw	r4,-4(fp)
  807660:	e17ffe15 	stw	r5,-8(fp)
	__destroy(__first, __last);
  807664:	e17ffe17 	ldw	r5,-8(fp)
  807668:	e13fff17 	ldw	r4,-4(fp)
  80766c:	0807a440 	call	807a44 <_ZNSt12_Destroy_auxILb1EE9__destroyIPSt4pairIifEEEvT_S5_>
    }
  807670:	0001883a 	nop
  807674:	e037883a 	mov	sp,fp
  807678:	dfc00117 	ldw	ra,4(sp)
  80767c:	df000017 	ldw	fp,0(sp)
  807680:	dec00204 	addi	sp,sp,8
  807684:	f800283a 	ret

00807688 <_ZNSt16allocator_traitsISaISt4pairIifEEE10deallocateERS2_PS1_j>:
      deallocate(allocator_type& __a, pointer __p, size_type __n)
  807688:	defffb04 	addi	sp,sp,-20
  80768c:	dfc00415 	stw	ra,16(sp)
  807690:	df000315 	stw	fp,12(sp)
  807694:	df000304 	addi	fp,sp,12
  807698:	e13fff15 	stw	r4,-4(fp)
  80769c:	e17ffe15 	stw	r5,-8(fp)
  8076a0:	e1bffd15 	stw	r6,-12(fp)
      { __a.deallocate(__p, __n); }
  8076a4:	e1bffd17 	ldw	r6,-12(fp)
  8076a8:	e17ffe17 	ldw	r5,-8(fp)
  8076ac:	e13fff17 	ldw	r4,-4(fp)
  8076b0:	0807a6c0 	call	807a6c <_ZN9__gnu_cxx13new_allocatorISt4pairIifEE10deallocateEPS2_j>
  8076b4:	0001883a 	nop
  8076b8:	e037883a 	mov	sp,fp
  8076bc:	dfc00117 	ldw	ra,4(sp)
  8076c0:	df000017 	ldw	fp,0(sp)
  8076c4:	dec00204 	addi	sp,sp,8
  8076c8:	f800283a 	ret

008076cc <_ZSt12__miter_baseIPKSt4pairIifEET_S4_>:
  // Fallback implementation of the function in bits/stl_iterator.h used to
  // remove the move_iterator wrapper.
  template<typename _Iterator>
    _GLIBCXX20_CONSTEXPR
    inline _Iterator
    __miter_base(_Iterator __it)
  8076cc:	defffe04 	addi	sp,sp,-8
  8076d0:	df000115 	stw	fp,4(sp)
  8076d4:	df000104 	addi	fp,sp,4
  8076d8:	e13fff15 	stw	r4,-4(fp)
    { return __it; }
  8076dc:	e0bfff17 	ldw	r2,-4(fp)
  8076e0:	e037883a 	mov	sp,fp
  8076e4:	df000017 	ldw	fp,0(sp)
  8076e8:	dec00104 	addi	sp,sp,4
  8076ec:	f800283a 	ret

008076f0 <_ZSt13__copy_move_aILb0EPKSt4pairIifEPS1_ET1_T0_S6_S5_>:
    __copy_move_a(_II __first, _II __last, _OI __result)
  8076f0:	defff904 	addi	sp,sp,-28
  8076f4:	dfc00615 	stw	ra,24(sp)
  8076f8:	df000515 	stw	fp,20(sp)
  8076fc:	dc400415 	stw	r17,16(sp)
  807700:	dc000315 	stw	r16,12(sp)
  807704:	df000504 	addi	fp,sp,20
  807708:	e13ffd15 	stw	r4,-12(fp)
  80770c:	e17ffc15 	stw	r5,-16(fp)
  807710:	e1bffb15 	stw	r6,-20(fp)
      return std::__niter_wrap(__result,
  807714:	e13ffd17 	ldw	r4,-12(fp)
  807718:	0807ab40 	call	807ab4 <_ZSt12__niter_baseIPKSt4pairIifEET_S4_>
  80771c:	1021883a 	mov	r16,r2
  807720:	e13ffc17 	ldw	r4,-16(fp)
  807724:	0807ab40 	call	807ab4 <_ZSt12__niter_baseIPKSt4pairIifEET_S4_>
  807728:	1023883a 	mov	r17,r2
  80772c:	e0bffb17 	ldw	r2,-20(fp)
  807730:	1009883a 	mov	r4,r2
  807734:	0807ad80 	call	807ad8 <_ZSt12__niter_baseIPSt4pairIifEET_S3_>
  807738:	100d883a 	mov	r6,r2
  80773c:	880b883a 	mov	r5,r17
  807740:	8009883a 	mov	r4,r16
  807744:	0807afc0 	call	807afc <_ZSt14__copy_move_a1ILb0EPKSt4pairIifEPS1_ET1_T0_S6_S5_>
  807748:	1007883a 	mov	r3,r2
  80774c:	e0bffb04 	addi	r2,fp,-20
  807750:	180b883a 	mov	r5,r3
  807754:	1009883a 	mov	r4,r2
  807758:	0807b3c0 	call	807b3c <_ZSt12__niter_wrapIPSt4pairIifEET_RKS3_S3_>
    }
  80775c:	e6fffe04 	addi	sp,fp,-8
  807760:	dfc00317 	ldw	ra,12(sp)
  807764:	df000217 	ldw	fp,8(sp)
  807768:	dc400117 	ldw	r17,4(sp)
  80776c:	dc000017 	ldw	r16,0(sp)
  807770:	dec00404 	addi	sp,sp,16
  807774:	f800283a 	ret

00807778 <_ZSt9__advanceIPKSt4pairIifEiEvRT_T0_St26random_access_iterator_tag>:
    __advance(_RandomAccessIterator& __i, _Distance __n,
  807778:	defffc04 	addi	sp,sp,-16
  80777c:	df000315 	stw	fp,12(sp)
  807780:	df000304 	addi	fp,sp,12
  807784:	e13fff15 	stw	r4,-4(fp)
  807788:	e17ffe15 	stw	r5,-8(fp)
  80778c:	e1bffdc5 	stb	r6,-9(fp)
	__i += __n;
  807790:	e0bfff17 	ldw	r2,-4(fp)
  807794:	10c00017 	ldw	r3,0(r2)
  807798:	e0bffe17 	ldw	r2,-8(fp)
  80779c:	100490fa 	slli	r2,r2,3
  8077a0:	1887883a 	add	r3,r3,r2
  8077a4:	e0bfff17 	ldw	r2,-4(fp)
  8077a8:	10c00015 	stw	r3,0(r2)
    }
  8077ac:	0001883a 	nop
  8077b0:	e037883a 	mov	sp,fp
  8077b4:	df000017 	ldw	fp,0(sp)
  8077b8:	dec00104 	addi	sp,sp,4
  8077bc:	f800283a 	ret

008077c0 <_ZSt18uninitialized_copyIPKSt4pairIifEPS1_ET0_T_S6_S5_>:
    uninitialized_copy(_InputIterator __first, _InputIterator __last,
  8077c0:	defffa04 	addi	sp,sp,-24
  8077c4:	dfc00515 	stw	ra,20(sp)
  8077c8:	df000415 	stw	fp,16(sp)
  8077cc:	df000404 	addi	fp,sp,16
  8077d0:	e13ffe15 	stw	r4,-8(fp)
  8077d4:	e17ffd15 	stw	r5,-12(fp)
  8077d8:	e1bffc15 	stw	r6,-16(fp)
      const bool __assignable = is_assignable<_RefType2, _RefType1>::value;
  8077dc:	00800044 	movi	r2,1
  8077e0:	e0bfffc5 	stb	r2,-1(fp)
	__uninit_copy(__first, __last, __result);
  8077e4:	e1bffc17 	ldw	r6,-16(fp)
  8077e8:	e17ffd17 	ldw	r5,-12(fp)
  8077ec:	e13ffe17 	ldw	r4,-8(fp)
  8077f0:	0807b640 	call	807b64 <_ZNSt20__uninitialized_copyILb0EE13__uninit_copyIPKSt4pairIifEPS3_EET0_T_S8_S7_>
    }
  8077f4:	e037883a 	mov	sp,fp
  8077f8:	dfc00117 	ldw	ra,4(sp)
  8077fc:	df000017 	ldw	fp,0(sp)
  807800:	dec00204 	addi	sp,sp,8
  807804:	f800283a 	ret

00807808 <_ZNK9__gnu_cxx13new_allocatorISt6vectorISt4pairIifESaIS3_EEE8max_sizeEv>:
			 );
      }

#if __cplusplus <= 201703L
      size_type
      max_size() const _GLIBCXX_USE_NOEXCEPT
  807808:	defffd04 	addi	sp,sp,-12
  80780c:	dfc00215 	stw	ra,8(sp)
  807810:	df000115 	stw	fp,4(sp)
  807814:	df000104 	addi	fp,sp,4
  807818:	e13fff15 	stw	r4,-4(fp)
      { return _M_max_size(); }
  80781c:	e13fff17 	ldw	r4,-4(fp)
  807820:	0807bdc0 	call	807bdc <_ZNK9__gnu_cxx13new_allocatorISt6vectorISt4pairIifESaIS3_EEE11_M_max_sizeEv>
  807824:	e037883a 	mov	sp,fp
  807828:	dfc00117 	ldw	ra,4(sp)
  80782c:	df000017 	ldw	fp,0(sp)
  807830:	dec00204 	addi	sp,sp,8
  807834:	f800283a 	ret

00807838 <_ZNSt16allocator_traitsISaISt6vectorISt4pairIifESaIS2_EEEE8allocateERS5_j>:
      allocate(allocator_type& __a, size_type __n)
  807838:	defffc04 	addi	sp,sp,-16
  80783c:	dfc00315 	stw	ra,12(sp)
  807840:	df000215 	stw	fp,8(sp)
  807844:	df000204 	addi	fp,sp,8
  807848:	e13fff15 	stw	r4,-4(fp)
  80784c:	e17ffe15 	stw	r5,-8(fp)
      { return __a.allocate(__n); }
  807850:	000d883a 	mov	r6,zero
  807854:	e17ffe17 	ldw	r5,-8(fp)
  807858:	e13fff17 	ldw	r4,-4(fp)
  80785c:	0807c040 	call	807c04 <_ZN9__gnu_cxx13new_allocatorISt6vectorISt4pairIifESaIS3_EEE8allocateEjPKv>
  807860:	e037883a 	mov	sp,fp
  807864:	dfc00117 	ldw	ra,4(sp)
  807868:	df000017 	ldw	fp,0(sp)
  80786c:	dec00204 	addi	sp,sp,8
  807870:	f800283a 	ret

00807874 <_ZN9__gnu_cxx13new_allocatorISt6vectorISt4pairIifESaIS3_EEE10deallocateEPS5_j>:
      deallocate(_Tp* __p, size_type __t)
  807874:	defffb04 	addi	sp,sp,-20
  807878:	dfc00415 	stw	ra,16(sp)
  80787c:	df000315 	stw	fp,12(sp)
  807880:	df000304 	addi	fp,sp,12
  807884:	e13fff15 	stw	r4,-4(fp)
  807888:	e17ffe15 	stw	r5,-8(fp)
  80788c:	e1bffd15 	stw	r6,-12(fp)
	::operator delete(__p
  807890:	e0fffd17 	ldw	r3,-12(fp)
  807894:	1805883a 	mov	r2,r3
  807898:	1085883a 	add	r2,r2,r2
  80789c:	10c5883a 	add	r2,r2,r3
  8078a0:	100490ba 	slli	r2,r2,2
  8078a4:	100b883a 	mov	r5,r2
  8078a8:	e13ffe17 	ldw	r4,-8(fp)
  8078ac:	08081ec0 	call	8081ec <_ZdlPvj>
      }
  8078b0:	0001883a 	nop
  8078b4:	e037883a 	mov	sp,fp
  8078b8:	dfc00117 	ldw	ra,4(sp)
  8078bc:	df000017 	ldw	fp,0(sp)
  8078c0:	dec00204 	addi	sp,sp,8
  8078c4:	f800283a 	ret

008078c8 <_ZNSt27__uninitialized_default_n_1ILb0EE18__uninit_default_nIPSt6vectorISt4pairIifESaIS4_EEjEET_S8_T0_>:
        __uninit_default_n(_ForwardIterator __first, _Size __n)
  8078c8:	defffb04 	addi	sp,sp,-20
  8078cc:	dfc00415 	stw	ra,16(sp)
  8078d0:	df000315 	stw	fp,12(sp)
  8078d4:	df000304 	addi	fp,sp,12
  8078d8:	e13ffe15 	stw	r4,-8(fp)
  8078dc:	e17ffd15 	stw	r5,-12(fp)
	  _ForwardIterator __cur = __first;
  8078e0:	e0bffe17 	ldw	r2,-8(fp)
  8078e4:	e0bfff15 	stw	r2,-4(fp)
	      for (; __n > 0; --__n, (void) ++__cur)
  8078e8:	e0bffd17 	ldw	r2,-12(fp)
  8078ec:	10000b26 	beq	r2,zero,80791c <_ZNSt27__uninitialized_default_n_1ILb0EE18__uninit_default_nIPSt6vectorISt4pairIifESaIS4_EEjEET_S8_T0_+0x54>
		std::_Construct(std::__addressof(*__cur));
  8078f0:	e13fff17 	ldw	r4,-4(fp)
  8078f4:	08079340 	call	807934 <_ZSt11__addressofISt6vectorISt4pairIifESaIS2_EEEPT_RS5_>
  8078f8:	1009883a 	mov	r4,r2
  8078fc:	0807d140 	call	807d14 <_ZSt10_ConstructISt6vectorISt4pairIifESaIS2_EEJEEvPT_DpOT0_>
	      for (; __n > 0; --__n, (void) ++__cur)
  807900:	e0bffd17 	ldw	r2,-12(fp)
  807904:	10bfffc4 	addi	r2,r2,-1
  807908:	e0bffd15 	stw	r2,-12(fp)
  80790c:	e0bfff17 	ldw	r2,-4(fp)
  807910:	10800304 	addi	r2,r2,12
  807914:	e0bfff15 	stw	r2,-4(fp)
  807918:	003ff306 	br	8078e8 <_ZNSt27__uninitialized_default_n_1ILb0EE18__uninit_default_nIPSt6vectorISt4pairIifESaIS4_EEjEET_S8_T0_+0x20>
	      return __cur;
  80791c:	e0bfff17 	ldw	r2,-4(fp)
	}
  807920:	e037883a 	mov	sp,fp
  807924:	dfc00117 	ldw	ra,4(sp)
  807928:	df000017 	ldw	fp,0(sp)
  80792c:	dec00204 	addi	sp,sp,8
  807930:	f800283a 	ret

00807934 <_ZSt11__addressofISt6vectorISt4pairIifESaIS2_EEEPT_RS5_>:
   *  @brief Same as C++11 std::addressof
   *  @ingroup utilities
   */
  template<typename _Tp>
    inline _GLIBCXX_CONSTEXPR _Tp*
    __addressof(_Tp& __r) _GLIBCXX_NOEXCEPT
  807934:	defffe04 	addi	sp,sp,-8
  807938:	df000115 	stw	fp,4(sp)
  80793c:	df000104 	addi	fp,sp,4
  807940:	e13fff15 	stw	r4,-4(fp)
    { return __builtin_addressof(__r); }
  807944:	e0bfff17 	ldw	r2,-4(fp)
  807948:	e037883a 	mov	sp,fp
  80794c:	df000017 	ldw	fp,0(sp)
  807950:	dec00104 	addi	sp,sp,4
  807954:	f800283a 	ret

00807958 <_ZSt8_DestroyISt6vectorISt4pairIifESaIS2_EEEvPT_>:
    _Destroy(_Tp* __pointer)
  807958:	defffd04 	addi	sp,sp,-12
  80795c:	dfc00215 	stw	ra,8(sp)
  807960:	df000115 	stw	fp,4(sp)
  807964:	df000104 	addi	fp,sp,4
  807968:	e13fff15 	stw	r4,-4(fp)
      __pointer->~_Tp();
  80796c:	e13fff17 	ldw	r4,-4(fp)
  807970:	0807d640 	call	807d64 <_ZNSt6vectorISt4pairIifESaIS1_EED1Ev>
    }
  807974:	0001883a 	nop
  807978:	e037883a 	mov	sp,fp
  80797c:	dfc00117 	ldw	ra,4(sp)
  807980:	df000017 	ldw	fp,0(sp)
  807984:	dec00204 	addi	sp,sp,8
  807988:	f800283a 	ret

0080798c <_ZNSt16allocator_traitsISaISt4pairIifEEE8max_sizeERKS2_>:
      max_size(const allocator_type& __a __attribute__((__unused__))) noexcept
  80798c:	defffd04 	addi	sp,sp,-12
  807990:	dfc00215 	stw	ra,8(sp)
  807994:	df000115 	stw	fp,4(sp)
  807998:	df000104 	addi	fp,sp,4
  80799c:	e13fff15 	stw	r4,-4(fp)
	return __a.max_size();
  8079a0:	e13fff17 	ldw	r4,-4(fp)
  8079a4:	0807e0c0 	call	807e0c <_ZNK9__gnu_cxx13new_allocatorISt4pairIifEE8max_sizeEv>
      }
  8079a8:	e037883a 	mov	sp,fp
  8079ac:	dfc00117 	ldw	ra,4(sp)
  8079b0:	df000017 	ldw	fp,0(sp)
  8079b4:	dec00204 	addi	sp,sp,8
  8079b8:	f800283a 	ret

008079bc <_ZN9__gnu_cxx13new_allocatorISt4pairIifEEC1ERKS3_>:
      new_allocator(const new_allocator&) _GLIBCXX_USE_NOEXCEPT { }
  8079bc:	defffd04 	addi	sp,sp,-12
  8079c0:	df000215 	stw	fp,8(sp)
  8079c4:	df000204 	addi	fp,sp,8
  8079c8:	e13fff15 	stw	r4,-4(fp)
  8079cc:	e17ffe15 	stw	r5,-8(fp)
  8079d0:	0001883a 	nop
  8079d4:	e037883a 	mov	sp,fp
  8079d8:	df000017 	ldw	fp,0(sp)
  8079dc:	dec00104 	addi	sp,sp,4
  8079e0:	f800283a 	ret

008079e4 <_ZN9__gnu_cxx13new_allocatorISt4pairIifEED1Ev>:
      ~new_allocator() _GLIBCXX_USE_NOEXCEPT { }
  8079e4:	defffe04 	addi	sp,sp,-8
  8079e8:	df000115 	stw	fp,4(sp)
  8079ec:	df000104 	addi	fp,sp,4
  8079f0:	e13fff15 	stw	r4,-4(fp)
  8079f4:	0001883a 	nop
  8079f8:	e037883a 	mov	sp,fp
  8079fc:	df000017 	ldw	fp,0(sp)
  807a00:	dec00104 	addi	sp,sp,4
  807a04:	f800283a 	ret

00807a08 <_ZNSt16allocator_traitsISaISt4pairIifEEE8allocateERS2_j>:
      allocate(allocator_type& __a, size_type __n)
  807a08:	defffc04 	addi	sp,sp,-16
  807a0c:	dfc00315 	stw	ra,12(sp)
  807a10:	df000215 	stw	fp,8(sp)
  807a14:	df000204 	addi	fp,sp,8
  807a18:	e13fff15 	stw	r4,-4(fp)
  807a1c:	e17ffe15 	stw	r5,-8(fp)
      { return __a.allocate(__n); }
  807a20:	000d883a 	mov	r6,zero
  807a24:	e17ffe17 	ldw	r5,-8(fp)
  807a28:	e13fff17 	ldw	r4,-4(fp)
  807a2c:	0807e3c0 	call	807e3c <_ZN9__gnu_cxx13new_allocatorISt4pairIifEE8allocateEjPKv>
  807a30:	e037883a 	mov	sp,fp
  807a34:	dfc00117 	ldw	ra,4(sp)
  807a38:	df000017 	ldw	fp,0(sp)
  807a3c:	dec00204 	addi	sp,sp,8
  807a40:	f800283a 	ret

00807a44 <_ZNSt12_Destroy_auxILb1EE9__destroyIPSt4pairIifEEEvT_S5_>:
        __destroy(_ForwardIterator, _ForwardIterator) { }
  807a44:	defffd04 	addi	sp,sp,-12
  807a48:	df000215 	stw	fp,8(sp)
  807a4c:	df000204 	addi	fp,sp,8
  807a50:	e13fff15 	stw	r4,-4(fp)
  807a54:	e17ffe15 	stw	r5,-8(fp)
  807a58:	0001883a 	nop
  807a5c:	e037883a 	mov	sp,fp
  807a60:	df000017 	ldw	fp,0(sp)
  807a64:	dec00104 	addi	sp,sp,4
  807a68:	f800283a 	ret

00807a6c <_ZN9__gnu_cxx13new_allocatorISt4pairIifEE10deallocateEPS2_j>:
      deallocate(_Tp* __p, size_type __t)
  807a6c:	defffb04 	addi	sp,sp,-20
  807a70:	dfc00415 	stw	ra,16(sp)
  807a74:	df000315 	stw	fp,12(sp)
  807a78:	df000304 	addi	fp,sp,12
  807a7c:	e13fff15 	stw	r4,-4(fp)
  807a80:	e17ffe15 	stw	r5,-8(fp)
  807a84:	e1bffd15 	stw	r6,-12(fp)
	::operator delete(__p
  807a88:	e0bffd17 	ldw	r2,-12(fp)
  807a8c:	100490fa 	slli	r2,r2,3
  807a90:	100b883a 	mov	r5,r2
  807a94:	e13ffe17 	ldw	r4,-8(fp)
  807a98:	08081ec0 	call	8081ec <_ZdlPvj>
      }
  807a9c:	0001883a 	nop
  807aa0:	e037883a 	mov	sp,fp
  807aa4:	dfc00117 	ldw	ra,4(sp)
  807aa8:	df000017 	ldw	fp,0(sp)
  807aac:	dec00204 	addi	sp,sp,8
  807ab0:	f800283a 	ret

00807ab4 <_ZSt12__niter_baseIPKSt4pairIifEET_S4_>:
    __niter_base(_Iterator __it)
  807ab4:	defffe04 	addi	sp,sp,-8
  807ab8:	df000115 	stw	fp,4(sp)
  807abc:	df000104 	addi	fp,sp,4
  807ac0:	e13fff15 	stw	r4,-4(fp)
    { return __it; }
  807ac4:	e0bfff17 	ldw	r2,-4(fp)
  807ac8:	e037883a 	mov	sp,fp
  807acc:	df000017 	ldw	fp,0(sp)
  807ad0:	dec00104 	addi	sp,sp,4
  807ad4:	f800283a 	ret

00807ad8 <_ZSt12__niter_baseIPSt4pairIifEET_S3_>:
    __niter_base(_Iterator __it)
  807ad8:	defffe04 	addi	sp,sp,-8
  807adc:	df000115 	stw	fp,4(sp)
  807ae0:	df000104 	addi	fp,sp,4
  807ae4:	e13fff15 	stw	r4,-4(fp)
    { return __it; }
  807ae8:	e0bfff17 	ldw	r2,-4(fp)
  807aec:	e037883a 	mov	sp,fp
  807af0:	df000017 	ldw	fp,0(sp)
  807af4:	dec00104 	addi	sp,sp,4
  807af8:	f800283a 	ret

00807afc <_ZSt14__copy_move_a1ILb0EPKSt4pairIifEPS1_ET1_T0_S6_S5_>:
    __copy_move_a1(_II __first, _II __last, _OI __result)
  807afc:	defffb04 	addi	sp,sp,-20
  807b00:	dfc00415 	stw	ra,16(sp)
  807b04:	df000315 	stw	fp,12(sp)
  807b08:	df000304 	addi	fp,sp,12
  807b0c:	e13fff15 	stw	r4,-4(fp)
  807b10:	e17ffe15 	stw	r5,-8(fp)
  807b14:	e1bffd15 	stw	r6,-12(fp)
    { return std::__copy_move_a2<_IsMove>(__first, __last, __result); }
  807b18:	e1bffd17 	ldw	r6,-12(fp)
  807b1c:	e17ffe17 	ldw	r5,-8(fp)
  807b20:	e13fff17 	ldw	r4,-4(fp)
  807b24:	0807e9c0 	call	807e9c <_ZSt14__copy_move_a2ILb0EPKSt4pairIifEPS1_ET1_T0_S6_S5_>
  807b28:	e037883a 	mov	sp,fp
  807b2c:	dfc00117 	ldw	ra,4(sp)
  807b30:	df000017 	ldw	fp,0(sp)
  807b34:	dec00204 	addi	sp,sp,8
  807b38:	f800283a 	ret

00807b3c <_ZSt12__niter_wrapIPSt4pairIifEET_RKS3_S3_>:
    __niter_wrap(const _Iterator&, _Iterator __res)
  807b3c:	defffd04 	addi	sp,sp,-12
  807b40:	df000215 	stw	fp,8(sp)
  807b44:	df000204 	addi	fp,sp,8
  807b48:	e13fff15 	stw	r4,-4(fp)
  807b4c:	e17ffe15 	stw	r5,-8(fp)
    { return __res; }
  807b50:	e0bffe17 	ldw	r2,-8(fp)
  807b54:	e037883a 	mov	sp,fp
  807b58:	df000017 	ldw	fp,0(sp)
  807b5c:	dec00104 	addi	sp,sp,4
  807b60:	f800283a 	ret

00807b64 <_ZNSt20__uninitialized_copyILb0EE13__uninit_copyIPKSt4pairIifEPS3_EET0_T_S8_S7_>:
        __uninit_copy(_InputIterator __first, _InputIterator __last,
  807b64:	defffa04 	addi	sp,sp,-24
  807b68:	dfc00515 	stw	ra,20(sp)
  807b6c:	df000415 	stw	fp,16(sp)
  807b70:	df000404 	addi	fp,sp,16
  807b74:	e13ffe15 	stw	r4,-8(fp)
  807b78:	e17ffd15 	stw	r5,-12(fp)
  807b7c:	e1bffc15 	stw	r6,-16(fp)
	  _ForwardIterator __cur = __result;
  807b80:	e0bffc17 	ldw	r2,-16(fp)
  807b84:	e0bfff15 	stw	r2,-4(fp)
	      for (; __first != __last; ++__first, (void)++__cur)
  807b88:	e0fffe17 	ldw	r3,-8(fp)
  807b8c:	e0bffd17 	ldw	r2,-12(fp)
  807b90:	18800c26 	beq	r3,r2,807bc4 <_ZNSt20__uninitialized_copyILb0EE13__uninit_copyIPKSt4pairIifEPS3_EET0_T_S8_S7_+0x60>
		std::_Construct(std::__addressof(*__cur), *__first);
  807b94:	e13fff17 	ldw	r4,-4(fp)
  807b98:	0807edc0 	call	807edc <_ZSt11__addressofISt4pairIifEEPT_RS2_>
  807b9c:	e17ffe17 	ldw	r5,-8(fp)
  807ba0:	1009883a 	mov	r4,r2
  807ba4:	0807f000 	call	807f00 <_ZSt10_ConstructISt4pairIifEJRKS1_EEvPT_DpOT0_>
	      for (; __first != __last; ++__first, (void)++__cur)
  807ba8:	e0bffe17 	ldw	r2,-8(fp)
  807bac:	10800204 	addi	r2,r2,8
  807bb0:	e0bffe15 	stw	r2,-8(fp)
  807bb4:	e0bfff17 	ldw	r2,-4(fp)
  807bb8:	10800204 	addi	r2,r2,8
  807bbc:	e0bfff15 	stw	r2,-4(fp)
  807bc0:	003ff106 	br	807b88 <_ZNSt20__uninitialized_copyILb0EE13__uninit_copyIPKSt4pairIifEPS3_EET0_T_S8_S7_+0x24>
	      return __cur;
  807bc4:	e0bfff17 	ldw	r2,-4(fp)
	}
  807bc8:	e037883a 	mov	sp,fp
  807bcc:	dfc00117 	ldw	ra,4(sp)
  807bd0:	df000017 	ldw	fp,0(sp)
  807bd4:	dec00204 	addi	sp,sp,8
  807bd8:	f800283a 	ret

00807bdc <_ZNK9__gnu_cxx13new_allocatorISt6vectorISt4pairIifESaIS3_EEE11_M_max_sizeEv>:
	{ return false; }
#endif

    private:
      _GLIBCXX_CONSTEXPR size_type
      _M_max_size() const _GLIBCXX_USE_NOEXCEPT
  807bdc:	defffe04 	addi	sp,sp,-8
  807be0:	df000115 	stw	fp,4(sp)
  807be4:	df000104 	addi	fp,sp,4
  807be8:	e13fff15 	stw	r4,-4(fp)
      {
#if __PTRDIFF_MAX__ < __SIZE_MAX__
	return std::size_t(__PTRDIFF_MAX__) / sizeof(_Tp);
  807bec:	0082aaf4 	movhi	r2,2731
  807bf0:	10aaaa84 	addi	r2,r2,-21846
#else
	return std::size_t(-1) / sizeof(_Tp);
#endif
      }
  807bf4:	e037883a 	mov	sp,fp
  807bf8:	df000017 	ldw	fp,0(sp)
  807bfc:	dec00104 	addi	sp,sp,4
  807c00:	f800283a 	ret

00807c04 <_ZN9__gnu_cxx13new_allocatorISt6vectorISt4pairIifESaIS3_EEE8allocateEjPKv>:
      allocate(size_type __n, const void* = static_cast<const void*>(0))
  807c04:	defffb04 	addi	sp,sp,-20
  807c08:	dfc00415 	stw	ra,16(sp)
  807c0c:	df000315 	stw	fp,12(sp)
  807c10:	df000304 	addi	fp,sp,12
  807c14:	e13fff15 	stw	r4,-4(fp)
  807c18:	e17ffe15 	stw	r5,-8(fp)
  807c1c:	e1bffd15 	stw	r6,-12(fp)
	if (__n > this->_M_max_size())
  807c20:	e13fff17 	ldw	r4,-4(fp)
  807c24:	0807bdc0 	call	807bdc <_ZNK9__gnu_cxx13new_allocatorISt6vectorISt4pairIifESaIS3_EEE11_M_max_sizeEv>
  807c28:	1007883a 	mov	r3,r2
  807c2c:	e0bffe17 	ldw	r2,-8(fp)
  807c30:	1885803a 	cmpltu	r2,r3,r2
  807c34:	10803fcc 	andi	r2,r2,255
  807c38:	10000126 	beq	r2,zero,807c40 <_ZN9__gnu_cxx13new_allocatorISt6vectorISt4pairIifESaIS3_EEE8allocateEjPKv+0x3c>
	  std::__throw_bad_alloc();
  807c3c:	08094a40 	call	8094a4 <_ZSt17__throw_bad_allocv>
	return static_cast<_Tp*>(::operator new(__n * sizeof(_Tp)));
  807c40:	e0fffe17 	ldw	r3,-8(fp)
  807c44:	1805883a 	mov	r2,r3
  807c48:	1085883a 	add	r2,r2,r2
  807c4c:	10c5883a 	add	r2,r2,r3
  807c50:	100490ba 	slli	r2,r2,2
  807c54:	1009883a 	mov	r4,r2
  807c58:	08094000 	call	809400 <_Znwj>
      }
  807c5c:	e037883a 	mov	sp,fp
  807c60:	dfc00117 	ldw	ra,4(sp)
  807c64:	df000017 	ldw	fp,0(sp)
  807c68:	dec00204 	addi	sp,sp,8
  807c6c:	f800283a 	ret

00807c70 <_ZNSt12_Vector_baseISt4pairIifESaIS1_EE12_Vector_implD1Ev>:
      struct _Vector_impl
  807c70:	defffd04 	addi	sp,sp,-12
  807c74:	dfc00215 	stw	ra,8(sp)
  807c78:	df000115 	stw	fp,4(sp)
  807c7c:	df000104 	addi	fp,sp,4
  807c80:	e13fff15 	stw	r4,-4(fp)
  807c84:	e13fff17 	ldw	r4,-4(fp)
  807c88:	08075cc0 	call	8075cc <_ZNSaISt4pairIifEED1Ev>
  807c8c:	0001883a 	nop
  807c90:	e037883a 	mov	sp,fp
  807c94:	dfc00117 	ldw	ra,4(sp)
  807c98:	df000017 	ldw	fp,0(sp)
  807c9c:	dec00204 	addi	sp,sp,8
  807ca0:	f800283a 	ret

00807ca4 <_ZNSt12_Vector_baseISt4pairIifESaIS1_EEC1Ev>:
      _Vector_base() = default;
  807ca4:	defffd04 	addi	sp,sp,-12
  807ca8:	dfc00215 	stw	ra,8(sp)
  807cac:	df000115 	stw	fp,4(sp)
  807cb0:	df000104 	addi	fp,sp,4
  807cb4:	e13fff15 	stw	r4,-4(fp)
  807cb8:	e0bfff17 	ldw	r2,-4(fp)
  807cbc:	1009883a 	mov	r4,r2
  807cc0:	0807f640 	call	807f64 <_ZNSt12_Vector_baseISt4pairIifESaIS1_EE12_Vector_implC1Ev>
  807cc4:	0001883a 	nop
  807cc8:	e037883a 	mov	sp,fp
  807ccc:	dfc00117 	ldw	ra,4(sp)
  807cd0:	df000017 	ldw	fp,0(sp)
  807cd4:	dec00204 	addi	sp,sp,8
  807cd8:	f800283a 	ret

00807cdc <_ZNSt6vectorISt4pairIifESaIS1_EEC1Ev>:
      vector() = default;
  807cdc:	defffd04 	addi	sp,sp,-12
  807ce0:	dfc00215 	stw	ra,8(sp)
  807ce4:	df000115 	stw	fp,4(sp)
  807ce8:	df000104 	addi	fp,sp,4
  807cec:	e13fff15 	stw	r4,-4(fp)
  807cf0:	e0bfff17 	ldw	r2,-4(fp)
  807cf4:	1009883a 	mov	r4,r2
  807cf8:	0807ca40 	call	807ca4 <_ZNSt12_Vector_baseISt4pairIifESaIS1_EEC1Ev>
  807cfc:	0001883a 	nop
  807d00:	e037883a 	mov	sp,fp
  807d04:	dfc00117 	ldw	ra,4(sp)
  807d08:	df000017 	ldw	fp,0(sp)
  807d0c:	dec00204 	addi	sp,sp,8
  807d10:	f800283a 	ret

00807d14 <_ZSt10_ConstructISt6vectorISt4pairIifESaIS2_EEJEEvPT_DpOT0_>:
    _Construct(_Tp* __p, _Args&&... __args)
  807d14:	defffd04 	addi	sp,sp,-12
  807d18:	dfc00215 	stw	ra,8(sp)
  807d1c:	df000115 	stw	fp,4(sp)
  807d20:	df000104 	addi	fp,sp,4
  807d24:	e13fff15 	stw	r4,-4(fp)
    { ::new(static_cast<void*>(__p)) _Tp(std::forward<_Args>(__args)...); }
  807d28:	e0bfff17 	ldw	r2,-4(fp)
  807d2c:	100b883a 	mov	r5,r2
  807d30:	01000304 	movi	r4,12
  807d34:	08060b00 	call	8060b0 <_ZnwjPv>
  807d38:	10000015 	stw	zero,0(r2)
  807d3c:	10000115 	stw	zero,4(r2)
  807d40:	10000215 	stw	zero,8(r2)
  807d44:	1009883a 	mov	r4,r2
  807d48:	0807cdc0 	call	807cdc <_ZNSt6vectorISt4pairIifESaIS1_EEC1Ev>
  807d4c:	0001883a 	nop
  807d50:	e037883a 	mov	sp,fp
  807d54:	dfc00117 	ldw	ra,4(sp)
  807d58:	df000017 	ldw	fp,0(sp)
  807d5c:	dec00204 	addi	sp,sp,8
  807d60:	f800283a 	ret

00807d64 <_ZNSt6vectorISt4pairIifESaIS1_EED1Ev>:
      ~vector() _GLIBCXX_NOEXCEPT
  807d64:	deffee04 	addi	sp,sp,-72
  807d68:	dfc01115 	stw	ra,68(sp)
  807d6c:	df001015 	stw	fp,64(sp)
  807d70:	dc400f15 	stw	r17,60(sp)
  807d74:	dc000e15 	stw	r16,56(sp)
  807d78:	df001004 	addi	fp,sp,64
  807d7c:	e13ffd15 	stw	r4,-12(fp)
  807d80:	00802074 	movhi	r2,129
  807d84:	10a23704 	addi	r2,r2,-30500
  807d88:	e0bff615 	stw	r2,-40(fp)
  807d8c:	008020b4 	movhi	r2,130
  807d90:	109ab904 	addi	r2,r2,27364
  807d94:	e0bff715 	stw	r2,-36(fp)
  807d98:	e0bff004 	addi	r2,fp,-64
  807d9c:	1009883a 	mov	r4,r2
  807da0:	08173140 	call	817314 <_Unwind_SjLj_Register>
	std::_Destroy(this->_M_impl._M_start, this->_M_impl._M_finish,
  807da4:	e0bffd17 	ldw	r2,-12(fp)
  807da8:	14000017 	ldw	r16,0(r2)
  807dac:	e0bffd17 	ldw	r2,-12(fp)
  807db0:	14400117 	ldw	r17,4(r2)
		      _M_get_Tp_allocator());
  807db4:	e0bffd17 	ldw	r2,-12(fp)
  807db8:	1009883a 	mov	r4,r2
  807dbc:	0806ec00 	call	806ec0 <_ZNSt12_Vector_baseISt4pairIifESaIS1_EE19_M_get_Tp_allocatorEv>
	std::_Destroy(this->_M_impl._M_start, this->_M_impl._M_finish,
  807dc0:	e03ff115 	stw	zero,-60(fp)
  807dc4:	100d883a 	mov	r6,r2
  807dc8:	880b883a 	mov	r5,r17
  807dcc:	8009883a 	mov	r4,r16
  807dd0:	080705c0 	call	80705c <_ZSt8_DestroyIPSt4pairIifES1_EvT_S3_RSaIT0_E>
      }
  807dd4:	e0bffd17 	ldw	r2,-12(fp)
  807dd8:	1009883a 	mov	r4,r2
  807ddc:	0807fa40 	call	807fa4 <_ZNSt12_Vector_baseISt4pairIifESaIS1_EED1Ev>
  807de0:	0001883a 	nop
  807de4:	e0bff004 	addi	r2,fp,-64
  807de8:	1009883a 	mov	r4,r2
  807dec:	081732c0 	call	81732c <_Unwind_SjLj_Unregister>
  807df0:	e6fffe04 	addi	sp,fp,-8
  807df4:	dfc00317 	ldw	ra,12(sp)
  807df8:	df000217 	ldw	fp,8(sp)
  807dfc:	dc400117 	ldw	r17,4(sp)
  807e00:	dc000017 	ldw	r16,0(sp)
  807e04:	dec00404 	addi	sp,sp,16
  807e08:	f800283a 	ret

00807e0c <_ZNK9__gnu_cxx13new_allocatorISt4pairIifEE8max_sizeEv>:
      max_size() const _GLIBCXX_USE_NOEXCEPT
  807e0c:	defffd04 	addi	sp,sp,-12
  807e10:	dfc00215 	stw	ra,8(sp)
  807e14:	df000115 	stw	fp,4(sp)
  807e18:	df000104 	addi	fp,sp,4
  807e1c:	e13fff15 	stw	r4,-4(fp)
      { return _M_max_size(); }
  807e20:	e13fff17 	ldw	r4,-4(fp)
  807e24:	08080400 	call	808040 <_ZNK9__gnu_cxx13new_allocatorISt4pairIifEE11_M_max_sizeEv>
  807e28:	e037883a 	mov	sp,fp
  807e2c:	dfc00117 	ldw	ra,4(sp)
  807e30:	df000017 	ldw	fp,0(sp)
  807e34:	dec00204 	addi	sp,sp,8
  807e38:	f800283a 	ret

00807e3c <_ZN9__gnu_cxx13new_allocatorISt4pairIifEE8allocateEjPKv>:
      allocate(size_type __n, const void* = static_cast<const void*>(0))
  807e3c:	defffb04 	addi	sp,sp,-20
  807e40:	dfc00415 	stw	ra,16(sp)
  807e44:	df000315 	stw	fp,12(sp)
  807e48:	df000304 	addi	fp,sp,12
  807e4c:	e13fff15 	stw	r4,-4(fp)
  807e50:	e17ffe15 	stw	r5,-8(fp)
  807e54:	e1bffd15 	stw	r6,-12(fp)
	if (__n > this->_M_max_size())
  807e58:	e13fff17 	ldw	r4,-4(fp)
  807e5c:	08080400 	call	808040 <_ZNK9__gnu_cxx13new_allocatorISt4pairIifEE11_M_max_sizeEv>
  807e60:	1007883a 	mov	r3,r2
  807e64:	e0bffe17 	ldw	r2,-8(fp)
  807e68:	1885803a 	cmpltu	r2,r3,r2
  807e6c:	10803fcc 	andi	r2,r2,255
  807e70:	10000126 	beq	r2,zero,807e78 <_ZN9__gnu_cxx13new_allocatorISt4pairIifEE8allocateEjPKv+0x3c>
	  std::__throw_bad_alloc();
  807e74:	08094a40 	call	8094a4 <_ZSt17__throw_bad_allocv>
	return static_cast<_Tp*>(::operator new(__n * sizeof(_Tp)));
  807e78:	e0bffe17 	ldw	r2,-8(fp)
  807e7c:	100490fa 	slli	r2,r2,3
  807e80:	1009883a 	mov	r4,r2
  807e84:	08094000 	call	809400 <_Znwj>
      }
  807e88:	e037883a 	mov	sp,fp
  807e8c:	dfc00117 	ldw	ra,4(sp)
  807e90:	df000017 	ldw	fp,0(sp)
  807e94:	dec00204 	addi	sp,sp,8
  807e98:	f800283a 	ret

00807e9c <_ZSt14__copy_move_a2ILb0EPKSt4pairIifEPS1_ET1_T0_S6_S5_>:
    __copy_move_a2(_II __first, _II __last, _OI __result)
  807e9c:	defffb04 	addi	sp,sp,-20
  807ea0:	dfc00415 	stw	ra,16(sp)
  807ea4:	df000315 	stw	fp,12(sp)
  807ea8:	df000304 	addi	fp,sp,12
  807eac:	e13fff15 	stw	r4,-4(fp)
  807eb0:	e17ffe15 	stw	r5,-8(fp)
  807eb4:	e1bffd15 	stw	r6,-12(fp)
			      _Category>::__copy_m(__first, __last, __result);
  807eb8:	e1bffd17 	ldw	r6,-12(fp)
  807ebc:	e17ffe17 	ldw	r5,-8(fp)
  807ec0:	e13fff17 	ldw	r4,-4(fp)
  807ec4:	08080680 	call	808068 <_ZNSt11__copy_moveILb0ELb0ESt26random_access_iterator_tagE8__copy_mIPKSt4pairIifEPS4_EET0_T_S9_S8_>
    }
  807ec8:	e037883a 	mov	sp,fp
  807ecc:	dfc00117 	ldw	ra,4(sp)
  807ed0:	df000017 	ldw	fp,0(sp)
  807ed4:	dec00204 	addi	sp,sp,8
  807ed8:	f800283a 	ret

00807edc <_ZSt11__addressofISt4pairIifEEPT_RS2_>:
    __addressof(_Tp& __r) _GLIBCXX_NOEXCEPT
  807edc:	defffe04 	addi	sp,sp,-8
  807ee0:	df000115 	stw	fp,4(sp)
  807ee4:	df000104 	addi	fp,sp,4
  807ee8:	e13fff15 	stw	r4,-4(fp)
    { return __builtin_addressof(__r); }
  807eec:	e0bfff17 	ldw	r2,-4(fp)
  807ef0:	e037883a 	mov	sp,fp
  807ef4:	df000017 	ldw	fp,0(sp)
  807ef8:	dec00104 	addi	sp,sp,4
  807efc:	f800283a 	ret

00807f00 <_ZSt10_ConstructISt4pairIifEJRKS1_EEvPT_DpOT0_>:
    _Construct(_Tp* __p, _Args&&... __args)
  807f00:	defffb04 	addi	sp,sp,-20
  807f04:	dfc00415 	stw	ra,16(sp)
  807f08:	df000315 	stw	fp,12(sp)
  807f0c:	dc000215 	stw	r16,8(sp)
  807f10:	df000304 	addi	fp,sp,12
  807f14:	e13ffe15 	stw	r4,-8(fp)
  807f18:	e17ffd15 	stw	r5,-12(fp)
    { ::new(static_cast<void*>(__p)) _Tp(std::forward<_Args>(__args)...); }
  807f1c:	e13ffd17 	ldw	r4,-12(fp)
  807f20:	08080ec0 	call	8080ec <_ZSt7forwardIRKSt4pairIifEEOT_RNSt16remove_referenceIS4_E4typeE>
  807f24:	1021883a 	mov	r16,r2
  807f28:	e0bffe17 	ldw	r2,-8(fp)
  807f2c:	100b883a 	mov	r5,r2
  807f30:	01000204 	movi	r4,8
  807f34:	08060b00 	call	8060b0 <_ZnwjPv>
  807f38:	80c00017 	ldw	r3,0(r16)
  807f3c:	10c00015 	stw	r3,0(r2)
  807f40:	80c00117 	ldw	r3,4(r16)
  807f44:	10c00115 	stw	r3,4(r2)
  807f48:	0001883a 	nop
  807f4c:	e6ffff04 	addi	sp,fp,-4
  807f50:	dfc00217 	ldw	ra,8(sp)
  807f54:	df000117 	ldw	fp,4(sp)
  807f58:	dc000017 	ldw	r16,0(sp)
  807f5c:	dec00304 	addi	sp,sp,12
  807f60:	f800283a 	ret

00807f64 <_ZNSt12_Vector_baseISt4pairIifESaIS1_EE12_Vector_implC1Ev>:
	_Vector_impl() _GLIBCXX_NOEXCEPT_IF(
  807f64:	defffd04 	addi	sp,sp,-12
  807f68:	dfc00215 	stw	ra,8(sp)
  807f6c:	df000115 	stw	fp,4(sp)
  807f70:	df000104 	addi	fp,sp,4
  807f74:	e13fff15 	stw	r4,-4(fp)
	: _Tp_alloc_type()
  807f78:	e13fff17 	ldw	r4,-4(fp)
  807f7c:	08081100 	call	808110 <_ZNSaISt4pairIifEEC1Ev>
  807f80:	e0bfff17 	ldw	r2,-4(fp)
  807f84:	1009883a 	mov	r4,r2
  807f88:	08081440 	call	808144 <_ZNSt12_Vector_baseISt4pairIifESaIS1_EE17_Vector_impl_dataC1Ev>
	{ }
  807f8c:	0001883a 	nop
  807f90:	e037883a 	mov	sp,fp
  807f94:	dfc00117 	ldw	ra,4(sp)
  807f98:	df000017 	ldw	fp,0(sp)
  807f9c:	dec00204 	addi	sp,sp,8
  807fa0:	f800283a 	ret

00807fa4 <_ZNSt12_Vector_baseISt4pairIifESaIS1_EED1Ev>:
      ~_Vector_base() _GLIBCXX_NOEXCEPT
  807fa4:	defff004 	addi	sp,sp,-64
  807fa8:	dfc00f15 	stw	ra,60(sp)
  807fac:	df000e15 	stw	fp,56(sp)
  807fb0:	df000e04 	addi	fp,sp,56
  807fb4:	e13fff15 	stw	r4,-4(fp)
  807fb8:	00802074 	movhi	r2,129
  807fbc:	10a23704 	addi	r2,r2,-30500
  807fc0:	e0bff815 	stw	r2,-32(fp)
  807fc4:	008020b4 	movhi	r2,130
  807fc8:	109aba04 	addi	r2,r2,27368
  807fcc:	e0bff915 	stw	r2,-28(fp)
  807fd0:	e0bff204 	addi	r2,fp,-56
  807fd4:	1009883a 	mov	r4,r2
  807fd8:	08173140 	call	817314 <_Unwind_SjLj_Register>
	_M_deallocate(_M_impl._M_start,
  807fdc:	e0bfff17 	ldw	r2,-4(fp)
  807fe0:	11000017 	ldw	r4,0(r2)
		      _M_impl._M_end_of_storage - _M_impl._M_start);
  807fe4:	e0bfff17 	ldw	r2,-4(fp)
  807fe8:	10c00217 	ldw	r3,8(r2)
  807fec:	e0bfff17 	ldw	r2,-4(fp)
  807ff0:	10800017 	ldw	r2,0(r2)
  807ff4:	1885c83a 	sub	r2,r3,r2
  807ff8:	1005d0fa 	srai	r2,r2,3
	_M_deallocate(_M_impl._M_start,
  807ffc:	e03ff315 	stw	zero,-52(fp)
  808000:	100d883a 	mov	r6,r2
  808004:	200b883a 	mov	r5,r4
  808008:	e13fff17 	ldw	r4,-4(fp)
  80800c:	080709c0 	call	80709c <_ZNSt12_Vector_baseISt4pairIifESaIS1_EE13_M_deallocateEPS1_j>
      }
  808010:	e0bfff17 	ldw	r2,-4(fp)
  808014:	1009883a 	mov	r4,r2
  808018:	0807c700 	call	807c70 <_ZNSt12_Vector_baseISt4pairIifESaIS1_EE12_Vector_implD1Ev>
  80801c:	0001883a 	nop
  808020:	e0bff204 	addi	r2,fp,-56
  808024:	1009883a 	mov	r4,r2
  808028:	081732c0 	call	81732c <_Unwind_SjLj_Unregister>
  80802c:	e037883a 	mov	sp,fp
  808030:	dfc00117 	ldw	ra,4(sp)
  808034:	df000017 	ldw	fp,0(sp)
  808038:	dec00204 	addi	sp,sp,8
  80803c:	f800283a 	ret

00808040 <_ZNK9__gnu_cxx13new_allocatorISt4pairIifEE11_M_max_sizeEv>:
      _M_max_size() const _GLIBCXX_USE_NOEXCEPT
  808040:	defffe04 	addi	sp,sp,-8
  808044:	df000115 	stw	fp,4(sp)
  808048:	df000104 	addi	fp,sp,4
  80804c:	e13fff15 	stw	r4,-4(fp)
	return std::size_t(__PTRDIFF_MAX__) / sizeof(_Tp);
  808050:	00840034 	movhi	r2,4096
  808054:	10bfffc4 	addi	r2,r2,-1
      }
  808058:	e037883a 	mov	sp,fp
  80805c:	df000017 	ldw	fp,0(sp)
  808060:	dec00104 	addi	sp,sp,4
  808064:	f800283a 	ret

00808068 <_ZNSt11__copy_moveILb0ELb0ESt26random_access_iterator_tagE8__copy_mIPKSt4pairIifEPS4_EET0_T_S9_S8_>:
	__copy_m(_II __first, _II __last, _OI __result)
  808068:	defffa04 	addi	sp,sp,-24
  80806c:	dfc00515 	stw	ra,20(sp)
  808070:	df000415 	stw	fp,16(sp)
  808074:	df000404 	addi	fp,sp,16
  808078:	e13ffe15 	stw	r4,-8(fp)
  80807c:	e17ffd15 	stw	r5,-12(fp)
  808080:	e1bffc15 	stw	r6,-16(fp)
	  for(_Distance __n = __last - __first; __n > 0; --__n)
  808084:	e0fffd17 	ldw	r3,-12(fp)
  808088:	e0bffe17 	ldw	r2,-8(fp)
  80808c:	1885c83a 	sub	r2,r3,r2
  808090:	1005d0fa 	srai	r2,r2,3
  808094:	e0bfff15 	stw	r2,-4(fp)
  808098:	e0bfff17 	ldw	r2,-4(fp)
  80809c:	00800d0e 	bge	zero,r2,8080d4 <_ZNSt11__copy_moveILb0ELb0ESt26random_access_iterator_tagE8__copy_mIPKSt4pairIifEPS4_EET0_T_S9_S8_+0x6c>
	      *__result = *__first;
  8080a0:	e17ffe17 	ldw	r5,-8(fp)
  8080a4:	e13ffc17 	ldw	r4,-16(fp)
  8080a8:	08081800 	call	808180 <_ZNSt4pairIifEaSERKS0_>
	      ++__first;
  8080ac:	e0bffe17 	ldw	r2,-8(fp)
  8080b0:	10800204 	addi	r2,r2,8
  8080b4:	e0bffe15 	stw	r2,-8(fp)
	      ++__result;
  8080b8:	e0bffc17 	ldw	r2,-16(fp)
  8080bc:	10800204 	addi	r2,r2,8
  8080c0:	e0bffc15 	stw	r2,-16(fp)
	  for(_Distance __n = __last - __first; __n > 0; --__n)
  8080c4:	e0bfff17 	ldw	r2,-4(fp)
  8080c8:	10bfffc4 	addi	r2,r2,-1
  8080cc:	e0bfff15 	stw	r2,-4(fp)
  8080d0:	003ff106 	br	808098 <_ZNSt11__copy_moveILb0ELb0ESt26random_access_iterator_tagE8__copy_mIPKSt4pairIifEPS4_EET0_T_S9_S8_+0x30>
	  return __result;
  8080d4:	e0bffc17 	ldw	r2,-16(fp)
	}
  8080d8:	e037883a 	mov	sp,fp
  8080dc:	dfc00117 	ldw	ra,4(sp)
  8080e0:	df000017 	ldw	fp,0(sp)
  8080e4:	dec00204 	addi	sp,sp,8
  8080e8:	f800283a 	ret

008080ec <_ZSt7forwardIRKSt4pairIifEEOT_RNSt16remove_referenceIS4_E4typeE>:
   *
   *  This function is used to implement "perfect forwarding".
   */
  template<typename _Tp>
    constexpr _Tp&&
    forward(typename std::remove_reference<_Tp>::type& __t) noexcept
  8080ec:	defffe04 	addi	sp,sp,-8
  8080f0:	df000115 	stw	fp,4(sp)
  8080f4:	df000104 	addi	fp,sp,4
  8080f8:	e13fff15 	stw	r4,-4(fp)
    { return static_cast<_Tp&&>(__t); }
  8080fc:	e0bfff17 	ldw	r2,-4(fp)
  808100:	e037883a 	mov	sp,fp
  808104:	df000017 	ldw	fp,0(sp)
  808108:	dec00104 	addi	sp,sp,4
  80810c:	f800283a 	ret

00808110 <_ZNSaISt4pairIifEEC1Ev>:
      allocator() _GLIBCXX_NOTHROW { }
  808110:	defffd04 	addi	sp,sp,-12
  808114:	dfc00215 	stw	ra,8(sp)
  808118:	df000115 	stw	fp,4(sp)
  80811c:	df000104 	addi	fp,sp,4
  808120:	e13fff15 	stw	r4,-4(fp)
  808124:	e13fff17 	ldw	r4,-4(fp)
  808128:	08081c80 	call	8081c8 <_ZN9__gnu_cxx13new_allocatorISt4pairIifEEC1Ev>
  80812c:	0001883a 	nop
  808130:	e037883a 	mov	sp,fp
  808134:	dfc00117 	ldw	ra,4(sp)
  808138:	df000017 	ldw	fp,0(sp)
  80813c:	dec00204 	addi	sp,sp,8
  808140:	f800283a 	ret

00808144 <_ZNSt12_Vector_baseISt4pairIifESaIS1_EE17_Vector_impl_dataC1Ev>:
	_Vector_impl_data() _GLIBCXX_NOEXCEPT
  808144:	defffe04 	addi	sp,sp,-8
  808148:	df000115 	stw	fp,4(sp)
  80814c:	df000104 	addi	fp,sp,4
  808150:	e13fff15 	stw	r4,-4(fp)
	: _M_start(), _M_finish(), _M_end_of_storage()
  808154:	e0bfff17 	ldw	r2,-4(fp)
  808158:	10000015 	stw	zero,0(r2)
  80815c:	e0bfff17 	ldw	r2,-4(fp)
  808160:	10000115 	stw	zero,4(r2)
  808164:	e0bfff17 	ldw	r2,-4(fp)
  808168:	10000215 	stw	zero,8(r2)
	{ }
  80816c:	0001883a 	nop
  808170:	e037883a 	mov	sp,fp
  808174:	df000017 	ldw	fp,0(sp)
  808178:	dec00104 	addi	sp,sp,4
  80817c:	f800283a 	ret

00808180 <_ZNSt4pairIifEaSERKS0_>:
      template<typename... _Args1, typename... _Args2>
	_GLIBCXX20_CONSTEXPR
        pair(piecewise_construct_t, tuple<_Args1...>, tuple<_Args2...>);

      _GLIBCXX20_CONSTEXPR pair&
      operator=(typename conditional<
  808180:	defffd04 	addi	sp,sp,-12
  808184:	df000215 	stw	fp,8(sp)
  808188:	df000204 	addi	fp,sp,8
  80818c:	e13fff15 	stw	r4,-4(fp)
  808190:	e17ffe15 	stw	r5,-8(fp)
		__and_<is_copy_assignable<_T1>,
		       is_copy_assignable<_T2>>::value,
		const pair&, const __nonesuch&>::type __p)
      {
	first = __p.first;
  808194:	e0bffe17 	ldw	r2,-8(fp)
  808198:	10c00017 	ldw	r3,0(r2)
  80819c:	e0bfff17 	ldw	r2,-4(fp)
  8081a0:	10c00015 	stw	r3,0(r2)
	second = __p.second;
  8081a4:	e0bffe17 	ldw	r2,-8(fp)
  8081a8:	10c00117 	ldw	r3,4(r2)
  8081ac:	e0bfff17 	ldw	r2,-4(fp)
  8081b0:	10c00115 	stw	r3,4(r2)
	return *this;
  8081b4:	e0bfff17 	ldw	r2,-4(fp)
      }
  8081b8:	e037883a 	mov	sp,fp
  8081bc:	df000017 	ldw	fp,0(sp)
  8081c0:	dec00104 	addi	sp,sp,4
  8081c4:	f800283a 	ret

008081c8 <_ZN9__gnu_cxx13new_allocatorISt4pairIifEEC1Ev>:
      new_allocator() _GLIBCXX_USE_NOEXCEPT { }
  8081c8:	defffe04 	addi	sp,sp,-8
  8081cc:	df000115 	stw	fp,4(sp)
  8081d0:	df000104 	addi	fp,sp,4
  8081d4:	e13fff15 	stw	r4,-4(fp)
  8081d8:	0001883a 	nop
  8081dc:	e037883a 	mov	sp,fp
  8081e0:	df000017 	ldw	fp,0(sp)
  8081e4:	dec00104 	addi	sp,sp,4
  8081e8:	f800283a 	ret

008081ec <_ZdlPvj>:
  8081ec:	0809fe01 	jmpi	809fe0 <_ZdlPv>

008081f0 <__cxa_get_exception_ptr>:
  8081f0:	20bfff17 	ldw	r2,-4(r4)
  8081f4:	f800283a 	ret

008081f8 <__cxa_begin_catch>:
  8081f8:	defffe04 	addi	sp,sp,-8
  8081fc:	dc000015 	stw	r16,0(sp)
  808200:	dfc00115 	stw	ra,4(sp)
  808204:	2021883a 	mov	r16,r4
  808208:	08083ac0 	call	8083ac <__cxa_get_globals>
  80820c:	80c00017 	ldw	r3,0(r16)
  808210:	81800117 	ldw	r6,4(r16)
  808214:	012f3574 	movhi	r4,48341
  808218:	21354004 	addi	r4,r4,-11008
  80821c:	016e2cb4 	movhi	r5,47282
  808220:	296aaf04 	addi	r5,r5,-21828
  808224:	1909883a 	add	r4,r3,r4
  808228:	314d883a 	add	r6,r6,r5
  80822c:	20c7803a 	cmpltu	r3,r4,r3
  808230:	1987883a 	add	r3,r3,r6
  808234:	100b883a 	mov	r5,r2
  808238:	81bff504 	addi	r6,r16,-44
  80823c:	10800017 	ldw	r2,0(r2)
  808240:	18000626 	beq	r3,zero,80825c <__cxa_begin_catch+0x64>
  808244:	1000191e 	bne	r2,zero,8082ac <__cxa_begin_catch+0xb4>
  808248:	29800015 	stw	r6,0(r5)
  80824c:	dfc00117 	ldw	ra,4(sp)
  808250:	dc000017 	ldw	r16,0(sp)
  808254:	dec00204 	addi	sp,sp,8
  808258:	f800283a 	ret
  80825c:	210000a8 	cmpgeui	r4,r4,2
  808260:	203ff81e 	bne	r4,zero,808244 <__cxa_begin_catch+0x4c>
  808264:	80fffa17 	ldw	r3,-24(r16)
  808268:	18000d16 	blt	r3,zero,8082a0 <__cxa_begin_catch+0xa8>
  80826c:	18c00044 	addi	r3,r3,1
  808270:	29000117 	ldw	r4,4(r5)
  808274:	80fffa15 	stw	r3,-24(r16)
  808278:	20ffffc4 	addi	r3,r4,-1
  80827c:	28c00115 	stw	r3,4(r5)
  808280:	11800226 	beq	r2,r6,80828c <__cxa_begin_catch+0x94>
  808284:	80bff915 	stw	r2,-28(r16)
  808288:	29800015 	stw	r6,0(r5)
  80828c:	80bfff17 	ldw	r2,-4(r16)
  808290:	dfc00117 	ldw	ra,4(sp)
  808294:	dc000017 	ldw	r16,0(sp)
  808298:	dec00204 	addi	sp,sp,8
  80829c:	f800283a 	ret
  8082a0:	01000044 	movi	r4,1
  8082a4:	20c7c83a 	sub	r3,r4,r3
  8082a8:	003ff106 	br	808270 <__cxa_begin_catch+0x78>
  8082ac:	08091b80 	call	8091b8 <_ZSt9terminatev>

008082b0 <__cxa_end_catch>:
  8082b0:	deffff04 	addi	sp,sp,-4
  8082b4:	dfc00015 	stw	ra,0(sp)
  8082b8:	08083a00 	call	8083a0 <__cxa_get_globals_fast>
  8082bc:	11000017 	ldw	r4,0(r2)
  8082c0:	20001426 	beq	r4,zero,808314 <__cxa_end_catch+0x64>
  8082c4:	20c00b17 	ldw	r3,44(r4)
  8082c8:	21800c17 	ldw	r6,48(r4)
  8082cc:	016f3574 	movhi	r5,48341
  8082d0:	29754004 	addi	r5,r5,-11008
  8082d4:	01ee2cb4 	movhi	r7,47282
  8082d8:	39eaaf04 	addi	r7,r7,-21828
  8082dc:	194b883a 	add	r5,r3,r5
  8082e0:	28c7803a 	cmpltu	r3,r5,r3
  8082e4:	31cd883a 	add	r6,r6,r7
  8082e8:	1987883a 	add	r3,r3,r6
  8082ec:	1800111e 	bne	r3,zero,808334 <__cxa_end_catch+0x84>
  8082f0:	294000a8 	cmpgeui	r5,r5,2
  8082f4:	28000f1e 	bne	r5,zero,808334 <__cxa_end_catch+0x84>
  8082f8:	20c00517 	ldw	r3,20(r4)
  8082fc:	18000816 	blt	r3,zero,808320 <__cxa_end_catch+0x70>
  808300:	18ffffc4 	addi	r3,r3,-1
  808304:	18001026 	beq	r3,zero,808348 <__cxa_end_catch+0x98>
  808308:	18bfffd8 	cmpnei	r2,r3,-1
  80830c:	10001426 	beq	r2,zero,808360 <__cxa_end_catch+0xb0>
  808310:	20c00515 	stw	r3,20(r4)
  808314:	dfc00017 	ldw	ra,0(sp)
  808318:	dec00104 	addi	sp,sp,4
  80831c:	f800283a 	ret
  808320:	18c00044 	addi	r3,r3,1
  808324:	183ffa1e 	bne	r3,zero,808310 <__cxa_end_catch+0x60>
  808328:	21400417 	ldw	r5,16(r4)
  80832c:	11400015 	stw	r5,0(r2)
  808330:	003ff706 	br	808310 <__cxa_end_catch+0x60>
  808334:	21000b04 	addi	r4,r4,44
  808338:	10000015 	stw	zero,0(r2)
  80833c:	dfc00017 	ldw	ra,0(sp)
  808340:	dec00104 	addi	sp,sp,4
  808344:	08175801 	jmpi	817580 <_Unwind_DeleteException>
  808348:	20c00417 	ldw	r3,16(r4)
  80834c:	21000b04 	addi	r4,r4,44
  808350:	10c00015 	stw	r3,0(r2)
  808354:	dfc00017 	ldw	ra,0(sp)
  808358:	dec00104 	addi	sp,sp,4
  80835c:	08175801 	jmpi	817580 <_Unwind_DeleteException>
  808360:	08091b80 	call	8091b8 <_ZSt9terminatev>

00808364 <_ZSt18uncaught_exceptionv>:
  808364:	deffff04 	addi	sp,sp,-4
  808368:	dfc00015 	stw	ra,0(sp)
  80836c:	08083ac0 	call	8083ac <__cxa_get_globals>
  808370:	10800117 	ldw	r2,4(r2)
  808374:	1004c03a 	cmpne	r2,r2,zero
  808378:	dfc00017 	ldw	ra,0(sp)
  80837c:	dec00104 	addi	sp,sp,4
  808380:	f800283a 	ret

00808384 <_ZSt19uncaught_exceptionsv>:
  808384:	deffff04 	addi	sp,sp,-4
  808388:	dfc00015 	stw	ra,0(sp)
  80838c:	08083ac0 	call	8083ac <__cxa_get_globals>
  808390:	10800117 	ldw	r2,4(r2)
  808394:	dfc00017 	ldw	ra,0(sp)
  808398:	dec00104 	addi	sp,sp,4
  80839c:	f800283a 	ret

008083a0 <__cxa_get_globals_fast>:
  8083a0:	008020f4 	movhi	r2,131
  8083a4:	10adcd04 	addi	r2,r2,-18636
  8083a8:	f800283a 	ret

008083ac <__cxa_get_globals>:
  8083ac:	008020f4 	movhi	r2,131
  8083b0:	10adcd04 	addi	r2,r2,-18636
  8083b4:	f800283a 	ret

008083b8 <_ZL16get_adjusted_ptrPKSt9type_infoS1_PPv>:
  8083b8:	28800017 	ldw	r2,0(r5)
  8083bc:	30c00017 	ldw	r3,0(r6)
  8083c0:	defffb04 	addi	sp,sp,-20
  8083c4:	10800217 	ldw	r2,8(r2)
  8083c8:	dc800315 	stw	r18,12(sp)
  8083cc:	dc400215 	stw	r17,8(sp)
  8083d0:	dc000115 	stw	r16,4(sp)
  8083d4:	dfc00415 	stw	ra,16(sp)
  8083d8:	2023883a 	mov	r17,r4
  8083dc:	d8c00015 	stw	r3,0(sp)
  8083e0:	2809883a 	mov	r4,r5
  8083e4:	2821883a 	mov	r16,r5
  8083e8:	3025883a 	mov	r18,r6
  8083ec:	103ee83a 	callr	r2
  8083f0:	10803fcc 	andi	r2,r2,255
  8083f4:	10000326 	beq	r2,zero,808404 <_ZL16get_adjusted_ptrPKSt9type_infoS1_PPv+0x4c>
  8083f8:	d8800017 	ldw	r2,0(sp)
  8083fc:	10800017 	ldw	r2,0(r2)
  808400:	d8800015 	stw	r2,0(sp)
  808404:	88800017 	ldw	r2,0(r17)
  808408:	01c00044 	movi	r7,1
  80840c:	d80d883a 	mov	r6,sp
  808410:	10800417 	ldw	r2,16(r2)
  808414:	800b883a 	mov	r5,r16
  808418:	8809883a 	mov	r4,r17
  80841c:	103ee83a 	callr	r2
  808420:	10c03fcc 	andi	r3,r2,255
  808424:	18000226 	beq	r3,zero,808430 <_ZL16get_adjusted_ptrPKSt9type_infoS1_PPv+0x78>
  808428:	d8c00017 	ldw	r3,0(sp)
  80842c:	90c00015 	stw	r3,0(r18)
  808430:	dfc00417 	ldw	ra,16(sp)
  808434:	dc800317 	ldw	r18,12(sp)
  808438:	dc400217 	ldw	r17,8(sp)
  80843c:	dc000117 	ldw	r16,4(sp)
  808440:	dec00504 	addi	sp,sp,20
  808444:	f800283a 	ret

00808448 <_ZL28read_encoded_value_with_basehjPKhPj>:
  808448:	20803fcc 	andi	r2,r4,255
  80844c:	10801418 	cmpnei	r2,r2,80
  808450:	10002c26 	beq	r2,zero,808504 <_ZL28read_encoded_value_with_basehjPKhPj+0xbc>
  808454:	208003cc 	andi	r2,r4,15
  808458:	10c00368 	cmpgeui	r3,r2,13
  80845c:	1800711e 	bne	r3,zero,808624 <_ZL28read_encoded_value_with_basehjPKhPj+0x1dc>
  808460:	100490ba 	slli	r2,r2,2
  808464:	00c02074 	movhi	r3,129
  808468:	10c7883a 	add	r3,r2,r3
  80846c:	18a11d17 	ldw	r2,-31628(r3)
  808470:	1000683a 	jmp	r2
  808474:	008084a8 	cmpgeui	r2,zero,530
  808478:	00808598 	cmpnei	r2,zero,534
  80847c:	0080855c 	xori	r2,zero,533
  808480:	008084a8 	cmpgeui	r2,zero,530
  808484:	0080852c 	andhi	r2,zero,532
  808488:	00808624 	muli	r2,zero,536
  80848c:	00808624 	muli	r2,zero,536
  808490:	00808624 	muli	r2,zero,536
  808494:	00808624 	muli	r2,zero,536
  808498:	008085d0 	cmplti	r2,zero,535
  80849c:	00808574 	movhi	r2,533
  8084a0:	008084a8 	cmpgeui	r2,zero,530
  8084a4:	0080852c 	andhi	r2,zero,532
  8084a8:	32000043 	ldbu	r8,1(r6)
  8084ac:	30800083 	ldbu	r2,2(r6)
  8084b0:	30c000c3 	ldbu	r3,3(r6)
  8084b4:	32400003 	ldbu	r9,0(r6)
  8084b8:	4010923a 	slli	r8,r8,8
  8084bc:	1004943a 	slli	r2,r2,16
  8084c0:	1806963a 	slli	r3,r3,24
  8084c4:	4250b03a 	or	r8,r8,r9
  8084c8:	1204b03a 	or	r2,r2,r8
  8084cc:	1886b03a 	or	r3,r3,r2
  8084d0:	30800104 	addi	r2,r6,4
  8084d4:	18000926 	beq	r3,zero,8084fc <_ZL28read_encoded_value_with_basehjPKhPj+0xb4>
  8084d8:	22001c0c 	andi	r8,r4,112
  8084dc:	42000418 	cmpnei	r8,r8,16
  8084e0:	4000011e 	bne	r8,zero,8084e8 <_ZL28read_encoded_value_with_basehjPKhPj+0xa0>
  8084e4:	300b883a 	mov	r5,r6
  8084e8:	21003fcc 	andi	r4,r4,255
  8084ec:	2100201c 	xori	r4,r4,128
  8084f0:	213fe004 	addi	r4,r4,-128
  8084f4:	1947883a 	add	r3,r3,r5
  8084f8:	20000916 	blt	r4,zero,808520 <_ZL28read_encoded_value_with_basehjPKhPj+0xd8>
  8084fc:	38c00015 	stw	r3,0(r7)
  808500:	f800283a 	ret
  808504:	308000c4 	addi	r2,r6,3
  808508:	01bfff04 	movi	r6,-4
  80850c:	1184703a 	and	r2,r2,r6
  808510:	10c00017 	ldw	r3,0(r2)
  808514:	10800104 	addi	r2,r2,4
  808518:	38c00015 	stw	r3,0(r7)
  80851c:	f800283a 	ret
  808520:	18c00017 	ldw	r3,0(r3)
  808524:	38c00015 	stw	r3,0(r7)
  808528:	f800283a 	ret
  80852c:	32000043 	ldbu	r8,1(r6)
  808530:	30800083 	ldbu	r2,2(r6)
  808534:	30c000c3 	ldbu	r3,3(r6)
  808538:	32400003 	ldbu	r9,0(r6)
  80853c:	4010923a 	slli	r8,r8,8
  808540:	1004943a 	slli	r2,r2,16
  808544:	1806963a 	slli	r3,r3,24
  808548:	4250b03a 	or	r8,r8,r9
  80854c:	1204b03a 	or	r2,r2,r8
  808550:	1886b03a 	or	r3,r3,r2
  808554:	30800204 	addi	r2,r6,8
  808558:	003fde06 	br	8084d4 <_ZL28read_encoded_value_with_basehjPKhPj+0x8c>
  80855c:	30c00043 	ldbu	r3,1(r6)
  808560:	32000003 	ldbu	r8,0(r6)
  808564:	30800084 	addi	r2,r6,2
  808568:	1806923a 	slli	r3,r3,8
  80856c:	1a06b03a 	or	r3,r3,r8
  808570:	003fd806 	br	8084d4 <_ZL28read_encoded_value_with_basehjPKhPj+0x8c>
  808574:	30c00043 	ldbu	r3,1(r6)
  808578:	32000003 	ldbu	r8,0(r6)
  80857c:	30800084 	addi	r2,r6,2
  808580:	1806923a 	slli	r3,r3,8
  808584:	1a06b03a 	or	r3,r3,r8
  808588:	18ffffcc 	andi	r3,r3,65535
  80858c:	18e0001c 	xori	r3,r3,32768
  808590:	18e00004 	addi	r3,r3,-32768
  808594:	003fcf06 	br	8084d4 <_ZL28read_encoded_value_with_basehjPKhPj+0x8c>
  808598:	3005883a 	mov	r2,r6
  80859c:	0007883a 	mov	r3,zero
  8085a0:	0015883a 	mov	r10,zero
  8085a4:	12000003 	ldbu	r8,0(r2)
  8085a8:	10800044 	addi	r2,r2,1
  8085ac:	42401fcc 	andi	r9,r8,127
  8085b0:	4a92983a 	sll	r9,r9,r10
  8085b4:	42003fcc 	andi	r8,r8,255
  8085b8:	4200201c 	xori	r8,r8,128
  8085bc:	423fe004 	addi	r8,r8,-128
  8085c0:	1a46b03a 	or	r3,r3,r9
  8085c4:	528001c4 	addi	r10,r10,7
  8085c8:	403ff616 	blt	r8,zero,8085a4 <_ZL28read_encoded_value_with_basehjPKhPj+0x15c>
  8085cc:	003fc106 	br	8084d4 <_ZL28read_encoded_value_with_basehjPKhPj+0x8c>
  8085d0:	3005883a 	mov	r2,r6
  8085d4:	0007883a 	mov	r3,zero
  8085d8:	0013883a 	mov	r9,zero
  8085dc:	12800003 	ldbu	r10,0(r2)
  8085e0:	10800044 	addi	r2,r2,1
  8085e4:	52001fcc 	andi	r8,r10,127
  8085e8:	4250983a 	sll	r8,r8,r9
  8085ec:	52c03fcc 	andi	r11,r10,255
  8085f0:	5ac0201c 	xori	r11,r11,128
  8085f4:	5affe004 	addi	r11,r11,-128
  8085f8:	1a06b03a 	or	r3,r3,r8
  8085fc:	4a4001c4 	addi	r9,r9,7
  808600:	583ff616 	blt	r11,zero,8085dc <_ZL28read_encoded_value_with_basehjPKhPj+0x194>
  808604:	4a000828 	cmpgeui	r8,r9,32
  808608:	403fb21e 	bne	r8,zero,8084d4 <_ZL28read_encoded_value_with_basehjPKhPj+0x8c>
  80860c:	5280100c 	andi	r10,r10,64
  808610:	503fb026 	beq	r10,zero,8084d4 <_ZL28read_encoded_value_with_basehjPKhPj+0x8c>
  808614:	023fffc4 	movi	r8,-1
  808618:	4252983a 	sll	r9,r8,r9
  80861c:	1a46b03a 	or	r3,r3,r9
  808620:	003fad06 	br	8084d8 <_ZL28read_encoded_value_with_basehjPKhPj+0x90>
  808624:	deffff04 	addi	sp,sp,-4
  808628:	dfc00015 	stw	ra,0(sp)
  80862c:	08176740 	call	817674 <abort>

00808630 <_ZL21base_of_encoded_valuehP15_Unwind_Context>:
  808630:	20803fcc 	andi	r2,r4,255
  808634:	10803fe0 	cmpeqi	r2,r2,255
  808638:	1000161e 	bne	r2,zero,808694 <_ZL21base_of_encoded_valuehP15_Unwind_Context+0x64>
  80863c:	2007883a 	mov	r3,r4
  808640:	18801c0c 	andi	r2,r3,112
  808644:	2809883a 	mov	r4,r5
  808648:	11400c20 	cmpeqi	r5,r2,48
  80864c:	2800131e 	bne	r5,zero,80869c <_ZL21base_of_encoded_valuehP15_Unwind_Context+0x6c>
  808650:	11400c68 	cmpgeui	r5,r2,49
  808654:	2800031e 	bne	r5,zero,808664 <_ZL21base_of_encoded_valuehP15_Unwind_Context+0x34>
  808658:	11400820 	cmpeqi	r5,r2,32
  80865c:	28000426 	beq	r5,zero,808670 <_ZL21base_of_encoded_valuehP15_Unwind_Context+0x40>
  808660:	08173e81 	jmpi	8173e8 <_Unwind_GetTextRelBase>
  808664:	10c01020 	cmpeqi	r3,r2,64
  808668:	18000826 	beq	r3,zero,80868c <_ZL21base_of_encoded_valuehP15_Unwind_Context+0x5c>
  80866c:	08173d01 	jmpi	8173d0 <_Unwind_GetRegionStart>
  808670:	10800868 	cmpgeui	r2,r2,33
  808674:	1000021e 	bne	r2,zero,808680 <_ZL21base_of_encoded_valuehP15_Unwind_Context+0x50>
  808678:	18c0180c 	andi	r3,r3,96
  80867c:	18000526 	beq	r3,zero,808694 <_ZL21base_of_encoded_valuehP15_Unwind_Context+0x64>
  808680:	deffff04 	addi	sp,sp,-4
  808684:	dfc00015 	stw	ra,0(sp)
  808688:	08176740 	call	817674 <abort>
  80868c:	10801420 	cmpeqi	r2,r2,80
  808690:	103ffb26 	beq	r2,zero,808680 <_ZL21base_of_encoded_valuehP15_Unwind_Context+0x50>
  808694:	0005883a 	mov	r2,zero
  808698:	f800283a 	ret
  80869c:	08173e01 	jmpi	8173e0 <_Unwind_GetDataRelBase>

008086a0 <_ZL17parse_lsda_headerP15_Unwind_ContextPKhP16lsda_header_info>:
  8086a0:	defffb04 	addi	sp,sp,-20
  8086a4:	dc800215 	stw	r18,8(sp)
  8086a8:	dc400115 	stw	r17,4(sp)
  8086ac:	dc000015 	stw	r16,0(sp)
  8086b0:	dfc00415 	stw	ra,16(sp)
  8086b4:	dcc00315 	stw	r19,12(sp)
  8086b8:	2025883a 	mov	r18,r4
  8086bc:	2821883a 	mov	r16,r5
  8086c0:	3023883a 	mov	r17,r6
  8086c4:	20003d26 	beq	r4,zero,8087bc <_ZL17parse_lsda_headerP15_Unwind_ContextPKhP16lsda_header_info+0x11c>
  8086c8:	08173d00 	call	8173d0 <_Unwind_GetRegionStart>
  8086cc:	88800015 	stw	r2,0(r17)
  8086d0:	84c00003 	ldbu	r19,0(r16)
  8086d4:	84000044 	addi	r16,r16,1
  8086d8:	98c03fe0 	cmpeqi	r3,r19,255
  8086dc:	18002d26 	beq	r3,zero,808794 <_ZL17parse_lsda_headerP15_Unwind_ContextPKhP16lsda_header_info+0xf4>
  8086e0:	88800115 	stw	r2,4(r17)
  8086e4:	81000003 	ldbu	r4,0(r16)
  8086e8:	80800044 	addi	r2,r16,1
  8086ec:	20c03fcc 	andi	r3,r4,255
  8086f0:	89000505 	stb	r4,20(r17)
  8086f4:	18c03fe0 	cmpeqi	r3,r3,255
  8086f8:	1800321e 	bne	r3,zero,8087c4 <_ZL17parse_lsda_headerP15_Unwind_ContextPKhP16lsda_header_info+0x124>
  8086fc:	000d883a 	mov	r6,zero
  808700:	000b883a 	mov	r5,zero
  808704:	10c00003 	ldbu	r3,0(r2)
  808708:	10800044 	addi	r2,r2,1
  80870c:	19001fcc 	andi	r4,r3,127
  808710:	2148983a 	sll	r4,r4,r5
  808714:	18c03fcc 	andi	r3,r3,255
  808718:	18c0201c 	xori	r3,r3,128
  80871c:	18ffe004 	addi	r3,r3,-128
  808720:	310cb03a 	or	r6,r6,r4
  808724:	294001c4 	addi	r5,r5,7
  808728:	183ff616 	blt	r3,zero,808704 <_ZL17parse_lsda_headerP15_Unwind_ContextPKhP16lsda_header_info+0x64>
  80872c:	118d883a 	add	r6,r2,r6
  808730:	89800315 	stw	r6,12(r17)
  808734:	10c00003 	ldbu	r3,0(r2)
  808738:	000f883a 	mov	r7,zero
  80873c:	10800044 	addi	r2,r2,1
  808740:	88c00545 	stb	r3,21(r17)
  808744:	000b883a 	mov	r5,zero
  808748:	10c00003 	ldbu	r3,0(r2)
  80874c:	10800044 	addi	r2,r2,1
  808750:	19001fcc 	andi	r4,r3,127
  808754:	2148983a 	sll	r4,r4,r5
  808758:	18c03fcc 	andi	r3,r3,255
  80875c:	18c0201c 	xori	r3,r3,128
  808760:	18ffe004 	addi	r3,r3,-128
  808764:	390eb03a 	or	r7,r7,r4
  808768:	294001c4 	addi	r5,r5,7
  80876c:	183ff616 	blt	r3,zero,808748 <_ZL17parse_lsda_headerP15_Unwind_ContextPKhP16lsda_header_info+0xa8>
  808770:	11cf883a 	add	r7,r2,r7
  808774:	89c00415 	stw	r7,16(r17)
  808778:	dfc00417 	ldw	ra,16(sp)
  80877c:	dcc00317 	ldw	r19,12(sp)
  808780:	dc800217 	ldw	r18,8(sp)
  808784:	dc400117 	ldw	r17,4(sp)
  808788:	dc000017 	ldw	r16,0(sp)
  80878c:	dec00504 	addi	sp,sp,20
  808790:	f800283a 	ret
  808794:	900b883a 	mov	r5,r18
  808798:	9809883a 	mov	r4,r19
  80879c:	08086300 	call	808630 <_ZL21base_of_encoded_valuehP15_Unwind_Context>
  8087a0:	800d883a 	mov	r6,r16
  8087a4:	89c00104 	addi	r7,r17,4
  8087a8:	100b883a 	mov	r5,r2
  8087ac:	9809883a 	mov	r4,r19
  8087b0:	08084480 	call	808448 <_ZL28read_encoded_value_with_basehjPKhPj>
  8087b4:	1021883a 	mov	r16,r2
  8087b8:	003fca06 	br	8086e4 <_ZL17parse_lsda_headerP15_Unwind_ContextPKhP16lsda_header_info+0x44>
  8087bc:	0005883a 	mov	r2,zero
  8087c0:	003fc206 	br	8086cc <_ZL17parse_lsda_headerP15_Unwind_ContextPKhP16lsda_header_info+0x2c>
  8087c4:	88000315 	stw	zero,12(r17)
  8087c8:	003fda06 	br	808734 <_ZL17parse_lsda_headerP15_Unwind_ContextPKhP16lsda_header_info+0x94>

008087cc <_ZL20check_exception_specP16lsda_header_infoPKSt9type_infoPvl>:
  8087cc:	defffa04 	addi	sp,sp,-24
  8087d0:	dc000215 	stw	r16,8(sp)
  8087d4:	24000317 	ldw	r16,12(r4)
  8087d8:	01ce303a 	nor	r7,zero,r7
  8087dc:	dc800415 	stw	r18,16(sp)
  8087e0:	dc400315 	stw	r17,12(sp)
  8087e4:	dfc00515 	stw	ra,20(sp)
  8087e8:	2025883a 	mov	r18,r4
  8087ec:	2823883a 	mov	r17,r5
  8087f0:	d9800015 	stw	r6,0(sp)
  8087f4:	81e1883a 	add	r16,r16,r7
  8087f8:	000f883a 	mov	r7,zero
  8087fc:	000d883a 	mov	r6,zero
  808800:	80800003 	ldbu	r2,0(r16)
  808804:	84000044 	addi	r16,r16,1
  808808:	10c01fcc 	andi	r3,r2,127
  80880c:	1986983a 	sll	r3,r3,r6
  808810:	10803fcc 	andi	r2,r2,255
  808814:	1080201c 	xori	r2,r2,128
  808818:	10bfe004 	addi	r2,r2,-128
  80881c:	38ceb03a 	or	r7,r7,r3
  808820:	318001c4 	addi	r6,r6,7
  808824:	103ff616 	blt	r2,zero,808800 <_ZL20check_exception_specP16lsda_header_infoPKSt9type_infoPvl+0x34>
  808828:	38002926 	beq	r7,zero,8088d0 <_ZL20check_exception_specP16lsda_header_infoPKSt9type_infoPvl+0x104>
  80882c:	90800503 	ldbu	r2,20(r18)
  808830:	11003fcc 	andi	r4,r2,255
  808834:	20c03fe0 	cmpeqi	r3,r4,255
  808838:	1800231e 	bne	r3,zero,8088c8 <_ZL20check_exception_specP16lsda_header_infoPKSt9type_infoPvl+0xfc>
  80883c:	108001cc 	andi	r2,r2,7
  808840:	10c000a0 	cmpeqi	r3,r2,2
  808844:	18001d1e 	bne	r3,zero,8088bc <_ZL20check_exception_specP16lsda_header_infoPKSt9type_infoPvl+0xf0>
  808848:	10c000e8 	cmpgeui	r3,r2,3
  80884c:	18001726 	beq	r3,zero,8088ac <_ZL20check_exception_specP16lsda_header_infoPKSt9type_infoPvl+0xe0>
  808850:	10c000e0 	cmpeqi	r3,r2,3
  808854:	1800161e 	bne	r3,zero,8088b0 <_ZL20check_exception_specP16lsda_header_infoPKSt9type_infoPvl+0xe4>
  808858:	10800120 	cmpeqi	r2,r2,4
  80885c:	10001e26 	beq	r2,zero,8088d8 <_ZL20check_exception_specP16lsda_header_infoPKSt9type_infoPvl+0x10c>
  808860:	380e90fa 	slli	r7,r7,3
  808864:	01c5c83a 	sub	r2,zero,r7
  808868:	91800317 	ldw	r6,12(r18)
  80886c:	91400217 	ldw	r5,8(r18)
  808870:	d9c00104 	addi	r7,sp,4
  808874:	308d883a 	add	r6,r6,r2
  808878:	08084480 	call	808448 <_ZL28read_encoded_value_with_basehjPKhPj>
  80887c:	d9000117 	ldw	r4,4(sp)
  808880:	d80d883a 	mov	r6,sp
  808884:	880b883a 	mov	r5,r17
  808888:	08083b80 	call	8083b8 <_ZL16get_adjusted_ptrPKSt9type_infoS1_PPv>
  80888c:	10c03fcc 	andi	r3,r2,255
  808890:	183fd926 	beq	r3,zero,8087f8 <_ZL20check_exception_specP16lsda_header_infoPKSt9type_infoPvl+0x2c>
  808894:	dfc00517 	ldw	ra,20(sp)
  808898:	dc800417 	ldw	r18,16(sp)
  80889c:	dc400317 	ldw	r17,12(sp)
  8088a0:	dc000217 	ldw	r16,8(sp)
  8088a4:	dec00604 	addi	sp,sp,24
  8088a8:	f800283a 	ret
  8088ac:	10000a1e 	bne	r2,zero,8088d8 <_ZL20check_exception_specP16lsda_header_infoPKSt9type_infoPvl+0x10c>
  8088b0:	380e90ba 	slli	r7,r7,2
  8088b4:	01c5c83a 	sub	r2,zero,r7
  8088b8:	003feb06 	br	808868 <_ZL20check_exception_specP16lsda_header_infoPKSt9type_infoPvl+0x9c>
  8088bc:	39cf883a 	add	r7,r7,r7
  8088c0:	01c5c83a 	sub	r2,zero,r7
  8088c4:	003fe806 	br	808868 <_ZL20check_exception_specP16lsda_header_infoPKSt9type_infoPvl+0x9c>
  8088c8:	0005883a 	mov	r2,zero
  8088cc:	003fe606 	br	808868 <_ZL20check_exception_specP16lsda_header_infoPKSt9type_infoPvl+0x9c>
  8088d0:	0005883a 	mov	r2,zero
  8088d4:	003fef06 	br	808894 <_ZL20check_exception_specP16lsda_header_infoPKSt9type_infoPvl+0xc8>
  8088d8:	08176740 	call	817674 <abort>

008088dc <__gxx_personality_sj0>:
  8088dc:	deffdb04 	addi	sp,sp,-148
  8088e0:	02002074 	movhi	r8,129
  8088e4:	00c020b4 	movhi	r3,130
  8088e8:	00802074 	movhi	r2,129
  8088ec:	10a3d404 	addi	r2,r2,-28848
  8088f0:	d9000015 	stw	r4,0(sp)
  8088f4:	42223704 	addi	r8,r8,-30500
  8088f8:	18dabb04 	addi	r3,r3,27372
  8088fc:	d9000d04 	addi	r4,sp,52
  808900:	d8801615 	stw	r2,88(sp)
  808904:	dfc02415 	stw	ra,144(sp)
  808908:	df002315 	stw	fp,140(sp)
  80890c:	d9400315 	stw	r5,12(sp)
  808910:	d9800115 	stw	r6,4(sp)
  808914:	d9c00215 	stw	r7,8(sp)
  808918:	da001315 	stw	r8,76(sp)
  80891c:	d8c01415 	stw	r3,80(sp)
  808920:	df001515 	stw	fp,84(sp)
  808924:	dec01715 	stw	sp,92(sp)
  808928:	08173140 	call	817314 <_Unwind_SjLj_Register>
  80892c:	d8800017 	ldw	r2,0(sp)
  808930:	d8001a15 	stw	zero,104(sp)
  808934:	d8001b15 	stw	zero,108(sp)
  808938:	10800058 	cmpnei	r2,r2,1
  80893c:	1000471e 	bne	r2,zero,808a5c <__gxx_personality_sj0+0x180>
  808940:	d9800117 	ldw	r6,4(sp)
  808944:	00af3574 	movhi	r2,48341
  808948:	10b54004 	addi	r2,r2,-11008
  80894c:	3085883a 	add	r2,r6,r2
  808950:	d8800715 	stw	r2,28(sp)
  808954:	1185803a 	cmpltu	r2,r2,r6
  808958:	d9800217 	ldw	r6,8(sp)
  80895c:	00ee2cb4 	movhi	r3,47282
  808960:	d9000317 	ldw	r4,12(sp)
  808964:	18eaaf04 	addi	r3,r3,-21828
  808968:	30c7883a 	add	r3,r6,r3
  80896c:	10c7883a 	add	r3,r2,r3
  808970:	21000198 	cmpnei	r4,r4,6
  808974:	d8c00615 	stw	r3,24(sp)
  808978:	2000011e 	bne	r4,zero,808980 <__gxx_personality_sj0+0xa4>
  80897c:	1800d026 	beq	r3,zero,808cc0 <__gxx_personality_sj0+0x3e4>
  808980:	d9002617 	ldw	r4,152(sp)
  808984:	00bfffc4 	movi	r2,-1
  808988:	d8800e15 	stw	r2,56(sp)
  80898c:	08173c40 	call	8173c4 <_Unwind_GetLanguageSpecificData>
  808990:	d8800515 	stw	r2,20(sp)
  808994:	10005d26 	beq	r2,zero,808b0c <__gxx_personality_sj0+0x230>
  808998:	d9400517 	ldw	r5,20(sp)
  80899c:	d9002617 	ldw	r4,152(sp)
  8089a0:	d9801d04 	addi	r6,sp,116
  8089a4:	00bfffc4 	movi	r2,-1
  8089a8:	d8800e15 	stw	r2,56(sp)
  8089ac:	08086a00 	call	8086a0 <_ZL17parse_lsda_headerP15_Unwind_ContextPKhP16lsda_header_info>
  8089b0:	d9002203 	ldbu	r4,136(sp)
  8089b4:	d9402617 	ldw	r5,152(sp)
  8089b8:	d8800015 	stw	r2,0(sp)
  8089bc:	08086300 	call	808630 <_ZL21base_of_encoded_valuehP15_Unwind_Context>
  8089c0:	d9002617 	ldw	r4,152(sp)
  8089c4:	d9401b04 	addi	r5,sp,108
  8089c8:	d8801f15 	stw	r2,124(sp)
  8089cc:	08173940 	call	817394 <_Unwind_GetIPInfo>
  8089d0:	d8c01b17 	ldw	r3,108(sp)
  8089d4:	d8800115 	stw	r2,4(sp)
  8089d8:	18004f26 	beq	r3,zero,808b18 <__gxx_personality_sj0+0x23c>
  8089dc:	d8800117 	ldw	r2,4(sp)
  8089e0:	10004a16 	blt	r2,zero,808b0c <__gxx_personality_sj0+0x230>
  8089e4:	1000381e 	bne	r2,zero,808ac8 <__gxx_personality_sj0+0x1ec>
  8089e8:	d8000415 	stw	zero,16(sp)
  8089ec:	d8000215 	stw	zero,8(sp)
  8089f0:	00800044 	movi	r2,1
  8089f4:	d8c00317 	ldw	r3,12(sp)
  8089f8:	18c0004c 	andi	r3,r3,1
  8089fc:	1801061e 	bne	r3,zero,808e18 <__gxx_personality_sj0+0x53c>
  808a00:	d8c00317 	ldw	r3,12(sp)
  808a04:	18c0020c 	andi	r3,r3,8
  808a08:	18010a26 	beq	r3,zero,808e34 <__gxx_personality_sj0+0x558>
  808a0c:	10800058 	cmpnei	r2,r2,1
  808a10:	10015126 	beq	r2,zero,808f58 <__gxx_personality_sj0+0x67c>
  808a14:	d8800417 	ldw	r2,16(sp)
  808a18:	10014a16 	blt	r2,zero,808f44 <__gxx_personality_sj0+0x668>
  808a1c:	d9002617 	ldw	r4,152(sp)
  808a20:	d9802517 	ldw	r6,148(sp)
  808a24:	00bfffc4 	movi	r2,-1
  808a28:	000b883a 	mov	r5,zero
  808a2c:	d8800e15 	stw	r2,56(sp)
  808a30:	081736c0 	call	81736c <_Unwind_SetGR>
  808a34:	d9800417 	ldw	r6,16(sp)
  808a38:	d9002617 	ldw	r4,152(sp)
  808a3c:	01400044 	movi	r5,1
  808a40:	081736c0 	call	81736c <_Unwind_SetGR>
  808a44:	d9400117 	ldw	r5,4(sp)
  808a48:	d9002617 	ldw	r4,152(sp)
  808a4c:	08173b40 	call	8173b4 <_Unwind_SetIP>
  808a50:	008001c4 	movi	r2,7
  808a54:	d8800015 	stw	r2,0(sp)
  808a58:	00000206 	br	808a64 <__gxx_personality_sj0+0x188>
  808a5c:	008000c4 	movi	r2,3
  808a60:	d8800015 	stw	r2,0(sp)
  808a64:	d9000d04 	addi	r4,sp,52
  808a68:	081732c0 	call	81732c <_Unwind_SjLj_Unregister>
  808a6c:	d8800017 	ldw	r2,0(sp)
  808a70:	dfc02417 	ldw	ra,144(sp)
  808a74:	df002317 	ldw	fp,140(sp)
  808a78:	dec02504 	addi	sp,sp,148
  808a7c:	f800283a 	ret
  808a80:	000b883a 	mov	r5,zero
  808a84:	0009883a 	mov	r4,zero
  808a88:	d8c00017 	ldw	r3,0(sp)
  808a8c:	18800003 	ldbu	r2,0(r3)
  808a90:	18c00044 	addi	r3,r3,1
  808a94:	d8c00015 	stw	r3,0(sp)
  808a98:	10c01fcc 	andi	r3,r2,127
  808a9c:	1906983a 	sll	r3,r3,r4
  808aa0:	10803fcc 	andi	r2,r2,255
  808aa4:	1080201c 	xori	r2,r2,128
  808aa8:	10bfe004 	addi	r2,r2,-128
  808aac:	28cab03a 	or	r5,r5,r3
  808ab0:	210001c4 	addi	r4,r4,7
  808ab4:	103ff416 	blt	r2,zero,808a88 <__gxx_personality_sj0+0x1ac>
  808ab8:	d8800117 	ldw	r2,4(sp)
  808abc:	10bfffc4 	addi	r2,r2,-1
  808ac0:	d8800115 	stw	r2,4(sp)
  808ac4:	10001726 	beq	r2,zero,808b24 <__gxx_personality_sj0+0x248>
  808ac8:	000d883a 	mov	r6,zero
  808acc:	0009883a 	mov	r4,zero
  808ad0:	d8c00017 	ldw	r3,0(sp)
  808ad4:	18800003 	ldbu	r2,0(r3)
  808ad8:	18c00044 	addi	r3,r3,1
  808adc:	d8c00015 	stw	r3,0(sp)
  808ae0:	10c01fcc 	andi	r3,r2,127
  808ae4:	1906983a 	sll	r3,r3,r4
  808ae8:	10803fcc 	andi	r2,r2,255
  808aec:	1080201c 	xori	r2,r2,128
  808af0:	10bfe004 	addi	r2,r2,-128
  808af4:	30ccb03a 	or	r6,r6,r3
  808af8:	210001c4 	addi	r4,r4,7
  808afc:	103ff416 	blt	r2,zero,808ad0 <__gxx_personality_sj0+0x1f4>
  808b00:	003fdf06 	br	808a80 <__gxx_personality_sj0+0x1a4>
  808b04:	d88008c3 	ldbu	r2,35(sp)
  808b08:	10008c1e 	bne	r2,zero,808d3c <__gxx_personality_sj0+0x460>
  808b0c:	00800204 	movi	r2,8
  808b10:	d8800015 	stw	r2,0(sp)
  808b14:	003fd306 	br	808a64 <__gxx_personality_sj0+0x188>
  808b18:	10bfffc4 	addi	r2,r2,-1
  808b1c:	d8800115 	stw	r2,4(sp)
  808b20:	003fae06 	br	8089dc <__gxx_personality_sj0+0x100>
  808b24:	30800044 	addi	r2,r6,1
  808b28:	d8800a15 	stw	r2,40(sp)
  808b2c:	283ff626 	beq	r5,zero,808b08 <__gxx_personality_sj0+0x22c>
  808b30:	d8800a17 	ldw	r2,40(sp)
  808b34:	103ff526 	beq	r2,zero,808b0c <__gxx_personality_sj0+0x230>
  808b38:	d8802117 	ldw	r2,132(sp)
  808b3c:	297fffc4 	addi	r5,r5,-1
  808b40:	1145883a 	add	r2,r2,r5
  808b44:	d8800215 	stw	r2,8(sp)
  808b48:	10007c26 	beq	r2,zero,808d3c <__gxx_personality_sj0+0x460>
  808b4c:	d8800317 	ldw	r2,12(sp)
  808b50:	1080020c 	andi	r2,r2,8
  808b54:	d8800b15 	stw	r2,44(sp)
  808b58:	1000bf1e 	bne	r2,zero,808e58 <__gxx_personality_sj0+0x57c>
  808b5c:	d8800617 	ldw	r2,24(sp)
  808b60:	1000e526 	beq	r2,zero,808ef8 <__gxx_personality_sj0+0x61c>
  808b64:	008020f4 	movhi	r2,131
  808b68:	10a65404 	addi	r2,r2,-26288
  808b6c:	d8800915 	stw	r2,36(sp)
  808b70:	d8800717 	ldw	r2,28(sp)
  808b74:	d80008c5 	stb	zero,35(sp)
  808b78:	108000a8 	cmpgeui	r2,r2,2
  808b7c:	d8800c15 	stw	r2,48(sp)
  808b80:	d8800217 	ldw	r2,8(sp)
  808b84:	000f883a 	mov	r7,zero
  808b88:	0007883a 	mov	r3,zero
  808b8c:	d8800015 	stw	r2,0(sp)
  808b90:	d8800017 	ldw	r2,0(sp)
  808b94:	11000003 	ldbu	r4,0(r2)
  808b98:	10800044 	addi	r2,r2,1
  808b9c:	d8800015 	stw	r2,0(sp)
  808ba0:	20801fcc 	andi	r2,r4,127
  808ba4:	10c4983a 	sll	r2,r2,r3
  808ba8:	21403fcc 	andi	r5,r4,255
  808bac:	2940201c 	xori	r5,r5,128
  808bb0:	297fe004 	addi	r5,r5,-128
  808bb4:	388eb03a 	or	r7,r7,r2
  808bb8:	18c001c4 	addi	r3,r3,7
  808bbc:	283ff416 	blt	r5,zero,808b90 <__gxx_personality_sj0+0x2b4>
  808bc0:	18800828 	cmpgeui	r2,r3,32
  808bc4:	1000061e 	bne	r2,zero,808be0 <__gxx_personality_sj0+0x304>
  808bc8:	2100100c 	andi	r4,r4,64
  808bcc:	20000426 	beq	r4,zero,808be0 <__gxx_personality_sj0+0x304>
  808bd0:	00800044 	movi	r2,1
  808bd4:	10c6983a 	sll	r3,r2,r3
  808bd8:	00c7c83a 	sub	r3,zero,r3
  808bdc:	38ceb03a 	or	r7,r7,r3
  808be0:	d9400017 	ldw	r5,0(sp)
  808be4:	d9c00415 	stw	r7,16(sp)
  808be8:	d8000115 	stw	zero,4(sp)
  808bec:	0007883a 	mov	r3,zero
  808bf0:	29000003 	ldbu	r4,0(r5)
  808bf4:	da000117 	ldw	r8,4(sp)
  808bf8:	29400044 	addi	r5,r5,1
  808bfc:	20801fcc 	andi	r2,r4,127
  808c00:	10c4983a 	sll	r2,r2,r3
  808c04:	21803fcc 	andi	r6,r4,255
  808c08:	3180201c 	xori	r6,r6,128
  808c0c:	4084b03a 	or	r2,r8,r2
  808c10:	31bfe004 	addi	r6,r6,-128
  808c14:	d8800115 	stw	r2,4(sp)
  808c18:	18c001c4 	addi	r3,r3,7
  808c1c:	303ff416 	blt	r6,zero,808bf0 <__gxx_personality_sj0+0x314>
  808c20:	18800828 	cmpgeui	r2,r3,32
  808c24:	1000081e 	bne	r2,zero,808c48 <__gxx_personality_sj0+0x36c>
  808c28:	2100100c 	andi	r4,r4,64
  808c2c:	20000626 	beq	r4,zero,808c48 <__gxx_personality_sj0+0x36c>
  808c30:	00800044 	movi	r2,1
  808c34:	10c6983a 	sll	r3,r2,r3
  808c38:	d8800117 	ldw	r2,4(sp)
  808c3c:	00c7c83a 	sub	r3,zero,r3
  808c40:	10c4b03a 	or	r2,r2,r3
  808c44:	d8800115 	stw	r2,4(sp)
  808c48:	38004726 	beq	r7,zero,808d68 <__gxx_personality_sj0+0x48c>
  808c4c:	01c04916 	blt	zero,r7,808d74 <__gxx_personality_sj0+0x498>
  808c50:	d8800917 	ldw	r2,36(sp)
  808c54:	10000426 	beq	r2,zero,808c68 <__gxx_personality_sj0+0x38c>
  808c58:	d8800b17 	ldw	r2,44(sp)
  808c5c:	1000021e 	bne	r2,zero,808c68 <__gxx_personality_sj0+0x38c>
  808c60:	d8800617 	ldw	r2,24(sp)
  808c64:	10008026 	beq	r2,zero,808e68 <__gxx_personality_sj0+0x58c>
  808c68:	d8802017 	ldw	r2,128(sp)
  808c6c:	01ce303a 	nor	r7,zero,r7
  808c70:	000b883a 	mov	r5,zero
  808c74:	11cf883a 	add	r7,r2,r7
  808c78:	0009883a 	mov	r4,zero
  808c7c:	38800003 	ldbu	r2,0(r7)
  808c80:	39c00044 	addi	r7,r7,1
  808c84:	10c01fcc 	andi	r3,r2,127
  808c88:	1906983a 	sll	r3,r3,r4
  808c8c:	10803fcc 	andi	r2,r2,255
  808c90:	1080201c 	xori	r2,r2,128
  808c94:	10bfe004 	addi	r2,r2,-128
  808c98:	28cab03a 	or	r5,r5,r3
  808c9c:	210001c4 	addi	r4,r4,7
  808ca0:	103ff616 	blt	r2,zero,808c7c <__gxx_personality_sj0+0x3a0>
  808ca4:	28005126 	beq	r5,zero,808dec <__gxx_personality_sj0+0x510>
  808ca8:	d8800117 	ldw	r2,4(sp)
  808cac:	103f9526 	beq	r2,zero,808b04 <__gxx_personality_sj0+0x228>
  808cb0:	d8c00017 	ldw	r3,0(sp)
  808cb4:	1885883a 	add	r2,r3,r2
  808cb8:	d8800215 	stw	r2,8(sp)
  808cbc:	003fb006 	br	808b80 <__gxx_personality_sj0+0x2a4>
  808cc0:	d8800717 	ldw	r2,28(sp)
  808cc4:	108000a8 	cmpgeui	r2,r2,2
  808cc8:	103f2d1e 	bne	r2,zero,808980 <__gxx_personality_sj0+0xa4>
  808ccc:	d8802517 	ldw	r2,148(sp)
  808cd0:	10bffe17 	ldw	r2,-8(r2)
  808cd4:	d8800115 	stw	r2,4(sp)
  808cd8:	10005d26 	beq	r2,zero,808e50 <__gxx_personality_sj0+0x574>
  808cdc:	d8802517 	ldw	r2,148(sp)
  808ce0:	10bffb17 	ldw	r2,-20(r2)
  808ce4:	d8800415 	stw	r2,16(sp)
  808ce8:	d8802517 	ldw	r2,148(sp)
  808cec:	10bffd17 	ldw	r2,-12(r2)
  808cf0:	d8800515 	stw	r2,20(sp)
  808cf4:	d8800417 	ldw	r2,16(sp)
  808cf8:	103f480e 	bge	r2,zero,808a1c <__gxx_personality_sj0+0x140>
  808cfc:	d9002617 	ldw	r4,152(sp)
  808d00:	d9400517 	ldw	r5,20(sp)
  808d04:	d9801d04 	addi	r6,sp,116
  808d08:	00bfffc4 	movi	r2,-1
  808d0c:	d8800e15 	stw	r2,56(sp)
  808d10:	08086a00 	call	8086a0 <_ZL17parse_lsda_headerP15_Unwind_ContextPKhP16lsda_header_info>
  808d14:	d9402617 	ldw	r5,152(sp)
  808d18:	d9002203 	ldbu	r4,136(sp)
  808d1c:	08086300 	call	808630 <_ZL21base_of_encoded_valuehP15_Unwind_Context>
  808d20:	d9002203 	ldbu	r4,136(sp)
  808d24:	d9402617 	ldw	r5,152(sp)
  808d28:	d8801f15 	stw	r2,124(sp)
  808d2c:	08086300 	call	808630 <_ZL21base_of_encoded_valuehP15_Unwind_Context>
  808d30:	d8c02517 	ldw	r3,148(sp)
  808d34:	18bffe15 	stw	r2,-8(r3)
  808d38:	003f3806 	br	808a1c <__gxx_personality_sj0+0x140>
  808d3c:	d8800317 	ldw	r2,12(sp)
  808d40:	1080004c 	andi	r2,r2,1
  808d44:	103f711e 	bne	r2,zero,808b0c <__gxx_personality_sj0+0x230>
  808d48:	d8800317 	ldw	r2,12(sp)
  808d4c:	1080020c 	andi	r2,r2,8
  808d50:	d8800415 	stw	r2,16(sp)
  808d54:	10008126 	beq	r2,zero,808f5c <__gxx_personality_sj0+0x680>
  808d58:	d8800a17 	ldw	r2,40(sp)
  808d5c:	d8000415 	stw	zero,16(sp)
  808d60:	d8800115 	stw	r2,4(sp)
  808d64:	003f2d06 	br	808a1c <__gxx_personality_sj0+0x140>
  808d68:	00800044 	movi	r2,1
  808d6c:	d88008c5 	stb	r2,35(sp)
  808d70:	003fcd06 	br	808ca8 <__gxx_personality_sj0+0x3cc>
  808d74:	d8802203 	ldbu	r2,136(sp)
  808d78:	11003fcc 	andi	r4,r2,255
  808d7c:	20c03fe0 	cmpeqi	r3,r4,255
  808d80:	18002a1e 	bne	r3,zero,808e2c <__gxx_personality_sj0+0x550>
  808d84:	108001cc 	andi	r2,r2,7
  808d88:	10c000a0 	cmpeqi	r3,r2,2
  808d8c:	18001f1e 	bne	r3,zero,808e0c <__gxx_personality_sj0+0x530>
  808d90:	10c000e8 	cmpgeui	r3,r2,3
  808d94:	18001926 	beq	r3,zero,808dfc <__gxx_personality_sj0+0x520>
  808d98:	10c000e0 	cmpeqi	r3,r2,3
  808d9c:	1800181e 	bne	r3,zero,808e00 <__gxx_personality_sj0+0x524>
  808da0:	10800120 	cmpeqi	r2,r2,4
  808da4:	10007026 	beq	r2,zero,808f68 <__gxx_personality_sj0+0x68c>
  808da8:	380490fa 	slli	r2,r7,3
  808dac:	0085c83a 	sub	r2,zero,r2
  808db0:	d9802017 	ldw	r6,128(sp)
  808db4:	d9401f17 	ldw	r5,124(sp)
  808db8:	d9c01c04 	addi	r7,sp,112
  808dbc:	308d883a 	add	r6,r6,r2
  808dc0:	00bfffc4 	movi	r2,-1
  808dc4:	d8800e15 	stw	r2,56(sp)
  808dc8:	08084480 	call	808448 <_ZL28read_encoded_value_with_basehjPKhPj>
  808dcc:	d9001c17 	ldw	r4,112(sp)
  808dd0:	20000626 	beq	r4,zero,808dec <__gxx_personality_sj0+0x510>
  808dd4:	d9400917 	ldw	r5,36(sp)
  808dd8:	283fb326 	beq	r5,zero,808ca8 <__gxx_personality_sj0+0x3cc>
  808ddc:	d9801a04 	addi	r6,sp,104
  808de0:	08083b80 	call	8083b8 <_ZL16get_adjusted_ptrPKSt9type_infoS1_PPv>
  808de4:	10803fcc 	andi	r2,r2,255
  808de8:	103faf26 	beq	r2,zero,808ca8 <__gxx_personality_sj0+0x3cc>
  808dec:	d8800a17 	ldw	r2,40(sp)
  808df0:	d8800115 	stw	r2,4(sp)
  808df4:	008000c4 	movi	r2,3
  808df8:	003efe06 	br	8089f4 <__gxx_personality_sj0+0x118>
  808dfc:	10005a1e 	bne	r2,zero,808f68 <__gxx_personality_sj0+0x68c>
  808e00:	380490ba 	slli	r2,r7,2
  808e04:	0085c83a 	sub	r2,zero,r2
  808e08:	003fe906 	br	808db0 <__gxx_personality_sj0+0x4d4>
  808e0c:	39cf883a 	add	r7,r7,r7
  808e10:	01c5c83a 	sub	r2,zero,r7
  808e14:	003fe606 	br	808db0 <__gxx_personality_sj0+0x4d4>
  808e18:	d8800617 	ldw	r2,24(sp)
  808e1c:	10002326 	beq	r2,zero,808eac <__gxx_personality_sj0+0x5d0>
  808e20:	00800184 	movi	r2,6
  808e24:	d8800015 	stw	r2,0(sp)
  808e28:	003f0e06 	br	808a64 <__gxx_personality_sj0+0x188>
  808e2c:	0005883a 	mov	r2,zero
  808e30:	003fdf06 	br	808db0 <__gxx_personality_sj0+0x4d4>
  808e34:	d8c00617 	ldw	r3,24(sp)
  808e38:	183ef41e 	bne	r3,zero,808a0c <__gxx_personality_sj0+0x130>
  808e3c:	d8c00717 	ldw	r3,28(sp)
  808e40:	18c000a8 	cmpgeui	r3,r3,2
  808e44:	183ef11e 	bne	r3,zero,808a0c <__gxx_personality_sj0+0x130>
  808e48:	10800060 	cmpeqi	r2,r2,1
  808e4c:	103fa926 	beq	r2,zero,808cf4 <__gxx_personality_sj0+0x418>
  808e50:	d9002517 	ldw	r4,148(sp)
  808e54:	080a2c40 	call	80a2c4 <__cxa_call_terminate>
  808e58:	008020f4 	movhi	r2,131
  808e5c:	10a65204 	addi	r2,r2,-26296
  808e60:	d8800915 	stw	r2,36(sp)
  808e64:	003f4206 	br	808b70 <__gxx_personality_sj0+0x294>
  808e68:	d8800c17 	ldw	r2,48(sp)
  808e6c:	103f7e1e 	bne	r2,zero,808c68 <__gxx_personality_sj0+0x38c>
  808e70:	d9801a17 	ldw	r6,104(sp)
  808e74:	d9400917 	ldw	r5,36(sp)
  808e78:	00bfffc4 	movi	r2,-1
  808e7c:	d9001d04 	addi	r4,sp,116
  808e80:	d8800e15 	stw	r2,56(sp)
  808e84:	08087cc0 	call	8087cc <_ZL20check_exception_specP16lsda_header_infoPKSt9type_infoPvl>
  808e88:	10803fcc 	andi	r2,r2,255
  808e8c:	103f861e 	bne	r2,zero,808ca8 <__gxx_personality_sj0+0x3cc>
  808e90:	d8800317 	ldw	r2,12(sp)
  808e94:	1080004c 	andi	r2,r2,1
  808e98:	1000271e 	bne	r2,zero,808f38 <__gxx_personality_sj0+0x65c>
  808e9c:	d8800a17 	ldw	r2,40(sp)
  808ea0:	d8800115 	stw	r2,4(sp)
  808ea4:	008000c4 	movi	r2,3
  808ea8:	003fe406 	br	808e3c <__gxx_personality_sj0+0x560>
  808eac:	d8800717 	ldw	r2,28(sp)
  808eb0:	108000a8 	cmpgeui	r2,r2,2
  808eb4:	103fda1e 	bne	r2,zero,808e20 <__gxx_personality_sj0+0x544>
  808eb8:	d8802517 	ldw	r2,148(sp)
  808ebc:	d8c00417 	ldw	r3,16(sp)
  808ec0:	10fffb15 	stw	r3,-20(r2)
  808ec4:	d8c00217 	ldw	r3,8(sp)
  808ec8:	10fffc15 	stw	r3,-16(r2)
  808ecc:	d8c00517 	ldw	r3,20(sp)
  808ed0:	10fffd15 	stw	r3,-12(r2)
  808ed4:	d8c02517 	ldw	r3,148(sp)
  808ed8:	d8801a17 	ldw	r2,104(sp)
  808edc:	18bfff15 	stw	r2,-4(r3)
  808ee0:	1805883a 	mov	r2,r3
  808ee4:	d8c00117 	ldw	r3,4(sp)
  808ee8:	10fffe15 	stw	r3,-8(r2)
  808eec:	00800184 	movi	r2,6
  808ef0:	d8800015 	stw	r2,0(sp)
  808ef4:	003edb06 	br	808a64 <__gxx_personality_sj0+0x188>
  808ef8:	d8800717 	ldw	r2,28(sp)
  808efc:	108000a8 	cmpgeui	r2,r2,2
  808f00:	103f181e 	bne	r2,zero,808b64 <__gxx_personality_sj0+0x288>
  808f04:	d8802517 	ldw	r2,148(sp)
  808f08:	10800003 	ldbu	r2,0(r2)
  808f0c:	1080004c 	andi	r2,r2,1
  808f10:	10000626 	beq	r2,zero,808f2c <__gxx_personality_sj0+0x650>
  808f14:	d8802517 	ldw	r2,148(sp)
  808f18:	10bff517 	ldw	r2,-44(r2)
  808f1c:	10fff017 	ldw	r3,-64(r2)
  808f20:	d8801a15 	stw	r2,104(sp)
  808f24:	d8c00915 	stw	r3,36(sp)
  808f28:	003f1106 	br	808b70 <__gxx_personality_sj0+0x294>
  808f2c:	d8802517 	ldw	r2,148(sp)
  808f30:	10800504 	addi	r2,r2,20
  808f34:	003ff906 	br	808f1c <__gxx_personality_sj0+0x640>
  808f38:	d8800a17 	ldw	r2,40(sp)
  808f3c:	d8800115 	stw	r2,4(sp)
  808f40:	003fdd06 	br	808eb8 <__gxx_personality_sj0+0x5dc>
  808f44:	00800044 	movi	r2,1
  808f48:	d8800e15 	stw	r2,56(sp)
  808f4c:	08091dc0 	call	8091dc <_ZSt10unexpectedv>
  808f50:	d9000f17 	ldw	r4,60(sp)
  808f54:	08081f80 	call	8081f8 <__cxa_begin_catch>
  808f58:	08091b80 	call	8091b8 <_ZSt9terminatev>
  808f5c:	d8800a17 	ldw	r2,40(sp)
  808f60:	d8800115 	stw	r2,4(sp)
  808f64:	003ead06 	br	808a1c <__gxx_personality_sj0+0x140>
  808f68:	00bfffc4 	movi	r2,-1
  808f6c:	d8800e15 	stw	r2,56(sp)
  808f70:	08176740 	call	817674 <abort>

00808f74 <__cxa_call_unexpected>:
  808f74:	deffe704 	addi	sp,sp,-100
  808f78:	01402074 	movhi	r5,129
  808f7c:	00c020b4 	movhi	r3,130
  808f80:	00802074 	movhi	r2,129
  808f84:	29623704 	addi	r5,r5,-30500
  808f88:	18dabf04 	addi	r3,r3,27388
  808f8c:	10a3fd04 	addi	r2,r2,-28684
  808f90:	d9000015 	stw	r4,0(sp)
  808f94:	d9000404 	addi	r4,sp,16
  808f98:	d9400a15 	stw	r5,40(sp)
  808f9c:	d8c00b15 	stw	r3,44(sp)
  808fa0:	dfc01815 	stw	ra,96(sp)
  808fa4:	d8800d15 	stw	r2,52(sp)
  808fa8:	df001715 	stw	fp,92(sp)
  808fac:	df000c15 	stw	fp,48(sp)
  808fb0:	dec00e15 	stw	sp,56(sp)
  808fb4:	08173140 	call	817314 <_Unwind_SjLj_Register>
  808fb8:	d9000017 	ldw	r4,0(sp)
  808fbc:	08081f80 	call	8081f8 <__cxa_begin_catch>
  808fc0:	d8c00017 	ldw	r3,0(sp)
  808fc4:	197ffd17 	ldw	r5,-12(r3)
  808fc8:	18bffe17 	ldw	r2,-8(r3)
  808fcc:	193ff717 	ldw	r4,-36(r3)
  808fd0:	d9400115 	stw	r5,4(sp)
  808fd4:	197ffb17 	ldw	r5,-20(r3)
  808fd8:	18fff817 	ldw	r3,-32(r3)
  808fdc:	d8801315 	stw	r2,76(sp)
  808fe0:	00800044 	movi	r2,1
  808fe4:	d9400015 	stw	r5,0(sp)
  808fe8:	d8c00215 	stw	r3,8(sp)
  808fec:	d8800515 	stw	r2,20(sp)
  808ff0:	08091cc0 	call	8091cc <_ZN10__cxxabiv112__unexpectedEPFvvE>
  808ff4:	d8c00617 	ldw	r3,24(sp)
  808ff8:	d8800517 	ldw	r2,20(sp)
  808ffc:	d8c00315 	stw	r3,12(sp)
  809000:	10002b1e 	bne	r2,zero,8090b0 <__cxa_call_unexpected+0x13c>
  809004:	d9000317 	ldw	r4,12(sp)
  809008:	08081f80 	call	8081f8 <__cxa_begin_catch>
  80900c:	08083a00 	call	8083a0 <__cxa_get_globals_fast>
  809010:	10800017 	ldw	r2,0(r2)
  809014:	10c00b03 	ldbu	r3,44(r2)
  809018:	18c0004c 	andi	r3,r3,1
  80901c:	18002e26 	beq	r3,zero,8090d8 <__cxa_call_unexpected+0x164>
  809020:	10800017 	ldw	r2,0(r2)
  809024:	d8800315 	stw	r2,12(sp)
  809028:	d9400117 	ldw	r5,4(sp)
  80902c:	00800084 	movi	r2,2
  809030:	d9801104 	addi	r6,sp,68
  809034:	0009883a 	mov	r4,zero
  809038:	d8800515 	stw	r2,20(sp)
  80903c:	08086a00 	call	8086a0 <_ZL17parse_lsda_headerP15_Unwind_ContextPKhP16lsda_header_info>
  809040:	d9800317 	ldw	r6,12(sp)
  809044:	d9c00017 	ldw	r7,0(sp)
  809048:	d9001104 	addi	r4,sp,68
  80904c:	317ff017 	ldw	r5,-64(r6)
  809050:	08087cc0 	call	8087cc <_ZL20check_exception_specP16lsda_header_infoPKSt9type_infoPvl>
  809054:	10803fcc 	andi	r2,r2,255
  809058:	1000221e 	bne	r2,zero,8090e4 <__cxa_call_unexpected+0x170>
  80905c:	d9c00017 	ldw	r7,0(sp)
  809060:	014020b4 	movhi	r5,130
  809064:	00800084 	movi	r2,2
  809068:	000d883a 	mov	r6,zero
  80906c:	295c2104 	addi	r5,r5,28804
  809070:	d9001104 	addi	r4,sp,68
  809074:	d8800515 	stw	r2,20(sp)
  809078:	08087cc0 	call	8087cc <_ZL20check_exception_specP16lsda_header_infoPKSt9type_infoPvl>
  80907c:	10803fcc 	andi	r2,r2,255
  809080:	10001926 	beq	r2,zero,8090e8 <__cxa_call_unexpected+0x174>
  809084:	01000104 	movi	r4,4
  809088:	080a1700 	call	80a170 <__cxa_allocate_exception>
  80908c:	1009883a 	mov	r4,r2
  809090:	008020b4 	movhi	r2,130
  809094:	01802074 	movhi	r6,129
  809098:	014020b4 	movhi	r5,130
  80909c:	109c3c04 	addi	r2,r2,28912
  8090a0:	31a8c804 	addi	r6,r6,-23776
  8090a4:	295c2104 	addi	r5,r5,28804
  8090a8:	20800015 	stw	r2,0(r4)
  8090ac:	080931c0 	call	80931c <__cxa_throw>
  8090b0:	10bfffc4 	addi	r2,r2,-1
  8090b4:	10000126 	beq	r2,zero,8090bc <__cxa_call_unexpected+0x148>
  8090b8:	003b68fa 	trap	3
  8090bc:	d8000515 	stw	zero,20(sp)
  8090c0:	08082b00 	call	8082b0 <__cxa_end_catch>
  8090c4:	08082b00 	call	8082b0 <__cxa_end_catch>
  8090c8:	d9000317 	ldw	r4,12(sp)
